5YfN
4""j
0,AUc
Y "&@
(d6P
<Y(n
U2eL!
W `L
@C` 
\4	RQa.
ramH
@BuH
A.&L	
!}+^(
3I@`@"
!% @
#Rn~E
d jA@=
P-4  n
b12h
D(E	h@F
&g @B2
$5)!@
 9@Z
h/L{
H5h`
_%dD
`{$T8@:
eHa"
C'd 
4@+k'
`9@cT
 r$+
 b0E
O!B$
" B%K
2&0D
(D	`
b	RP
4H%2
o5LP
*9B 
$`pE
  $E>
!X+$
J	I 
@@vD
		Q`E
1ZB!r1
$$hb
(vU@
 28(
HF(\
K` a
X:$BD
U`0 
%Dp@
8b D
1P`Qh
`TaI@
O=`^4--
Tnrd
ziYE
k%^!,
$NNL
!<k~
n,&O
DP:@]
O_$<y
ideU
Spl+q
V<v9
bj`t
Bm@,
Bo)X
7nN+GDw<
ajX"
T}n 
`tZ=1h'
j\U)Qv
<k~Faca
/0I9
%Z'|
^&.w(
4x$]
keaa<
ll6<
B>N}
P-7V#
nN_J
-&A4
\I&9(
!<ELc
pGU5`
NV9iY
u>{w
xKo)9
$<b5
<H"z
.F5n
@)h%58+
YOq`P
)~ @
>:"k
J?]A
b"@i}
yJ#h
Bwo.b0
zVEe
 0"7
)&#o
"^v7
O<4|
pjS[
n:)=
db>^'s[UBdq
ji{m
p_hR
.Hhq
q-Ag
	,mR
A*@D
-v<F
@ 7La
hV2{
s`D%
'C^z
qyf%
%a<fV
D2e8
FSkM
uhh%GX#
d	*}
%jlV
mH`~0
$M<a
b{(#
nNG~
C{",T
 KEl 
R<de4
Y--<[
TLx<<V
MKSc
I0=,
H)Oc
^Hlw/
8t&9
ec4/'
h)I&
Od&&]
B4U1,;a
~ !i^
`/Nc
h+Up8
CZlL
VNDswS4Qr
9D}>
j:nB
3]'(
_L|rj6}=S/,
R\aF
7/|e
7KJ4cJ[
9nb.y
1	SH
Z*VE
s3sDz
*F\H^
&\j~
_N.]>
Q|UrH
DU=d
=(9-
nO(L
/6Y#
fA[r
svlD
6]5N
zj6?
\wm 
:Dk=GK
iQG>
j7H%
E +J
|-B;
^p=S
>1,J
=#NH'
?7Qk
#VL?
"U},
aMY8
jCRT
VtLl	
-?Y.
VtL 
M>rk
BG6.
*jncn
drMg
UB(32
h8zjf
*D}M
_XN"aU
.-#]
3bV\
@kl4o
i=>.
8.Gf]
hg1,8
j\qe
RJQ/.
%D g
[~_tL
B$7"2
.AD8//
` dL
2=f?3
+-(}
/]MtO@
9Go)xS
lKDw
eQx"{2
.kem
Sy2cNZ
Z|G9
exg$]
g]~)^
v9nhS
jts`
/+Mb<
BeMj
>nJ n
[w^U
gM,Z
Q$Pzn1
jA	"or
-^">O
0 56`@
z?*Q
C.F8b
!5eX
R|5%
	uuoC
&x/G
73[{
-=aQ
PhRg
AHNCP
BW^[
L~Nx
9\7%
%8a^6
^@%_
ws6_
1*g}
XZnx
v_Ud'
TK'n
2'z*G
nY8L
j9*o;xW
Cd3F
6m"s
ifd)I
fVigD
I:[lx
2wlV
ukbS7
"d;5H
ep GO`
BxA6	
X5FD
Y6Y$
EJ/4
,X~o,H
m}	_
A-B5
jw( l
*6nBJi
C"r&
N~,%
N3Cx
|~he4
>O@:
[:)#1_1
 m?4pC
e"Mrb
jUpK
z[ '
?60,
|s'v
# D.
Ds]Y
TomZ
&V:}
ZBpDJ
G0[8
$E_M
(`6W
#'l*'F
<aCm
bDJ>
`^(e 
>nBl3G
rJ^y
9wp';
XSM{
|H3i||Z
w"Pf
Z+b?
zv3 
3V5 
IrcF
9s(1
Qr{X
pUH v
c-}B
DD(6
j(vrPHW
]I,CG
x{0>
R@V|kN
P:CFS
<\B/L
W\]i
x>ML67^l
y%O4b
l^$y\
q/>Xqh
\@8V
^9-8P
1\]q7
FQq.6~
b$<@
:9%}
7n,{'>X
k6I~G
9@8O
D.s*T
c\Wm
-6yF
*\We
]H:B
0,2_
OE	xFK
^hD7
__gmon_start__
_fini
_ITM_deregisterTMCloneTable
_ITM_registerTMCloneTable
__cxa_finalize
LLVMAddCase
LLVMAddClause
LLVMAddGlobal
LLVMAddIncoming
LLVMAddNamedMetadataOperand
LLVMAppendBasicBlockInContext
LLVMBuildAShr
LLVMBuildAdd
LLVMBuildAlloca
LLVMBuildAnd
LLVMBuildAtomicRMW
LLVMBuildBitCast
LLVMBuildBr
LLVMBuildCondBr
LLVMBuildExtractElement
LLVMBuildExtractValue
LLVMBuildFAdd
LLVMBuildFCmp
LLVMBuildFDiv
LLVMBuildFMul
LLVMBuildFNeg
LLVMBuildFPExt
LLVMBuildFPToSI
LLVMBuildFPToUI
LLVMBuildFPTrunc
LLVMBuildFRem
LLVMBuildFSub
LLVMBuildGEP
LLVMBuildICmp
LLVMBuildInBoundsGEP
LLVMBuildInsertElement
LLVMBuildInsertValue
LLVMBuildIntToPtr
LLVMBuildLShr
LLVMBuildLandingPad
LLVMBuildLoad
LLVMBuildMul
LLVMBuildNeg
LLVMBuildNot
LLVMBuildOr
LLVMBuildPhi
LLVMBuildPointerCast
LLVMBuildPtrToInt
LLVMBuildResume
LLVMBuildRet
LLVMBuildRetVoid
LLVMBuildSDiv
LLVMBuildSExt
LLVMBuildSIToFP
LLVMBuildSRem
LLVMBuildSelect
LLVMBuildShl
LLVMBuildShuffleVector
LLVMBuildStore
LLVMBuildStructGEP
LLVMBuildSub
LLVMBuildSwitch
LLVMBuildTrunc
LLVMBuildUDiv
LLVMBuildUIToFP
LLVMBuildURem
LLVMBuildUnreachable
LLVMBuildXor
LLVMBuildZExt
LLVMCloneModule
LLVMConstAShr
LLVMConstAdd
LLVMConstAnd
LLVMConstArray
LLVMConstBitCast
LLVMConstExtractValue
LLVMConstFAdd
LLVMConstFCmp
LLVMConstFDiv
LLVMConstFMul
LLVMConstFNeg
LLVMConstFPCast
LLVMConstFRem
LLVMConstFSub
LLVMConstICmp
LLVMConstInt
LLVMConstIntCast
LLVMConstIntGetZExtValue
LLVMConstIntOfArbitraryPrecision
LLVMConstIntToPtr
LLVMConstLShr
LLVMConstMul
LLVMConstNeg
LLVMConstNot
LLVMConstNull
LLVMConstOr
LLVMConstPointerCast
LLVMConstPtrToInt
LLVMConstSDiv
LLVMConstSIToFP
LLVMConstSRem
LLVMConstShl
LLVMConstStringInContext
LLVMConstStructInContext
LLVMConstSub
LLVMConstTrunc
LLVMConstUDiv
LLVMConstUIToFP
LLVMConstURem
LLVMConstVector
LLVMConstXor
LLVMConstZExt
LLVMContextDispose
LLVMContextSetDiagnosticHandler
LLVMCountParamTypes
LLVMCreateBuilderInContext
LLVMCreateFunctionPassManagerForModule
LLVMCreatePassManager
LLVMDeleteBasicBlock
LLVMDeleteGlobal
LLVMDisposeBuilder
LLVMDisposeModule
LLVMDisposePassManager
LLVMDoubleTypeInContext
LLVMFloatTypeInContext
LLVMFunctionType
LLVMGetAlignment
LLVMGetBasicBlockParent
LLVMGetCurrentDebugLocation
LLVMGetDataLayout
LLVMGetElementType
LLVMGetFirstBasicBlock
LLVMGetFirstGlobal
LLVMGetInitializer
LLVMGetInsertBlock
LLVMGetIntTypeWidth
LLVMGetMDKindIDInContext
LLVMGetModuleContext
LLVMGetNamedGlobal
LLVMGetNextGlobal
LLVMGetParam
LLVMGetParamTypes
LLVMGetSectionContents
LLVMGetSectionSize
LLVMGetUndef
LLVMGetValueName
LLVMGetVectorSize
LLVMInitializePasses
LLVMInt16TypeInContext
LLVMInt1TypeInContext
LLVMInt32TypeInContext
LLVMInt64TypeInContext
LLVMInt8TypeInContext
LLVMIntTypeInContext
LLVMIsAConstantInt
LLVMIsAGlobalVariable
LLVMIsDeclaration
LLVMIsGlobalConstant
LLVMIsSectionIteratorAtEnd
LLVMMDNodeInContext
LLVMMDStringInContext
LLVMModuleCreateWithNameInContext
LLVMMoveToNextSection
LLVMPassManagerBuilderCreate
LLVMPassManagerBuilderDispose
LLVMPassManagerBuilderPopulateFunctionPassManager
LLVMPassManagerBuilderPopulateLTOPassManager
LLVMPassManagerBuilderPopulateModulePassManager
LLVMPassManagerBuilderSetDisableUnrollLoops
LLVMPassManagerBuilderSetSizeLevel
LLVMPassManagerBuilderUseInlinerWithThreshold
LLVMPointerType
LLVMPositionBuilderAtEnd
LLVMReplaceAllUsesWith
LLVMRunPassManager
LLVMRustAddAlignmentAttr
LLVMRustAddAlignmentCallSiteAttr
LLVMRustAddAlwaysInlinePass
LLVMRustAddAnalysisPasses
LLVMRustAddBuilderLibraryInfo
LLVMRustAddDereferenceableAttr
LLVMRustAddDereferenceableCallSiteAttr
LLVMRustAddDereferenceableOrNullAttr
LLVMRustAddDereferenceableOrNullCallSiteAttr
LLVMRustAddHandler
LLVMRustAddLibraryInfo
LLVMRustAddModuleFlag
LLVMRustAddPass
LLVMRustAppendModuleInlineAsm
LLVMRustArchiveMemberFree
LLVMRustArchiveMemberNew
LLVMRustArrayType
LLVMRustBuildAtomicCmpXchg
LLVMRustBuildAtomicFence
LLVMRustBuildAtomicLoad
LLVMRustBuildAtomicStore
LLVMRustBuildCall
LLVMRustBuildCatchPad
LLVMRustBuildCatchRet
LLVMRustBuildCatchSwitch
LLVMRustBuildCleanupPad
LLVMRustBuildCleanupRet
LLVMRustBuildIntCast
LLVMRustBuildInvoke
LLVMRustConfigurePassManagerBuilder
LLVMRustConstInt128Get
LLVMRustContextCreate
LLVMRustCreateMemoryBufferWithContentsOfFile
LLVMRustCreateTargetMachine
LLVMRustCreateThinLTOData
LLVMRustDIBuilderCreate
LLVMRustDIBuilderCreateArrayType
LLVMRustDIBuilderCreateBasicType
LLVMRustDIBuilderCreateCompileUnit
LLVMRustDIBuilderCreateDebugLocation
LLVMRustDIBuilderCreateEnumerationType
LLVMRustDIBuilderCreateEnumerator
LLVMRustDIBuilderCreateFile
LLVMRustDIBuilderCreateFunction
LLVMRustDIBuilderCreateLexicalBlock
LLVMRustDIBuilderCreateLexicalBlockFile
LLVMRustDIBuilderCreateMemberType
LLVMRustDIBuilderCreateNameSpace
LLVMRustDIBuilderCreateOpDeref
LLVMRustDIBuilderCreateOpPlusUconst
LLVMRustDIBuilderCreatePointerType
LLVMRustDIBuilderCreateStaticVariable
LLVMRustDIBuilderCreateStructType
LLVMRustDIBuilderCreateSubroutineType
LLVMRustDIBuilderCreateTemplateTypeParameter
LLVMRustDIBuilderCreateUnionType
LLVMRustDIBuilderCreateVariable
LLVMRustDIBuilderDispose
LLVMRustDIBuilderFinalize
LLVMRustDIBuilderGetOrCreateArray
LLVMRustDIBuilderGetOrCreateSubrange
LLVMRustDIBuilderInsertDeclareAtEnd
LLVMRustDICompositeTypeSetTypeArray
LLVMRustDebugMetadataVersion
LLVMRustDisposeTargetMachine
LLVMRustFindAndCreatePass
LLVMRustFreeThinLTOData
LLVMRustGetLastError
LLVMRustGetLinkage
LLVMRustGetNamedValue
LLVMRustGetOrInsertFunction
LLVMRustGetOrInsertGlobal
LLVMRustGetSectionName
LLVMRustGetTypeKind
LLVMRustGetVisibility
LLVMRustHasFeature
LLVMRustInlineAsm
LLVMRustLinkInExternalBitcode
LLVMRustMarkAllFunctionsNounwind
LLVMRustMetadataAsValue
LLVMRustMetadataTypeInContext
LLVMRustModuleBufferCreate
LLVMRustModuleBufferFree
LLVMRustModuleBufferLen
LLVMRustModuleBufferPtr
LLVMRustModuleCost
LLVMRustParseBitcodeForThinLTO
LLVMRustPassKind
LLVMRustPassManagerBuilderPopulateThinLTOPassManager
LLVMRustPositionBuilderAtStart
LLVMRustPrepareThinLTOImport
LLVMRustPrepareThinLTOInternalize
LLVMRustPrepareThinLTORename
LLVMRustPrepareThinLTOResolveWeak
LLVMRustPrintModule
LLVMRustPrintPassTimings
LLVMRustPrintPasses
LLVMRustPrintTargetCPUs
LLVMRustPrintTargetFeatures
LLVMRustRunFunctionPassManager
LLVMRustRunRestrictionPass
LLVMRustSetDataLayoutFromTargetMachine
LLVMRustSetHasUnsafeAlgebra
LLVMRustSetInlineAsmDiagnosticHandler
LLVMRustSetLLVMOptions
LLVMRustSetLinkage
LLVMRustSetModulePIELevel
LLVMRustSetNormalizedTarget
LLVMRustSetVisibility
LLVMRustThinLTOAvailable
LLVMRustThinLTOBufferCreate
LLVMRustThinLTOBufferFree
LLVMRustThinLTOBufferLen
LLVMRustThinLTOBufferPtr
LLVMRustThinLTOGetDICompileUnit
LLVMRustThinLTOPatchDICompileUnit
LLVMRustThinLTORemoveAvailableExternally
LLVMRustVersionMajor
LLVMRustVersionMinor
LLVMRustWriteArchive
LLVMRustWriteOutputFile
LLVMRustWriteSMDiagnosticToString
LLVMRustWriteTypeToString
LLVMRustWriteValueToString
LLVMSetAlignment
LLVMSetCleanup
LLVMSetCurrentDebugLocation
LLVMSetDLLStorageClass
LLVMSetDataLayout
LLVMSetGlobalConstant
LLVMSetInitializer
LLVMSetInstDebugLocation
LLVMSetMetadata
LLVMSetModuleInlineAsm
LLVMSetPersonalityFn
LLVMSetSection
LLVMSetTailCall
LLVMSetUnnamedAddr
LLVMSetValueName
LLVMSetVolatile
LLVMStartMultithreaded
LLVMStructCreateNamed
LLVMStructSetBody
LLVMStructTypeInContext
LLVMTypeOf
LLVMVectorType
LLVMVoidTypeInContext
LLVMWriteBitcodeToFile
LLVMX86MMXTypeInContext
_Unwind_Resume
_ZN100_$LT$rustc_trans..back..write..DiagnosticHandlers$LT$$u27$a$GT$$u20$as$u20$core..ops..drop..Drop$GT$4drop17h07cb1cea70048b03E
_ZN100_$LT$syntax_pos..MultiSpan$u20$as$u20$core..convert..From$LT$syntax_pos..span_encoding..Span$GT$$GT$4from17h76905094c20151ecE
_ZN101_$LT$rustc..ty..fold..HasTypeFlagsVisitor$u20$as$u20$rustc..ty..fold..TypeVisitor$LT$$u27$tcx$GT$$GT$12visit_region17he93147c89c7c9714E
_ZN101_$LT$rustc..ty..fold..HasTypeFlagsVisitor$u20$as$u20$rustc..ty..fold..TypeVisitor$LT$$u27$tcx$GT$$GT$8visit_ty17hdd7e8a8f86d82e82E
_ZN101_$LT$rustc_trans..abi..CastTarget$u20$as$u20$core..convert..From$LT$rustc_trans..abi..Uniform$GT$$GT$4from17ha0ff10b0b38071abE
_ZN101_$LT$rustc_trans..builder..Builder$LT$$u27$a$C$$u20$$u27$tcx$GT$$u20$as$u20$core..ops..drop..Drop$GT$4drop17hc2b7060cdd692f08E
_ZN102_$LT$rustc..ty..sty..FnSig$LT$$u27$gcx$GT$$u20$as$u20$rustc..infer..TransNormalize$LT$$u27$gcx$GT$$GT$15trans_normalize17ha2ac7c6bbc6490eeE
_ZN103_$LT$$RF$$u27$a$u20$rustc..ty..layout..TargetDataLayout$u20$as$u20$rustc..ty..layout..HasDataLayout$GT$11data_layout17h1e6ff35e74a0a474E
_ZN103_$LT$rustc_trans..back..linker..EmLinker$LT$$u27$a$GT$$u20$as$u20$rustc_trans..back..linker..Linker$GT$10add_object17ha3edfa2aac1720abE
_ZN103_$LT$rustc_trans..back..linker..EmLinker$LT$$u27$a$GT$$u20$as$u20$rustc_trans..back..linker..Linker$GT$10full_relro17h328f3714e012ad76E
_ZN103_$LT$rustc_trans..back..linker..EmLinker$LT$$u27$a$GT$$u20$as$u20$rustc_trans..back..linker..Linker$GT$10link_dylib17h7643d49d99a8c44bE
_ZN103_$LT$rustc_trans..back..linker..EmLinker$LT$$u27$a$GT$$u20$as$u20$rustc_trans..back..linker..Linker$GT$11build_dylib17h448bd8e3d18a6336E
_ZN103_$LT$rustc_trans..back..linker..EmLinker$LT$$u27$a$GT$$u20$as$u20$rustc_trans..back..linker..Linker$GT$11gc_sections17ha75bfebe503a5a68E
_ZN103_$LT$rustc_trans..back..linker..EmLinker$LT$$u27$a$GT$$u20$as$u20$rustc_trans..back..linker..Linker$GT$12include_path17h6e307efad53f0b81E
_ZN103_$LT$rustc_trans..back..linker..EmLinker$LT$$u27$a$GT$$u20$as$u20$rustc_trans..back..linker..Linker$GT$13partial_relro17h919858de4f72bc1bE
_ZN103_$LT$rustc_trans..back..linker..EmLinker$LT$$u27$a$GT$$u20$as$u20$rustc_trans..back..linker..Linker$GT$14export_symbols17h4a3834a9ff62bf78E
_ZN103_$LT$rustc_trans..back..linker..EmLinker$LT$$u27$a$GT$$u20$as$u20$rustc_trans..back..linker..Linker$GT$14framework_path17ha7690e05eb6a50f2E
_ZN103_$LT$rustc_trans..back..linker..EmLinker$LT$$u27$a$GT$$u20$as$u20$rustc_trans..back..linker..Linker$GT$14link_framework17h009b0cd23424a7eeE
_ZN103_$LT$rustc_trans..back..linker..EmLinker$LT$$u27$a$GT$$u20$as$u20$rustc_trans..back..linker..Linker$GT$14link_staticlib17h3a3b1fa5815ba875E
_ZN103_$LT$rustc_trans..back..linker..EmLinker$LT$$u27$a$GT$$u20$as$u20$rustc_trans..back..linker..Linker$GT$15link_rust_dylib17h4eafb72689d12742E
_ZN103_$LT$rustc_trans..back..linker..EmLinker$LT$$u27$a$GT$$u20$as$u20$rustc_trans..back..linker..Linker$GT$15link_whole_rlib17h7577c8d7ac3b9151E
_ZN103_$LT$rustc_trans..back..linker..EmLinker$LT$$u27$a$GT$$u20$as$u20$rustc_trans..back..linker..Linker$GT$15output_filename17hb36973821972fd40E
_ZN103_$LT$rustc_trans..back..linker..EmLinker$LT$$u27$a$GT$$u20$as$u20$rustc_trans..back..linker..Linker$GT$20link_whole_staticlib17hc0a59df13c786635E
_ZN103_$LT$rustc_trans..back..linker..EmLinker$LT$$u27$a$GT$$u20$as$u20$rustc_trans..back..linker..Linker$GT$20no_default_libraries17heb4a27d0477ca046E
_ZN103_$LT$rustc_trans..back..linker..EmLinker$LT$$u27$a$GT$$u20$as$u20$rustc_trans..back..linker..Linker$GT$23build_static_executable17ha20a79ab5065e21cE
_ZN103_$LT$rustc_trans..back..linker..EmLinker$LT$$u27$a$GT$$u20$as$u20$rustc_trans..back..linker..Linker$GT$31position_independent_executable17he9ec7f9d769139b9E
_ZN103_$LT$rustc_trans..back..linker..EmLinker$LT$$u27$a$GT$$u20$as$u20$rustc_trans..back..linker..Linker$GT$4args17haa403654908b031fE
_ZN103_$LT$rustc_trans..back..linker..EmLinker$LT$$u27$a$GT$$u20$as$u20$rustc_trans..back..linker..Linker$GT$8finalize17h2856392cdb78dbdfE
_ZN103_$LT$rustc_trans..back..linker..EmLinker$LT$$u27$a$GT$$u20$as$u20$rustc_trans..back..linker..Linker$GT$8optimize17h168f10d52c1e0615E
_ZN103_$LT$rustc_trans..back..linker..EmLinker$LT$$u27$a$GT$$u20$as$u20$rustc_trans..back..linker..Linker$GT$9debuginfo17hc1327d23d9977ac3E
_ZN103_$LT$rustc_trans..back..linker..EmLinker$LT$$u27$a$GT$$u20$as$u20$rustc_trans..back..linker..Linker$GT$9link_rlib17hf1d25d22acddd2fdE
_ZN103_$LT$rustc_trans..back..linker..EmLinker$LT$$u27$a$GT$$u20$as$u20$rustc_trans..back..linker..Linker$GT$9subsystem17h9bdc804244bce0f5E
_ZN103_$LT$rustc_trans..base..StatRecorder$LT$$u27$a$C$$u20$$u27$tcx$GT$$u20$as$u20$core..ops..drop..Drop$GT$4drop17h498dc0535d7cc18bE
_ZN104_$LT$rustc_trans..back..linker..GccLinker$LT$$u27$a$GT$$u20$as$u20$rustc_trans..back..linker..Linker$GT$10add_object17h49a3973b2d5e1a37E
_ZN104_$LT$rustc_trans..back..linker..GccLinker$LT$$u27$a$GT$$u20$as$u20$rustc_trans..back..linker..Linker$GT$10full_relro17h0ddbe72ff146c84dE
_ZN104_$LT$rustc_trans..back..linker..GccLinker$LT$$u27$a$GT$$u20$as$u20$rustc_trans..back..linker..Linker$GT$10link_dylib17h8b52c077f3f1e146E
_ZN104_$LT$rustc_trans..back..linker..GccLinker$LT$$u27$a$GT$$u20$as$u20$rustc_trans..back..linker..Linker$GT$11build_dylib17ha9970031b15d46fdE
_ZN104_$LT$rustc_trans..back..linker..GccLinker$LT$$u27$a$GT$$u20$as$u20$rustc_trans..back..linker..Linker$GT$11gc_sections17hab1d4a9750908e15E
_ZN104_$LT$rustc_trans..back..linker..GccLinker$LT$$u27$a$GT$$u20$as$u20$rustc_trans..back..linker..Linker$GT$12include_path17h084a3dc430b5290cE
_ZN104_$LT$rustc_trans..back..linker..GccLinker$LT$$u27$a$GT$$u20$as$u20$rustc_trans..back..linker..Linker$GT$13partial_relro17h644209bb10120c39E
_ZN104_$LT$rustc_trans..back..linker..GccLinker$LT$$u27$a$GT$$u20$as$u20$rustc_trans..back..linker..Linker$GT$14export_symbols17h86f98dafb642681dE
_ZN104_$LT$rustc_trans..back..linker..GccLinker$LT$$u27$a$GT$$u20$as$u20$rustc_trans..back..linker..Linker$GT$14framework_path17he7c14041ddc23601E
_ZN104_$LT$rustc_trans..back..linker..GccLinker$LT$$u27$a$GT$$u20$as$u20$rustc_trans..back..linker..Linker$GT$14link_framework17hb78dd6eda630e362E
_ZN104_$LT$rustc_trans..back..linker..GccLinker$LT$$u27$a$GT$$u20$as$u20$rustc_trans..back..linker..Linker$GT$14link_staticlib17h48d22d982dcd582cE
_ZN104_$LT$rustc_trans..back..linker..GccLinker$LT$$u27$a$GT$$u20$as$u20$rustc_trans..back..linker..Linker$GT$15link_rust_dylib17h597b65f02c1ef727E
_ZN104_$LT$rustc_trans..back..linker..GccLinker$LT$$u27$a$GT$$u20$as$u20$rustc_trans..back..linker..Linker$GT$15link_whole_rlib17h1c42a9de82fea9ccE
_ZN104_$LT$rustc_trans..back..linker..GccLinker$LT$$u27$a$GT$$u20$as$u20$rustc_trans..back..linker..Linker$GT$15output_filename17h010d4f4b564b2462E
_ZN104_$LT$rustc_trans..back..linker..GccLinker$LT$$u27$a$GT$$u20$as$u20$rustc_trans..back..linker..Linker$GT$20link_whole_staticlib17h35a28b3af2dc2bc3E
_ZN104_$LT$rustc_trans..back..linker..GccLinker$LT$$u27$a$GT$$u20$as$u20$rustc_trans..back..linker..Linker$GT$20no_default_libraries17h92b723191e1897f9E
_ZN104_$LT$rustc_trans..back..linker..GccLinker$LT$$u27$a$GT$$u20$as$u20$rustc_trans..back..linker..Linker$GT$23build_static_executable17hd6448fd55070adceE
_ZN104_$LT$rustc_trans..back..linker..GccLinker$LT$$u27$a$GT$$u20$as$u20$rustc_trans..back..linker..Linker$GT$31position_independent_executable17h3a3034275483a01bE
_ZN104_$LT$rustc_trans..back..linker..GccLinker$LT$$u27$a$GT$$u20$as$u20$rustc_trans..back..linker..Linker$GT$4args17h8f32bbe528370828E
_ZN104_$LT$rustc_trans..back..linker..GccLinker$LT$$u27$a$GT$$u20$as$u20$rustc_trans..back..linker..Linker$GT$8finalize17h134163bd9188eadeE
_ZN104_$LT$rustc_trans..back..linker..GccLinker$LT$$u27$a$GT$$u20$as$u20$rustc_trans..back..linker..Linker$GT$8optimize17hfc47fb4902865b10E
_ZN104_$LT$rustc_trans..back..linker..GccLinker$LT$$u27$a$GT$$u20$as$u20$rustc_trans..back..linker..Linker$GT$9debuginfo17hf1ccf413a9c6cc29E
_ZN104_$LT$rustc_trans..back..linker..GccLinker$LT$$u27$a$GT$$u20$as$u20$rustc_trans..back..linker..Linker$GT$9link_rlib17h8f6410e72c71b404E
_ZN104_$LT$rustc_trans..back..linker..GccLinker$LT$$u27$a$GT$$u20$as$u20$rustc_trans..back..linker..Linker$GT$9subsystem17h0e113855dfc8a851E
_ZN105_$LT$rustc_trans..back..linker..MsvcLinker$LT$$u27$a$GT$$u20$as$u20$rustc_trans..back..linker..Linker$GT$10add_object17hcdf90c82be61c280E
_ZN105_$LT$rustc_trans..back..linker..MsvcLinker$LT$$u27$a$GT$$u20$as$u20$rustc_trans..back..linker..Linker$GT$10full_relro17h093b5e7dbdeb1f31E
_ZN105_$LT$rustc_trans..back..linker..MsvcLinker$LT$$u27$a$GT$$u20$as$u20$rustc_trans..back..linker..Linker$GT$10link_dylib17hfed47a06e9d8a3b0E
_ZN105_$LT$rustc_trans..back..linker..MsvcLinker$LT$$u27$a$GT$$u20$as$u20$rustc_trans..back..linker..Linker$GT$11build_dylib17h7134fb2d324617b7E
_ZN105_$LT$rustc_trans..back..linker..MsvcLinker$LT$$u27$a$GT$$u20$as$u20$rustc_trans..back..linker..Linker$GT$11gc_sections17hae4ea94281f6a5d5E
_ZN105_$LT$rustc_trans..back..linker..MsvcLinker$LT$$u27$a$GT$$u20$as$u20$rustc_trans..back..linker..Linker$GT$12include_path17hdbcffc0c88b15813E
_ZN105_$LT$rustc_trans..back..linker..MsvcLinker$LT$$u27$a$GT$$u20$as$u20$rustc_trans..back..linker..Linker$GT$13partial_relro17hd5c93b06dfaeff5fE
_ZN105_$LT$rustc_trans..back..linker..MsvcLinker$LT$$u27$a$GT$$u20$as$u20$rustc_trans..back..linker..Linker$GT$14export_symbols17h0a24dd572155aa09E
_ZN105_$LT$rustc_trans..back..linker..MsvcLinker$LT$$u27$a$GT$$u20$as$u20$rustc_trans..back..linker..Linker$GT$14framework_path17h3a1288351227c924E
_ZN105_$LT$rustc_trans..back..linker..MsvcLinker$LT$$u27$a$GT$$u20$as$u20$rustc_trans..back..linker..Linker$GT$14link_framework17haf19fdab22805506E
_ZN105_$LT$rustc_trans..back..linker..MsvcLinker$LT$$u27$a$GT$$u20$as$u20$rustc_trans..back..linker..Linker$GT$14link_staticlib17h1392d22766be3b92E
_ZN105_$LT$rustc_trans..back..linker..MsvcLinker$LT$$u27$a$GT$$u20$as$u20$rustc_trans..back..linker..Linker$GT$15link_rust_dylib17hadfb135c61329237E
_ZN105_$LT$rustc_trans..back..linker..MsvcLinker$LT$$u27$a$GT$$u20$as$u20$rustc_trans..back..linker..Linker$GT$15link_whole_rlib17hb7157859e9cad566E
_ZN105_$LT$rustc_trans..back..linker..MsvcLinker$LT$$u27$a$GT$$u20$as$u20$rustc_trans..back..linker..Linker$GT$15output_filename17h1656d79e74db4a7cE
_ZN105_$LT$rustc_trans..back..linker..MsvcLinker$LT$$u27$a$GT$$u20$as$u20$rustc_trans..back..linker..Linker$GT$20link_whole_staticlib17h8395963cbab065bcE
_ZN105_$LT$rustc_trans..back..linker..MsvcLinker$LT$$u27$a$GT$$u20$as$u20$rustc_trans..back..linker..Linker$GT$20no_default_libraries17he14b9583d90c4c9cE
_ZN105_$LT$rustc_trans..back..linker..MsvcLinker$LT$$u27$a$GT$$u20$as$u20$rustc_trans..back..linker..Linker$GT$23build_static_executable17he994b0c78975a02bE
_ZN105_$LT$rustc_trans..back..linker..MsvcLinker$LT$$u27$a$GT$$u20$as$u20$rustc_trans..back..linker..Linker$GT$31position_independent_executable17h15b50024446195a3E
_ZN105_$LT$rustc_trans..back..linker..MsvcLinker$LT$$u27$a$GT$$u20$as$u20$rustc_trans..back..linker..Linker$GT$4args17h2f1f90e2a29a04feE
_ZN105_$LT$rustc_trans..back..linker..MsvcLinker$LT$$u27$a$GT$$u20$as$u20$rustc_trans..back..linker..Linker$GT$8finalize17h9b7f60fa69c64ac7E
_ZN105_$LT$rustc_trans..back..linker..MsvcLinker$LT$$u27$a$GT$$u20$as$u20$rustc_trans..back..linker..Linker$GT$8optimize17ha12bc3b6b28a49c4E
_ZN105_$LT$rustc_trans..back..linker..MsvcLinker$LT$$u27$a$GT$$u20$as$u20$rustc_trans..back..linker..Linker$GT$9debuginfo17h3db266e09fe0cd2dE
_ZN105_$LT$rustc_trans..back..linker..MsvcLinker$LT$$u27$a$GT$$u20$as$u20$rustc_trans..back..linker..Linker$GT$9link_rlib17h5baa9ee576e10792E
_ZN105_$LT$rustc_trans..back..linker..MsvcLinker$LT$$u27$a$GT$$u20$as$u20$rustc_trans..back..linker..Linker$GT$9subsystem17h64c736afac74c90fE
_ZN107_$LT$rustc..ty..fold..HasEscapingRegionsVisitor$u20$as$u20$rustc..ty..fold..TypeVisitor$LT$$u27$tcx$GT$$GT$12visit_region17h438881cc586e164dE
_ZN107_$LT$rustc..ty..fold..HasEscapingRegionsVisitor$u20$as$u20$rustc..ty..fold..TypeVisitor$LT$$u27$tcx$GT$$GT$8visit_ty17h4366a8238f7b477fE
_ZN107_$LT$rustc..ty..layout..TyLayout$LT$$u27$tcx$GT$$u20$as$u20$rustc_trans..abi..LayoutExt$LT$$u27$tcx$GT$$GT$12is_aggregate17hee2a4722d98cd7e3E
_ZN107_$LT$rustc..ty..layout..TyLayout$LT$$u27$tcx$GT$$u20$as$u20$rustc_trans..abi..LayoutExt$LT$$u27$tcx$GT$$GT$21homogeneous_aggregate17h9f863d487983d0daE
_ZN107_$LT$rustc_errors..diagnostic_builder..DiagnosticBuilder$LT$$u27$a$GT$$u20$as$u20$core..ops..drop..Drop$GT$4drop17h974160d1ca19ba5fE
_ZN109_$LT$rustc_errors..diagnostic_builder..DiagnosticBuilder$LT$$u27$a$GT$$u20$as$u20$core..ops..deref..Deref$GT$5deref17h6521fcf859f4b302E
_ZN10rustc_back6target6Target10adjust_abi17hf556865c8bd7a1feE
_ZN10rustc_llvm10ObjectFile3new17h29f61a2b3d7be042E
_ZN10rustc_llvm10archive_ro5Child3raw17h29f677cd32e4f329E
_ZN10rustc_llvm10archive_ro5Child4data17h76541727a458dc91E
_ZN10rustc_llvm10archive_ro5Child4name17hdbc19c9b4b13cb22E
_ZN10rustc_llvm10archive_ro9ArchiveRO4iter17h9d4f339df5bc1c0eE
_ZN10rustc_llvm10archive_ro9ArchiveRO4open17h99701e11240ddb6cE
_ZN10rustc_llvm10diagnostic10Diagnostic6unpack17hd971b8e2525032a7E
_ZN10rustc_llvm10diagnostic26OptimizationDiagnosticKind8describe17h62df5d7cb8b526a6E
_ZN10rustc_llvm10last_error17hfc7786d9e2157e64E
_ZN10rustc_llvm14AttributePlace7as_uint17h0443fe6713e7477fE
_ZN10rustc_llvm14SetUnnamedAddr17h3f1db162f3b25ca7E
_ZN10rustc_llvm15SetUniqueComdat17hc3b58c82fe7de927E
_ZN10rustc_llvm15mk_section_iter17h423e67451550378cE
_ZN10rustc_llvm15twine_to_string17h1b5a2c9c9810bb96E
_ZN10rustc_llvm16OperandBundleDef3new17h48aa9e26a1f4a29eE
_ZN10rustc_llvm16OperandBundleDef3raw17h43341d749d9cea2fE
_ZN10rustc_llvm19SetFunctionCallConv17h10b74d0e1047c157E
_ZN10rustc_llvm21set_thread_local_mode17h63fcdbdbd04c1efaE
_ZN10rustc_llvm22SetInstructionCallConv17ha7db20cbe4afcadaE
_ZN10rustc_llvm26AddFunctionAttrStringValue17h31ce6ded2eefd60aE
_ZN10rustc_llvm28initialize_available_targets17h5a6447477ce94e14E
_ZN10rustc_llvm44_$LT$impl$u20$rustc_llvm..ffi..Attribute$GT$10apply_llfn17h585a9e581208a85dE
_ZN10rustc_llvm44_$LT$impl$u20$rustc_llvm..ffi..Attribute$GT$11toggle_llfn17heb36d7440229c564E
_ZN10rustc_llvm44_$LT$impl$u20$rustc_llvm..ffi..Attribute$GT$12unapply_llfn17hb9548168a7683103E
_ZN10rustc_llvm44_$LT$impl$u20$rustc_llvm..ffi..Attribute$GT$14apply_callsite17h88431db54fdd7807E
_ZN10rustc_llvm49_$LT$impl$u20$rustc_llvm..ffi..LLVMRustResult$GT$11into_result17hfd5a7cf38c3a3296E
_ZN10rustc_llvm77_$LT$impl$u20$core..str..FromStr$u20$for$u20$rustc_llvm..ffi..ArchiveKind$GT$8from_str17hf702d35a45e61a2eE
_ZN10rustc_llvm9get_param17h4852f13451f143a5E
_ZN10syntax_pos13span_encoding18with_span_interner8INTERNER7__getit17h0ed9c6b5853a2867E
_ZN10syntax_pos6symbol6Symbol6as_str17h9af34139b9060525E
_ZN10syntax_pos6symbol6Symbol6intern17h24dbc915fe2bc87bE
_ZN10syntax_pos6symbol8Interner3get17h5da33a81afbd50baE
_ZN10syntax_pos6symbol8Interner3new17h677e9ab5de897e50E
_ZN10syntax_pos6symbol8Interner6intern17hb5203655a5508a00E
_ZN10syntax_pos7hygiene11HygieneData3new17ha151f56a8a7e4394E
_ZN10syntax_pos7hygiene11HygieneData4with12HYGIENE_DATA7__getit17hf784531d450e911fE
_ZN10syntax_pos9MultiSpan3new17h7f55bf912bbd37f4E
_ZN110_$LT$rustc_const_math..int..ConstInt$u20$as$u20$core..ops..bit..Shl$LT$rustc_const_math..int..ConstInt$GT$$GT$3shl17h3a576e01be110714E
_ZN110_$LT$rustc_const_math..int..ConstInt$u20$as$u20$core..ops..bit..Shr$LT$rustc_const_math..int..ConstInt$GT$$GT$3shr17he150d5a71baa1a3bE
_ZN112_$LT$$RF$$u27$gcx$u20$rustc..ty..TyS$LT$$u27$gcx$GT$$u20$as$u20$rustc..infer..TransNormalize$LT$$u27$gcx$GT$$GT$15trans_normalize17h8aa909ebcb1c3debE
_ZN112_$LT$rustc_errors..diagnostic_builder..DiagnosticBuilder$LT$$u27$a$GT$$u20$as$u20$core..ops..deref..DerefMut$GT$9deref_mut17h243391b16cd7dcccE
_ZN113_$LT$rustc..ich..fingerprint..Fingerprint$u20$as$u20$rustc_data_structures..stable_hasher..StableHasherResult$GT$6finish17h2af59e692a133c7bE
_ZN113_$LT$rustc..ty..context..TyCtxt$LT$$u27$a$C$$u20$$u27$gcx$C$$u20$$u27$tcx$GT$$u20$as$u20$rustc..ty..DefIdTree$GT$6parent17h12ba2dd32b1f1c20E
_ZN113_$LT$rustc_trans..back..write..spawn_work..$u7b$$u7b$closure$u7d$$u7d$..Bomb$u20$as$u20$core..ops..drop..Drop$GT$4drop17h058dd77503f135f9E
_ZN113_$LT$std..sys_common..process..DefaultEnvKey$u20$as$u20$core..convert..From$LT$std..ffi..os_str..OsString$GT$$GT$4from17h9eef61235a540aebE
_ZN115_$LT$rustc..ty..layout..TyLayout$LT$$u27$tcx$GT$$u20$as$u20$rustc_trans..type_of..LayoutLlvmExt$LT$$u27$tcx$GT$$GT$15pointee_info_at17hbd19ffce2063c644E
_ZN115_$LT$rustc..ty..layout..TyLayout$LT$$u27$tcx$GT$$u20$as$u20$rustc_trans..type_of..LayoutLlvmExt$LT$$u27$tcx$GT$$GT$16llvm_field_index17hc1b21920e9284fc5E
_ZN115_$LT$rustc..ty..layout..TyLayout$LT$$u27$tcx$GT$$u20$as$u20$rustc_trans..type_of..LayoutLlvmExt$LT$$u27$tcx$GT$$GT$17is_llvm_immediate17he9adc9af380c1514E
_ZN115_$LT$rustc..ty..layout..TyLayout$LT$$u27$tcx$GT$$u20$as$u20$rustc_trans..type_of..LayoutLlvmExt$LT$$u27$tcx$GT$$GT$19immediate_llvm_type17h2145b44170d31fe9E
_ZN115_$LT$rustc..ty..layout..TyLayout$LT$$u27$tcx$GT$$u20$as$u20$rustc_trans..type_of..LayoutLlvmExt$LT$$u27$tcx$GT$$GT$19is_llvm_scalar_pair17hb611166bdc1cdd83E
_ZN115_$LT$rustc..ty..layout..TyLayout$LT$$u27$tcx$GT$$u20$as$u20$rustc_trans..type_of..LayoutLlvmExt$LT$$u27$tcx$GT$$GT$19scalar_llvm_type_at17hdd281e3c3b4b56b2E
_ZN115_$LT$rustc..ty..layout..TyLayout$LT$$u27$tcx$GT$$u20$as$u20$rustc_trans..type_of..LayoutLlvmExt$LT$$u27$tcx$GT$$GT$29scalar_pair_element_llvm_type17h892fe9994732bebeE
_ZN115_$LT$rustc..ty..layout..TyLayout$LT$$u27$tcx$GT$$u20$as$u20$rustc_trans..type_of..LayoutLlvmExt$LT$$u27$tcx$GT$$GT$9llvm_type17hbdcef50f4a0cec33E
_ZN116_$LT$rustc..ty..context..TyCtxt$LT$$u27$a$C$$u20$$u27$gcx$C$$u20$$u27$tcx$GT$$u20$as$u20$core..ops..deref..Deref$GT$5deref17h95ae36d1c0b3bec1E
_ZN116_$LT$rustc..ty..sty..ExistentialTraitRef$LT$$u27$gcx$GT$$u20$as$u20$rustc..infer..TransNormalize$LT$$u27$gcx$GT$$GT$15trans_normalize17hc80a1c7d13e3be96E
_ZN11rustc_trans10trans_item12predefine_fn17h8daab6010723f795E
_ZN11rustc_trans10trans_item16predefine_static17h526380d233af38d2E
_ZN11rustc_trans14LlvmTransCrate3new17h5ce1223a9471b2e8E
_ZN11rustc_trans3asm16trans_global_asm17h2d6c46016802ae4fE
_ZN11rustc_trans4base14trans_instance17h65f8ef1634f52d60E
_ZN11rustc_trans5type_4Type11float_width17hec2616975021e4b7E
_ZN11rustc_trans5type_4Type11func_params17hd6dadd79f858f3e1E
_ZN11rustc_trans5type_4Type11int_from_ty17h79bfa36e6cdd74e7E
_ZN11rustc_trans5type_4Type12element_type17hce07f367fc377e98E
_ZN11rustc_trans5type_4Type12from_integer17h251752bf73c45f55E
_ZN11rustc_trans5type_4Type12named_struct17h55416f7475896697E
_ZN11rustc_trans5type_4Type12to_ref_slice17hbcce43d7f7805d66E
_ZN11rustc_trans5type_4Type12uint_from_ty17hd683c620d7974610E
_ZN11rustc_trans5type_4Type13float_from_ty17h2748d1bbd163ff8cE
_ZN11rustc_trans5type_4Type13variadic_func17h87332031e1710eadE
_ZN11rustc_trans5type_4Type13vector_length17h98fc9bf88de71821E
_ZN11rustc_trans5type_4Type14padding_filler17hc894f45a0c6c6773E
_ZN11rustc_trans5type_4Type15set_struct_body17hcad7cd3937f3b57cE
_ZN11rustc_trans5type_4Type21pointee_for_abi_align17h6b75cb2f4c270052E
_ZN11rustc_trans5type_4Type2i117hc9f5a6585da108f1E
_ZN11rustc_trans5type_4Type2i817hdeca11f2ef36bc20E
_ZN11rustc_trans5type_4Type2ix17hc1a5db462b18db5eE
_ZN11rustc_trans5type_4Type3f3217h98e0da91cac4a3d2E
_ZN11rustc_trans5type_4Type3f6417h078e3116ceee17ebE
_ZN11rustc_trans5type_4Type3i1617h765f9379b3fce664E
_ZN11rustc_trans5type_4Type3i3217hc7968bda6fe422e2E
_ZN11rustc_trans5type_4Type3i6417h4572ea291d996acdE
_ZN11rustc_trans5type_4Type3i8p17hab9069b179706d9bE
_ZN11rustc_trans5type_4Type4bool17h896c6eadc1a55e2bE
_ZN11rustc_trans5type_4Type4char17h0f9ff4b1eba0a0a5E
_ZN11rustc_trans5type_4Type4func17hc5bb317220895113E
_ZN11rustc_trans5type_4Type4i12817h961ca02fc89ff46fE
_ZN11rustc_trans5type_4Type4kind17h21ba04189875e44bE
_ZN11rustc_trans5type_4Type4void17h54293c628eefd78dE
_ZN11rustc_trans5type_4Type5array17h10112a04bc852e6cE
_ZN11rustc_trans5type_4Type5c_int17h10546b11274d6031E
_ZN11rustc_trans5type_4Type5isize17h78d7b983b853141eE
_ZN11rustc_trans5type_4Type6ptr_to17hca6438f64f44f5e2E
_ZN11rustc_trans5type_4Type6vector17h2309c997d05e95fdE
_ZN11rustc_trans5type_4Type7i8_llcx17h06a6478e4742f6f3E
_ZN11rustc_trans5type_4Type7struct_17h3c6b16a67d6762a5E
_ZN11rustc_trans5type_4Type7x86_mmx17h4ca6f63f42bfef76E
_ZN11rustc_trans5type_4Type8i8p_llcx17h1eb286a9f0fe1af9E
_ZN11rustc_trans5type_4Type8metadata17h19cffb8f65e64af1E
_ZN11rustc_trans5type_4Type9int_width17h64dc0661c9c38f0dE
_ZN11rustc_trans6consts12trans_static17h0d5ad7a0dd31f638E
_ZN11rustc_trans7context9CodegenCx10into_stats17h1ee8181be9a01337E
_ZN11rustc_trans7context9CodegenCx13get_intrinsic17hd5194447cb8cfc22E
_ZN11rustc_trans7context9CodegenCx13type_is_sized17h21ed357e561da058E
_ZN11rustc_trans7context9CodegenCx14eh_personality17hf1827da39239ad9aE
_ZN11rustc_trans7context9CodegenCx14type_is_freeze17h97877fa0318c8ac3E
_ZN11rustc_trans7context9CodegenCx15type_needs_drop17hb4f5df0c2887f485E
_ZN11rustc_trans7context9CodegenCx16eh_unwind_resume17hd83f9eb390006cc0E
_ZN11rustc_trans7context9CodegenCx17type_has_metadata17h358d1fc972859e45E
_ZN11rustc_trans7context9CodegenCx26generate_local_symbol_name17h7844f9fcb2ae0ca6E
_ZN11rustc_trans7context9CodegenCx3new17h03a66c4071cfcf24E
_ZN11rustc_trans7context9CodegenCx4sess17h09378c69f659e0d6E
_ZN11rustc_trans7type_of79_$LT$impl$u20$rustc_trans..context..CodegenCx$LT$$u27$a$C$$u20$$u27$tcx$GT$$GT$17size_and_align_of17h2775da697c3bdc98E
_ZN11rustc_trans7type_of79_$LT$impl$u20$rustc_trans..context..CodegenCx$LT$$u27$a$C$$u20$$u27$tcx$GT$$GT$7size_of17h3b155702851fd4a2E
_ZN11rustc_trans7type_of79_$LT$impl$u20$rustc_trans..context..CodegenCx$LT$$u27$a$C$$u20$$u27$tcx$GT$$GT$8align_of17h4bfc220b30c4e386E
_ZN11rustc_trans9debuginfo17CrateDebugContext3new17h05ab6cc843397994E
_ZN11rustc_trans9llvm_util15target_features17h2999d74552fb37f3E
_ZN120_$LT$rustc..mir..traversal..ReversePostorder$LT$$u27$a$C$$u20$$u27$tcx$GT$$u20$as$u20$core..iter..iterator..Iterator$GT$4next17ha4b0a600a8e1c208E
_ZN125_$LT$rustc..ty..context..TyCtxt$LT$$u27$a$C$$u20$$u27$gcx$C$$u20$$u27$tcx$GT$$u20$as$u20$rustc..ty..layout..HasDataLayout$GT$11data_layout17h36393fbb55088c62E
_ZN129_$LT$$RF$$u27$a$u20$rustc_trans..context..CodegenCx$LT$$u27$a$C$$u20$$u27$tcx$GT$$u20$as$u20$rustc..ty..layout..HasDataLayout$GT$11data_layout17h32e4f6a119b25463E
_ZN129_$LT$rustc..ty..subst..Kind$LT$$u27$tcx$GT$$u20$as$u20$core..convert..From$LT$$RF$$u27$tcx$u20$rustc..ty..sty..RegionKind$GT$$GT$4from17h606a665f39f441dbE
_ZN12rustc_errors10FatalError5raise17h529244179987b808E
_ZN12rustc_errors10diagnostic10Diagnostic6cancel17h58df2744ce6b96a0E
_ZN12rustc_errors10diagnostic10Diagnostic7message17he9f9901c5c7016ccE
_ZN12rustc_errors10diagnostic13SubDiagnostic7message17h04e77c3b41e92a57E
_ZN12rustc_errors18diagnostic_builder17DiagnosticBuilder3new17h9edb77441bc416deE
_ZN12rustc_errors18diagnostic_builder17DiagnosticBuilder4emit17h0f37381d961eb4b0E
_ZN12rustc_errors18diagnostic_builder17DiagnosticBuilder4help17h3906d842f054f181E
_ZN12rustc_errors18diagnostic_builder17DiagnosticBuilder4note17hcec2fa18ff7ee7d8E
_ZN12rustc_errors7Handler10struct_err17hb505e1a7b710dc67E
_ZN12rustc_errors7Handler12with_emitter17h9dd3a8c86b31496bE
_ZN12rustc_errors7Handler14emit_with_code17hf815cc9688f51166E
_ZN12rustc_errors7Handler15abort_if_errors17hd0e60fa5ce43ba43E
_ZN12rustc_errors7Handler18note_without_error17h42a22ce6004bd4efE
_ZN12rustc_errors7Handler3bug17h4f7d27c25e4b9ebfE
_ZN12rustc_errors7Handler3err17h90c9cfa530e32ab5E
_ZN12rustc_errors7Handler4emit17h5b783f256e1cb890E
_ZN12rustc_errors7Handler4warn17hc66d0ba84867371fE
_ZN12rustc_errors7Handler5fatal17hea17adbd4a823086E
_ZN132_$LT$rustc..ty..sty..Binder$LT$$RF$$u27$tcx$u20$rustc..ty..Slice$LT$rustc..ty..sty..ExistentialPredicate$LT$$u27$tcx$GT$$GT$$GT$$GT$9principal17hbd016a56a54c14c2E
_ZN133_$LT$rustc..ty..subst..Kind$LT$$u27$tcx$GT$$u20$as$u20$core..convert..From$LT$$RF$$u27$tcx$u20$rustc..ty..TyS$LT$$u27$tcx$GT$$GT$$GT$4from17h1b3c6a4064409b24E
_ZN135_$LT$rustc..mir..mono..CodegenUnit$LT$$u27$tcx$GT$$u20$as$u20$rustc_mir..monomorphize..partitioning..CodegenUnitExt$LT$$u27$tcx$GT$$GT$15as_codegen_unit17h9467b9314ada66deE
_ZN135_$LT$rustc..mir..mono..MonoItem$LT$$u27$tcx$GT$$u20$as$u20$rustc_mir..monomorphize..item..MonoItemExt$LT$$u27$a$C$$u20$$u27$tcx$GT$$GT$12as_mono_item17h4bb5875532ef43c6E
_ZN13rustc_apfloat4ieee3sig10shift_left17h672be11cd1c0c403E
_ZN13rustc_apfloat4ieee3sig11shift_right17h2ecaa70931b25aabE
_ZN13rustc_apfloat4ieee3sig4omsb17h22f1192858da2e5aE
_ZN13rustc_apfloat4ieee3sig7get_bit17h332b3f0c11c2ddd5E
_ZN13rustc_apfloat4ieee3sig7set_bit17h1a96b40b6e342779E
_ZN13rustc_apfloat4ieee3sig9increment17h335603579dcae697E
_ZN13rustc_apfloat4ieee4Loss18through_truncation17h637a0eea4d908077E
_ZN13rustc_apfloat4ieee4Loss7combine17hce246c491856aa05E
_ZN141_$LT$$RF$$u27$a$u20$rustc_trans..context..CodegenCx$LT$$u27$a$C$$u20$$u27$tcx$GT$$u20$as$u20$rustc..ty..layout..HasTyCtxt$LT$$u27$tcx$GT$$GT$3tcx17h4277e2ed139fc4faE
_ZN149_$LT$rustc_trans..mir..analyze..LocalAnalyzer$LT$$u27$mir$C$$u20$$u27$a$C$$u20$$u27$tcx$GT$$u20$as$u20$rustc..mir..visit..Visitor$LT$$u27$tcx$GT$$GT$11visit_local17hdb9199c4458c1fe3E
_ZN149_$LT$rustc_trans..mir..analyze..LocalAnalyzer$LT$$u27$mir$C$$u20$$u27$a$C$$u20$$u27$tcx$GT$$u20$as$u20$rustc..mir..visit..Visitor$LT$$u27$tcx$GT$$GT$11visit_place17h0ccf88d2ee5a4c8bE
_ZN149_$LT$rustc_trans..mir..analyze..LocalAnalyzer$LT$$u27$mir$C$$u20$$u27$a$C$$u20$$u27$tcx$GT$$u20$as$u20$rustc..mir..visit..Visitor$LT$$u27$tcx$GT$$GT$12visit_assign17h7f08b60d3b0ded94E
_ZN149_$LT$rustc_trans..mir..analyze..LocalAnalyzer$LT$$u27$mir$C$$u20$$u27$a$C$$u20$$u27$tcx$GT$$u20$as$u20$rustc..mir..visit..Visitor$LT$$u27$tcx$GT$$GT$21visit_terminator_kind17h8a1bd5e1e4d551a4E
_ZN14rustc_binaryen13ModuleOptions13import_memory17hc25b77fd66458c7eE
_ZN14rustc_binaryen13ModuleOptions14source_map_url17ha472e27852ca3987E
_ZN14rustc_binaryen13ModuleOptions3new17h480b6e718c028a81E
_ZN14rustc_binaryen13ModuleOptions5stack17h649bc51bd0c1c34bE
_ZN14rustc_binaryen13ModuleOptions9debuginfo17h5aa3d55f0e94138cE
_ZN14rustc_binaryen6Module10source_map17hb404457148121e6fE
_ZN14rustc_binaryen6Module3new17hf62b0a8de375007eE
_ZN14rustc_binaryen6Module4data17hae0316e570c4e0f8E
_ZN14rustc_demangle12try_demangle17ha5f777a64d218447E
_ZN155_$LT$rustc..ty..subst..SubstFolder$LT$$u27$a$C$$u20$$u27$gcx$C$$u20$$u27$tcx$GT$$u20$as$u20$rustc..ty..fold..TypeFolder$LT$$u27$gcx$C$$u20$$u27$tcx$GT$$GT$11fold_region17h91c963fbf3c65825E
_ZN155_$LT$rustc..ty..subst..SubstFolder$LT$$u27$a$C$$u20$$u27$gcx$C$$u20$$u27$tcx$GT$$u20$as$u20$rustc..ty..fold..TypeFolder$LT$$u27$gcx$C$$u20$$u27$tcx$GT$$GT$3tcx17h9d3abdb2822f54f4E
_ZN155_$LT$rustc..ty..subst..SubstFolder$LT$$u27$a$C$$u20$$u27$gcx$C$$u20$$u27$tcx$GT$$u20$as$u20$rustc..ty..fold..TypeFolder$LT$$u27$gcx$C$$u20$$u27$tcx$GT$$GT$7fold_ty17h9690031518d8b411E
_ZN156_$LT$rustc..traits..trans..AssociatedTypeNormalizer$LT$$u27$a$C$$u20$$u27$gcx$GT$$u20$as$u20$rustc..ty..fold..TypeFolder$LT$$u27$gcx$C$$u20$$u27$gcx$GT$$GT$3tcx17h61de660f9881daeeE
_ZN156_$LT$rustc..traits..trans..AssociatedTypeNormalizer$LT$$u27$a$C$$u20$$u27$gcx$GT$$u20$as$u20$rustc..ty..fold..TypeFolder$LT$$u27$gcx$C$$u20$$u27$gcx$GT$$GT$7fold_ty17h767119d4d42ef0a4E
_ZN157_$LT$rustc..ty..fold..RegionReplacer$LT$$u27$a$C$$u20$$u27$gcx$C$$u20$$u27$tcx$GT$$u20$as$u20$rustc..ty..fold..TypeFolder$LT$$u27$gcx$C$$u20$$u27$tcx$GT$$GT$11fold_region17h98fc744d6b3456c9E
_ZN157_$LT$rustc..ty..fold..RegionReplacer$LT$$u27$a$C$$u20$$u27$gcx$C$$u20$$u27$tcx$GT$$u20$as$u20$rustc..ty..fold..TypeFolder$LT$$u27$gcx$C$$u20$$u27$tcx$GT$$GT$3tcx17h7e4cb2ffc93e84bdE
_ZN157_$LT$rustc..ty..fold..RegionReplacer$LT$$u27$a$C$$u20$$u27$gcx$C$$u20$$u27$tcx$GT$$u20$as$u20$rustc..ty..fold..TypeFolder$LT$$u27$gcx$C$$u20$$u27$tcx$GT$$GT$7fold_ty17hb8575a2616bac5eeE
_ZN15rustc_allocator17ALLOCATOR_METHODS17h9a3edb4b78d12ba0E
_ZN16rustc_const_math3err12ConstMathErr11description17h2e428ade4b4bdcf4E
_ZN16rustc_const_math3int8ConstInt10new_signed17h5bd2cf4e83841b4bE
_ZN16rustc_const_math3int8ConstInt12new_unsigned17h44ded02fc237df5fE
_ZN16rustc_const_math3int8ConstInt17to_u128_unchecked17hcf4cc79b43d13d47E
_ZN16rustc_const_math3int8ConstInt6to_u6417h542b132792b59acdE
_ZN16rustc_const_math3int8ConstInt9wrap_incr17hcf39677b3f3f9451E
_ZN16rustc_const_math5isize10ConstIsize6as_i6417he37ba8c5d70145e8E
_ZN16rustc_const_math5usize10ConstUsize6as_u6417h8e767703914cb9e2E
_ZN171_$LT$rustc..ty..erase_regions..RegionEraserVisitor$LT$$u27$a$C$$u20$$u27$gcx$C$$u20$$u27$tcx$GT$$u20$as$u20$rustc..ty..fold..TypeFolder$LT$$u27$gcx$C$$u20$$u27$tcx$GT$$GT$11fold_region17h843464856a6597acE
_ZN171_$LT$rustc..ty..erase_regions..RegionEraserVisitor$LT$$u27$a$C$$u20$$u27$gcx$C$$u20$$u27$tcx$GT$$u20$as$u20$rustc..ty..fold..TypeFolder$LT$$u27$gcx$C$$u20$$u27$tcx$GT$$GT$3tcx17hfa47a89f0e87cde5E
_ZN171_$LT$rustc..ty..erase_regions..RegionEraserVisitor$LT$$u27$a$C$$u20$$u27$gcx$C$$u20$$u27$tcx$GT$$u20$as$u20$rustc..ty..fold..TypeFolder$LT$$u27$gcx$C$$u20$$u27$tcx$GT$$GT$7fold_ty17h6ebbbc43f29e0844E
_ZN179_$LT$$RF$$u27$a$u20$rustc_trans..context..CodegenCx$LT$$u27$a$C$$u20$$u27$tcx$GT$$u20$as$u20$rustc..ty..layout..LayoutOf$LT$$RF$$u27$tcx$u20$rustc..ty..TyS$LT$$u27$tcx$GT$$GT$$GT$9layout_of17h3283ee01b8eb8cbdE
_ZN17rustc_incremental16assert_dep_graph16assert_dep_graph17h4d4c9ebe29427eabE
_ZN17rustc_incremental21assert_module_sources21assert_module_sources17h7b9c8a7bd5aca636E
_ZN17rustc_incremental7persist12work_product20save_trans_partition17hbf5519a024b62b8fE
_ZN17rustc_incremental7persist2fs16in_incr_comp_dir17hdaee180c5e1dfc98E
_ZN17rustc_incremental7persist2fs26finalize_session_directory17hf4610891ef9dc980E
_ZN17rustc_incremental7persist4save14save_dep_graph17h1338c86a5045a810E
_ZN17rustc_incremental7persist4save18save_work_products17h35ab433ebfc6f5fdE
_ZN17rustc_trans_utils12symbol_names7provide17hd453a38e3ece84a0E
_ZN17rustc_trans_utils17symbol_names_test19report_symbol_names17hf513fb1db872cfd9E
_ZN17rustc_trans_utils21find_exported_symbols17hc7c91b58ab936db5E
_ZN17rustc_trans_utils27check_for_rustc_errors_attr17hcb683711364c9c47E
_ZN17rustc_trans_utils4link12out_filename17h7076122327aa24b7E
_ZN17rustc_trans_utils4link15build_link_meta17h9ad5e6f89c3a28bfE
_ZN17rustc_trans_utils4link23check_file_is_writeable17he084cfc81b3784ccE
_ZN17rustc_trans_utils4link25invalid_output_for_target17h96a7b32744822cebE
_ZN226_$LT$rustc..ty..layout..LayoutCx$LT$$u27$tcx$C$$u20$rustc..ty..context..TyCtxt$LT$$u27$a$C$$u20$$u27$tcx$C$$u20$$u27$tcx$GT$$GT$$u20$as$u20$rustc..ty..layout..LayoutOf$LT$$RF$$u27$tcx$u20$rustc..ty..TyS$LT$$u27$tcx$GT$$GT$$GT$9layout_of17h07b83b400166ed48E
_ZN25rustc_platform_intrinsics9Intrinsic4find17h9663760d7c2f69b5E
_ZN3log20MAX_LOG_LEVEL_FILTER17h0abd80cf9756da6dE
_ZN3log6logger17hfdad19f6b6d7a38bE
_ZN3std10sys_common11thread_info3set17h96498f9bea449b10E
_ZN3std10sys_common6thread9min_stack17h0dfba7d470e3bf5dE
_ZN3std11collections4hash3map11RandomState3new4KEYS7__getit17hf53822f89a5950efE
_ZN3std11collections4hash3map19DefaultResizePolicy3new17he8a17fe0a9defd40E
_ZN3std11collections4hash5table20calculate_allocation17h33d262dab06c40d0E
_ZN3std2fs10DirBuilder3new17h45cf9368bf60de6eE
_ZN3std2fs10DirBuilder7_create17hc6fc8ada776742b4E
_ZN3std2fs11OpenOptions3new17h995cc941b394182dE
_ZN3std2fs11OpenOptions4read17h5cdae409034831d3E
_ZN3std2fs11OpenOptions5_open17h127e468e7794076bE
_ZN3std2fs11OpenOptions5write17h0ef9908b712e3be8E
_ZN3std2fs11OpenOptions6create17h5041f5738ec0a820E
_ZN3std2fs11OpenOptions8truncate17hf495c46ce63198d8E
_ZN3std2fs19initial_buffer_size17hf61257b539c6d2eeE
_ZN3std2fs8DirEntry4path17hf8c62e19302cf5c1E
_ZN3std2io5error5Error12raw_os_error17h6eb05ef914e83ae3E
_ZN3std2io5error5Error4_new17hd17ef21d1239b117E
_ZN3std2io5error5Error4kind17hb8ffe784261825d3E
_ZN3std2io5stdio6_print17hf1de60c3d7597260E
_ZN3std2io6cursor11slice_write17hc45994d6141e2749E
_ZN3std3env11current_dir17h7b96dbc325f80ffcE
_ZN3std3env4_var17h73a410c4fe9ea941E
_ZN3std3env7_var_os17h80bf75c343ee3b94E
_ZN3std3ffi5c_str104_$LT$impl$u20$core..convert..From$LT$std..ffi..c_str..NulError$GT$$u20$for$u20$std..io..error..Error$GT$4from17h4c50535bb483923aE
_ZN3std3ffi5c_str4CStr19from_bytes_with_nul17h2ca0b30b10f429acE
_ZN3std3ffi5c_str4CStr6to_str17h078ebd12ea5bd9f1E
_ZN3std3ffi5c_str4CStr8from_ptr17hac1a6c9be69f41cbE
_ZN3std3ffi5c_str7CString4_new17hec93ba5ce62bf10bE
_ZN3std3ffi6os_str103_$LT$impl$u20$core..convert..AsRef$LT$std..ffi..os_str..OsStr$GT$$u20$for$u20$alloc..string..String$GT$6as_ref17he539808b03349fa1E
_ZN3std3ffi6os_str5OsStr10from_inner17he9fec1f0c626dbd3E
_ZN3std3ffi6os_str5OsStr12to_os_string17h9f3068ae01ffc766E
_ZN3std3ffi6os_str5OsStr5bytes17haa2e5bf2a38e3a23E
_ZN3std3ffi6os_str5OsStr6to_str17h116663707aa95192E
_ZN3std3ffi6os_str85_$LT$impl$u20$core..convert..AsRef$LT$std..ffi..os_str..OsStr$GT$$u20$for$u20$str$GT$6as_ref17hbfc5bedf2839dadcE
_ZN3std3ffi6os_str8OsString3new17heb9c3356d48373acE
_ZN3std3sys4unix2fs12canonicalize17h589e548a1266543fE
_ZN3std3sys4unix2fs4copy17h7165462c799c7b6eE
_ZN3std3sys4unix2fs4link17h3dc4adf4393ec0eeE
_ZN3std3sys4unix2fs4stat17h9fcf4d964f7b96ebE
_ZN3std3sys4unix2fs6rename17h4323b54a0e94b4d5E
_ZN3std3sys4unix2fs6unlink17hbfeb8910df136974E
_ZN3std3sys4unix2fs7readdir17hee76f76f8bb8c9a9E
_ZN3std3sys4unix2os11split_paths17h357d382f8f5525f4E
_ZN3std3sys4unix4rand19hashmap_random_keys17h615f3120fb8ef185E
_ZN3std3sys4unix6os_str3Buf10push_slice17ha9d8b6bd13274b47E
_ZN3std3sys4unix6os_str3Buf8as_slice17h55592f8b5b1eb66fE
_ZN3std3sys4unix6thread5guard7current17h5d2f96babf623e37E
_ZN3std3sys4unix6thread6Thread3new17h5773fd958736e986E
_ZN3std3sys4unix6thread6Thread4join17h96f103a56eec3426E
_ZN3std3sys4unix6thread6Thread8set_name17h21b01bc1c6b6d6f6E
_ZN3std3sys4unix7process14process_common7Command3arg17he864972c461c4105E
_ZN3std3sys4unix7process14process_common7Command3new17h418885e8e55df122E
_ZN3std3sys4unix7process14process_common7Command6stderr17hd24c8f4817e5ef30E
_ZN3std3sys4unix7process14process_common7Command6stdout17hdd8dde8bec13a4adE
_ZN3std3sys4unix7process14process_common7Command7env_mut17he33cc5f6dc5b4205E
_ZN3std4path4Path10components17h430cf55596fa388fE
_ZN3std4path4Path11is_absolute17h3a4da395c2588024E
_ZN3std4path4Path11to_path_buf17hd30d02d2a55b64a3E
_ZN3std4path4Path15_with_extension17ha6e9ea8a3ba74c71E
_ZN3std4path4Path15to_string_lossy17h5be3d5ac17c19791E
_ZN3std4path4Path5_join17h5a38b438cb116458E
_ZN3std4path4Path6exists17h687b6964892a0b24E
_ZN3std4path4Path6parent17hf8a118d20d903b72E
_ZN3std4path4Path6to_str17h758130f7e73f097fE
_ZN3std4path4Path7display17ha24fe75f3d0f7e84E
_ZN3std4path4Path9extension17h43bbdb45cf7d10a6E
_ZN3std4path4Path9file_name17h361da16993b6069dE
_ZN3std4path4Path9file_stem17h77de44322f38a2fcE
_ZN3std4path77_$LT$impl$u20$core..convert..AsRef$LT$std..path..Path$GT$$u20$for$u20$str$GT$6as_ref17h5fc61fb8de88511eE
_ZN3std4path7PathBuf3new17h048344ef2f5bc23bE
_ZN3std4path7PathBuf3pop17h13c8dbd57cc0d417E
_ZN3std4path7PathBuf5_push17h0968128090dff3f3E
_ZN3std4path7PathBuf7as_path17hd593a4e6202c80a1E
_ZN3std4path95_$LT$impl$u20$core..convert..AsRef$LT$std..path..Path$GT$$u20$for$u20$alloc..string..String$GT$6as_ref17ha1a7588c1fd5c9d4E
_ZN3std4path97_$LT$impl$u20$core..convert..AsRef$LT$std..path..Path$GT$$u20$for$u20$std..ffi..os_str..OsStr$GT$6as_ref17h77a4c20a91a4bda0E
_ZN3std4path9Component9as_os_str17h4e4aa2086af46295E
_ZN3std4sync4mpsc4sync5Queue7dequeue17h6a5c05463b971125E
_ZN3std4sync4mpsc8blocking11SignalToken6signal17h3c696cf8ca00828bE
_ZN3std4sync4mpsc8blocking6tokens17hca13340c82870351E
_ZN3std4sync4mpsc8blocking9WaitToken4wait17h2daa910078ef64baE
_ZN3std4sync4once4Once10call_inner17h85e59158d1d63806E
_ZN3std4time7Instant14duration_since17hd9656f7209a2e8deE
_ZN3std4time7Instant3now17h5608b3a48a22fa46E
_ZN3std4time7Instant7elapsed17hfc589b2a53d9bff7E
_ZN3std5ascii14escape_default17h56f4378c1493b91bE
_ZN3std5error205_$LT$impl$u20$core..convert..From$LT$$RF$$u27$b$u20$str$GT$$u20$for$u20$alloc..boxed..Box$LT$std..error..Error$u20$$u2b$$u20$core..marker..Sync$u20$$u2b$$u20$core..marker..Send$u20$$u2b$$u20$$u27$a$GT$$GT$4from17ha2c35d20379aff31E
_ZN3std5error213_$LT$impl$u20$core..convert..From$LT$alloc..string..String$GT$$u20$for$u20$alloc..boxed..Box$LT$std..error..Error$u20$$u2b$$u20$core..marker..Sync$u20$$u2b$$u20$core..marker..Send$u20$$u2b$$u20$$u27$static$GT$$GT$4from17h87d71761f0e9665bE
_ZN3std6thread6Thread3new17hb560a1c1c27a5569E
_ZN3std6thread6Thread5cname17h260beb7aa63ba52cE
_ZN3std6thread7Builder3new17h5e9d2a57c80ae329E
_ZN3std6thread9yield_now17h2a099ba1f0817986E
_ZN3std7process10ExitStatus7success17hffb731380fc43aa2E
_ZN3std7process5Child16wait_with_output17hadfc1d7b83e38ff8E
_ZN3std7process5Stdio5piped17h601577b0c5591f50E
_ZN3std7process7Command5spawn17h1c0bdca0c296b3ccE
_ZN3std7process7Command6output17hfbbbcc0dde57bd76E
_ZN3std9panicking15begin_panic_fmt17h3e1b2c309f719757E
_ZN3std9panicking18update_panic_count17ha40771f841f0df43E
_ZN3std9panicking20rust_panic_with_hook17he8346e7912797ff1E
_ZN3std9panicking9panicking17had455ff49befa258E
_ZN40_$LT$str$u20$as$u20$core..fmt..Debug$GT$3fmt17hed9c0cfeaad9424eE
_ZN42_$LT$str$u20$as$u20$core..fmt..Display$GT$3fmt17h183137abcc8e6526E
_ZN43_$LT$bool$u20$as$u20$core..fmt..Display$GT$3fmt17h80b131f9c82a6452E
_ZN43_$LT$char$u20$as$u20$core..fmt..Display$GT$3fmt17h43fec2cf5dd2245dE
_ZN45_$LT$rand..ThreadRng$u20$as$u20$rand..Rng$GT$8next_u6417h5e8c2985d874bd2bE
_ZN47_$LT$std..fs..File$u20$as$u20$std..io..Read$GT$4read17h6fddfbe92979a459E
_ZN48_$LT$std..fs..File$u20$as$u20$std..io..Write$GT$5write17h8457c7516f919ca8E
_ZN49_$LT$u8$u20$as$u20$core..slice..SliceContains$GT$14slice_contains17hbe812b168de4c1fbE
_ZN4core3fmt3num50_$LT$impl$u20$core..fmt..Octal$u20$for$u20$u16$GT$3fmt17h89e970969f15b501E
_ZN4core3fmt3num51_$LT$impl$u20$core..fmt..Binary$u20$for$u20$u16$GT$3fmt17h74b30bd38c314af6E
_ZN4core3fmt3num52_$LT$impl$u20$core..fmt..Display$u20$for$u20$u32$GT$3fmt17he48bf2e2d155ab9dE
_ZN4core3fmt3num52_$LT$impl$u20$core..fmt..Display$u20$for$u20$u64$GT$3fmt17hac0c3e7637534564E
_ZN4core3fmt3num53_$LT$impl$u20$core..fmt..Display$u20$for$u20$u128$GT$3fmt17h93c8b8833cdeb59dE
_ZN4core3fmt3num53_$LT$impl$u20$core..fmt..LowerHex$u20$for$u20$u16$GT$3fmt17h50745257fd7a0722E
_ZN4core3fmt3num53_$LT$impl$u20$core..fmt..UpperHex$u20$for$u20$u16$GT$3fmt17h01e32b3b397fbbefE
_ZN4core3fmt3num54_$LT$impl$u20$core..fmt..Display$u20$for$u20$isize$GT$3fmt17h39805abb45b2f66fE
_ZN4core3fmt3num54_$LT$impl$u20$core..fmt..Display$u20$for$u20$usize$GT$3fmt17hc45208aa86580358E
_ZN4core3fmt3num55_$LT$impl$u20$core..fmt..LowerHex$u20$for$u20$usize$GT$3fmt17ha5309b532454a3e4E
_ZN4core3fmt5write17h545f67085ed8f8e3E
_ZN4core3fmt8builders10DebugTuple5field17h9366f37fe0567776E
_ZN4core3fmt8builders10DebugTuple6finish17h318076b2fab1b933E
_ZN4core3fmt8builders11DebugStruct5field17h88c88420a011e722E
_ZN4core3fmt8builders11DebugStruct6finish17h16c59b894f38911bE
_ZN4core3fmt8builders9DebugList5entry17h3a31081703315339E
_ZN4core3fmt8builders9DebugList6finish17h90b77713eb658341E
_ZN4core3fmt9Formatter10debug_list17h7c82302660826250E
_ZN4core3fmt9Formatter11debug_tuple17h120f93d3346e120dE
_ZN4core3fmt9Formatter12debug_struct17h9855754755870a25E
_ZN4core3fmt9Formatter9alternate17h4985a31466a94b72E
_ZN4core3fmt9Formatter9write_fmt17h514d0ef68aef7802E
_ZN4core3fmt9Formatter9write_str17h06d8b1d552b7e275E
_ZN4core3num23_$LT$impl$u20$usize$GT$25checked_next_power_of_two17h4492384cb3d1a93bE
_ZN4core3num54_$LT$impl$u20$core..str..FromStr$u20$for$u20$usize$GT$8from_str17h2f09cf9519ac2f76E
_ZN4core3str16slice_error_fail17he886eef982d1876fE
_ZN4core3str7pattern11StrSearcher3new17hf46c5b09d23d7259E
_ZN4core3str9from_utf817h05a382d24cfdbfbaE
_ZN4core5slice20slice_index_len_fail17h1215ade5b906fe4dE
_ZN4core5slice22slice_index_order_fail17h0a9663b05cdd1202E
_ZN4core5slice6memchr6memchr17hf9631ec60dccc593E
_ZN4core6option13expect_failed17h14c74d4195be4d87E
_ZN4core9panicking18panic_bounds_check17h830e2df90c2a6008E
_ZN4core9panicking5panic17hce08f5d7586283e5E
_ZN4core9panicking9panic_fmt17hab703c003f911be6E
_ZN4rand10thread_rng17h82b6086a3e6fa2d1E
_ZN52_$LT$std..path..Path$u20$as$u20$core..fmt..Debug$GT$3fmt17h4173aeea3f98f284E
_ZN53_$LT$core..fmt..Error$u20$as$u20$core..fmt..Debug$GT$3fmt17hb50e2fe31962cbfbE
_ZN54_$LT$rustc..mir..BinOp$u20$as$u20$core..fmt..Debug$GT$3fmt17hf5dc956ecc1751cfE
_ZN54_$LT$rustc..mir..Field$u20$as$u20$core..fmt..Debug$GT$3fmt17h23e5bd333d952763E
_ZN54_$LT$rustc..mir..Local$u20$as$u20$core..fmt..Debug$GT$3fmt17hfd2570961b5ed6f1E
_ZN55_$LT$rustc..hir..BinOp_$u20$as$u20$core..fmt..Debug$GT$3fmt17ha9607f5697b2b560E
_ZN55_$LT$std..path..PathBuf$u20$as$u20$core..fmt..Debug$GT$3fmt17h56183ba33b596f79E
_ZN55_$LT$syntax_pos..CharPos$u20$as$u20$syntax_pos..Pos$GT$8to_usize17h3e5a18c381ef0851E
_ZN56_$LT$syntax_pos..BytePos$u20$as$u20$core..fmt..Debug$GT$3fmt17h2fb3e0dab7a16924E
_ZN57_$LT$core..str..Utf8Error$u20$as$u20$core..fmt..Debug$GT$3fmt17h5e6f863cc5e53dbaE
_ZN58_$LT$flate2..mem..Compress$u20$as$u20$flate2..zio..Ops$GT$7run_vec17h9d290c37828d5b77E
_ZN58_$LT$flate2..mem..Compress$u20$as$u20$flate2..zio..Ops$GT$8total_in17h4ff9a682d1fedb02E
_ZN58_$LT$flate2..mem..Compress$u20$as$u20$flate2..zio..Ops$GT$9total_out17h758efb1afd467e08E
_ZN58_$LT$rustc_apfloat..Status$u20$as$u20$core..fmt..Debug$GT$3fmt17h3440908824ae4fd9E
_ZN58_$LT$rustc_trans..abi..Reg$u20$as$u20$core..fmt..Debug$GT$3fmt17h1511dcc7b62acd1aE
_ZN58_$LT$std..io..error..Error$u20$as$u20$core..fmt..Debug$GT$3fmt17h5d967462ab7bc7cdE
_ZN58_$LT$std..process..Command$u20$as$u20$core..fmt..Debug$GT$3fmt17h7e873dd076fac9a6E
_ZN58_$LT$syntax..ast..NodeId$u20$as$u20$core..fmt..Display$GT$3fmt17hd1888f8bc5104df5E
_ZN58_$LT$tempdir..TempDir$u20$as$u20$core..ops..drop..Drop$GT$4drop17h3c44475e5b625be0E
_ZN59_$LT$rustc..mir..BasicBlock$u20$as$u20$core..fmt..Debug$GT$3fmt17h337b1a4faf24205aE
_ZN59_$LT$std..path..PathBuf$u20$as$u20$core..cmp..PartialEq$GT$2eq17hbec699739862c013E
_ZN59_$LT$syntax_pos..FileName$u20$as$u20$core..fmt..Display$GT$3fmt17h27182117c1ba27b8E
_ZN5alloc3fmt6format17h65809e4a81fcc1beE
_ZN5alloc3str21_$LT$impl$u20$str$GT$12encode_utf1617hdc97ecec69e7f874E
_ZN5alloc3str21_$LT$impl$u20$str$GT$12to_lowercase17h914d617a49e7622dE
_ZN5alloc3str21_$LT$impl$u20$str$GT$4trim17h49b610564959ba27E
_ZN5alloc3str56_$LT$impl$u20$alloc..borrow..ToOwned$u20$for$u20$str$GT$8to_owned17he7d8404923c8a84fE
_ZN5alloc6string104_$LT$impl$u20$core..convert..From$LT$alloc..string..String$GT$$u20$for$u20$alloc..vec..Vec$LT$u8$GT$$GT$4from17hfdeb153641564851E
_ZN5alloc6string6String15from_utf8_lossy17hc3393b2b77b70e72E
_ZN5rustc2ty11ReprOptions10discr_type17hd45ed9603c3d6633E
_ZN5rustc2ty3sty13ClosureSubsts11closure_sig17he806a0cb4fff791dE
_ZN5rustc2ty3sty13ClosureSubsts18generator_poly_sig17h0ff14f7ec127abe6E
_ZN5rustc2ty3sty13ClosureSubsts5split17h6b2719d1c870b75aE
_ZN5rustc2ty3sty13ClosureSubsts9field_tys17h1b53187c0c655eb5E
_ZN5rustc2ty3sty13DebruijnIndex3new17h9dbbcbebe64e79f0E
_ZN5rustc2ty3sty48_$LT$impl$u20$rustc..ty..TyS$LT$$u27$tcx$GT$$GT$10ty_adt_def17h2422f7dc23e921f4E
_ZN5rustc2ty3sty48_$LT$impl$u20$rustc..ty..TyS$LT$$u27$tcx$GT$$GT$13builtin_deref17h0552a591b34ed85fE
_ZN5rustc2ty3sty48_$LT$impl$u20$rustc..ty..TyS$LT$$u27$tcx$GT$$GT$13builtin_index17h5ccd89665fb808eeE
_ZN5rustc2ty3sty48_$LT$impl$u20$rustc..ty..TyS$LT$$u27$tcx$GT$$GT$13is_unsafe_ptr17h29589ed0f576a729E
_ZN5rustc2ty3sty48_$LT$impl$u20$rustc..ty..TyS$LT$$u27$tcx$GT$$GT$21sequence_element_type17h86195be6ebd651c0E
_ZN5rustc2ty3sty48_$LT$impl$u20$rustc..ty..TyS$LT$$u27$tcx$GT$$GT$5is_fp17h5bd9c74c7cba32b1E
_ZN5rustc2ty3sty48_$LT$impl$u20$rustc..ty..TyS$LT$$u27$tcx$GT$$GT$6fn_sig17h72c3a69a57c6856eE
_ZN5rustc2ty3sty48_$LT$impl$u20$rustc..ty..TyS$LT$$u27$tcx$GT$$GT$6is_nil17hd82a0e30e68a30feE
_ZN5rustc2ty3sty48_$LT$impl$u20$rustc..ty..TyS$LT$$u27$tcx$GT$$GT$7is_bool17h6660866aa442372eE
_ZN5rustc2ty3sty48_$LT$impl$u20$rustc..ty..TyS$LT$$u27$tcx$GT$$GT$8boxed_ty17h8b3a397fa0fc21fcE
_ZN5rustc2ty3sty48_$LT$impl$u20$rustc..ty..TyS$LT$$u27$tcx$GT$$GT$8is_never17h039731aa87c660c3E
_ZN5rustc2ty3sty48_$LT$impl$u20$rustc..ty..TyS$LT$$u27$tcx$GT$$GT$9is_signed17hbdd5835a91a135a1E
_ZN5rustc2ty3sty48_$LT$impl$u20$rustc..ty..TyS$LT$$u27$tcx$GT$$GT$9simd_size17h7efcb28ace377236E
_ZN5rustc2ty3sty48_$LT$impl$u20$rustc..ty..TyS$LT$$u27$tcx$GT$$GT$9simd_type17h1b287926b23f9cfbE
_ZN5rustc2ty3sty5FnSig6inputs17he3b0d658c2140c0aE
_ZN5rustc2ty3sty5FnSig6output17hc60887b49151715bE
_ZN5rustc2ty4cast6CastTy7from_ty17h2420547f69ae6db7E
_ZN5rustc2ty4maps90_$LT$impl$u20$rustc..ty..context..TyCtxt$LT$$u27$a$C$$u20$$u27$tcx$C$$u20$$u27$lcx$GT$$GT$10const_eval17h6db644748b8139b0E
_ZN5rustc2ty4maps90_$LT$impl$u20$rustc..ty..context..TyCtxt$LT$$u27$a$C$$u20$$u27$tcx$C$$u20$$u27$lcx$GT$$GT$10crate_hash17hfa1d71c31fa9e3bbE
_ZN5rustc2ty4maps90_$LT$impl$u20$rustc..ty..context..TyCtxt$LT$$u27$a$C$$u20$$u27$tcx$C$$u20$$u27$lcx$GT$$GT$10crate_name17h308035b272137de4E
_ZN5rustc2ty4maps90_$LT$impl$u20$rustc..ty..context..TyCtxt$LT$$u27$a$C$$u20$$u27$tcx$C$$u20$$u27$lcx$GT$$GT$11generics_of17hf5f21818eb565112E
_ZN5rustc2ty4maps90_$LT$impl$u20$rustc..ty..context..TyCtxt$LT$$u27$a$C$$u20$$u27$tcx$C$$u20$$u27$lcx$GT$$GT$11symbol_name17h4a0260d0bb0e85c5E
_ZN5rustc2ty4maps90_$LT$impl$u20$rustc..ty..context..TyCtxt$LT$$u27$a$C$$u20$$u27$tcx$C$$u20$$u27$lcx$GT$$GT$12codegen_unit17he34986fb951ef25bE
_ZN5rustc2ty4maps90_$LT$impl$u20$rustc..ty..context..TyCtxt$LT$$u27$a$C$$u20$$u27$tcx$C$$u20$$u27$lcx$GT$$GT$14is_no_builtins17h3fc111957d3ce242E
_ZN5rustc2ty4maps90_$LT$impl$u20$rustc..ty..context..TyCtxt$LT$$u27$a$C$$u20$$u27$tcx$C$$u20$$u27$lcx$GT$$GT$14needs_drop_raw17h2849e0d6668d23d1E
_ZN5rustc2ty4maps90_$LT$impl$u20$rustc..ty..context..TyCtxt$LT$$u27$a$C$$u20$$u27$tcx$C$$u20$$u27$lcx$GT$$GT$14vtable_methods17hf15f257f6db632f6E
_ZN5rustc2ty4maps90_$LT$impl$u20$rustc..ty..context..TyCtxt$LT$$u27$a$C$$u20$$u27$tcx$C$$u20$$u27$lcx$GT$$GT$15associated_item17h714aeabd0df2751aE
_ZN5rustc2ty4maps90_$LT$impl$u20$rustc..ty..context..TyCtxt$LT$$u27$a$C$$u20$$u27$tcx$C$$u20$$u27$lcx$GT$$GT$15is_foreign_item17hc2691afe2114fb42E
_ZN5rustc2ty4maps90_$LT$impl$u20$rustc..ty..context..TyCtxt$LT$$u27$a$C$$u20$$u27$tcx$C$$u20$$u27$lcx$GT$$GT$16exported_symbols17hee6ffbffb4c1ece1E
_ZN5rustc2ty4maps90_$LT$impl$u20$rustc..ty..context..TyCtxt$LT$$u27$a$C$$u20$$u27$tcx$C$$u20$$u27$lcx$GT$$GT$16is_panic_runtime17hd10f5990b0bb7717E
_ZN5rustc2ty4maps90_$LT$impl$u20$rustc..ty..context..TyCtxt$LT$$u27$a$C$$u20$$u27$tcx$C$$u20$$u27$lcx$GT$$GT$16native_libraries17hc0d2cf42621eb7e5E
_ZN5rustc2ty4maps90_$LT$impl$u20$rustc..ty..context..TyCtxt$LT$$u27$a$C$$u20$$u27$tcx$C$$u20$$u27$lcx$GT$$GT$16output_filenames17h6416e2a59dae4eebE
_ZN5rustc2ty4maps90_$LT$impl$u20$rustc..ty..context..TyCtxt$LT$$u27$a$C$$u20$$u27$tcx$C$$u20$$u27$lcx$GT$$GT$17used_crate_source17h04676ad7de3d8cc8E
_ZN5rustc2ty4maps90_$LT$impl$u20$rustc..ty..context..TyCtxt$LT$$u27$a$C$$u20$$u27$tcx$C$$u20$$u27$lcx$GT$$GT$18is_exported_symbol17h05635ddb294dd40cE
_ZN5rustc2ty4maps90_$LT$impl$u20$rustc..ty..context..TyCtxt$LT$$u27$a$C$$u20$$u27$tcx$C$$u20$$u27$lcx$GT$$GT$19crate_disambiguator17hc2e6071d25fa8631E
_ZN5rustc2ty4maps90_$LT$impl$u20$rustc..ty..context..TyCtxt$LT$$u27$a$C$$u20$$u27$tcx$C$$u20$$u27$lcx$GT$$GT$19derive_registrar_fn17h5a26ec0fb080b40aE
_ZN5rustc2ty4maps90_$LT$impl$u20$rustc..ty..context..TyCtxt$LT$$u27$a$C$$u20$$u27$tcx$C$$u20$$u27$lcx$GT$$GT$19exported_symbol_ids17h0dc80b3deaeafd8bE
_ZN5rustc2ty4maps90_$LT$impl$u20$rustc..ty..context..TyCtxt$LT$$u27$a$C$$u20$$u27$tcx$C$$u20$$u27$lcx$GT$$GT$19is_profiler_runtime17hdcbdaa2b6a71730dE
_ZN5rustc2ty4maps90_$LT$impl$u20$rustc..ty..context..TyCtxt$LT$$u27$a$C$$u20$$u27$tcx$C$$u20$$u27$lcx$GT$$GT$19plugin_registrar_fn17h7d7333ba5861b322E
_ZN5rustc2ty4maps90_$LT$impl$u20$rustc..ty..context..TyCtxt$LT$$u27$a$C$$u20$$u27$tcx$C$$u20$$u27$lcx$GT$$GT$19symbol_export_level17h870316d8f7e16d11E
_ZN5rustc2ty4maps90_$LT$impl$u20$rustc..ty..context..TyCtxt$LT$$u27$a$C$$u20$$u27$tcx$C$$u20$$u27$lcx$GT$$GT$20compile_codegen_unit17h894d35af0038d3f0E
_ZN5rustc2ty4maps90_$LT$impl$u20$rustc..ty..context..TyCtxt$LT$$u27$a$C$$u20$$u27$tcx$C$$u20$$u27$lcx$GT$$GT$20is_compiler_builtins17h5249dc146b4e1202E
_ZN5rustc2ty4maps90_$LT$impl$u20$rustc..ty..context..TyCtxt$LT$$u27$a$C$$u20$$u27$tcx$C$$u20$$u27$lcx$GT$$GT$20is_sanitizer_runtime17h08e4e9f99e06d94aE
_ZN5rustc2ty4maps90_$LT$impl$u20$rustc..ty..context..TyCtxt$LT$$u27$a$C$$u20$$u27$tcx$C$$u20$$u27$lcx$GT$$GT$22is_translated_function17h63e6ccd678c9f9f9E
_ZN5rustc2ty4maps90_$LT$impl$u20$rustc..ty..context..TyCtxt$LT$$u27$a$C$$u20$$u27$tcx$C$$u20$$u27$lcx$GT$$GT$23associated_item_def_ids17he755abf092a10375E
_ZN5rustc2ty4maps90_$LT$impl$u20$rustc..ty..context..TyCtxt$LT$$u27$a$C$$u20$$u27$tcx$C$$u20$$u27$lcx$GT$$GT$23target_features_enabled17h9aea395dcd71bb3cE
_ZN5rustc2ty4maps90_$LT$impl$u20$rustc..ty..context..TyCtxt$LT$$u27$a$C$$u20$$u27$tcx$C$$u20$$u27$lcx$GT$$GT$25contains_extern_indicator17hfa2d89f41a48ad60E
_ZN5rustc2ty4maps90_$LT$impl$u20$rustc..ty..context..TyCtxt$LT$$u27$a$C$$u20$$u27$tcx$C$$u20$$u27$lcx$GT$$GT$25is_dllimport_foreign_item17he53bdebeed67f0f9E
_ZN5rustc2ty4maps90_$LT$impl$u20$rustc..ty..context..TyCtxt$LT$$u27$a$C$$u20$$u27$tcx$C$$u20$$u27$lcx$GT$$GT$25target_features_whitelist17h57a93d5c5eb07117E
_ZN5rustc2ty4maps90_$LT$impl$u20$rustc..ty..context..TyCtxt$LT$$u27$a$C$$u20$$u27$tcx$C$$u20$$u27$lcx$GT$$GT$39collect_and_partition_translation_items17hae368cc61e7a25c9E
_ZN5rustc2ty4maps90_$LT$impl$u20$rustc..ty..context..TyCtxt$LT$$u27$a$C$$u20$$u27$tcx$C$$u20$$u27$lcx$GT$$GT$6fn_sig17h42f53e58d4c05ce2E
_ZN5rustc2ty4maps90_$LT$impl$u20$rustc..ty..context..TyCtxt$LT$$u27$a$C$$u20$$u27$tcx$C$$u20$$u27$lcx$GT$$GT$7adt_def17hb09331d69d7c3677E
_ZN5rustc2ty4maps90_$LT$impl$u20$rustc..ty..context..TyCtxt$LT$$u27$a$C$$u20$$u27$tcx$C$$u20$$u27$lcx$GT$$GT$7type_of17h79a2d916a0dd04aaE
_ZN5rustc2ty4maps90_$LT$impl$u20$rustc..ty..context..TyCtxt$LT$$u27$a$C$$u20$$u27$tcx$C$$u20$$u27$lcx$GT$$GT$8def_span17ha385fa62aca6ad9bE
_ZN5rustc2ty4maps90_$LT$impl$u20$rustc..ty..context..TyCtxt$LT$$u27$a$C$$u20$$u27$tcx$C$$u20$$u27$lcx$GT$$GT$9link_args17h665932f1d2c869ffE
_ZN5rustc2ty4util48_$LT$impl$u20$rustc..ty..TyS$LT$$u27$tcx$GT$$GT$8is_sized17h2ae7b6c1baed36c7E
_ZN5rustc2ty4util48_$LT$impl$u20$rustc..ty..TyS$LT$$u27$tcx$GT$$GT$9is_freeze17h615aadc89a312ad4E
_ZN5rustc2ty4util53_$LT$impl$u20$rustc..ty..ParamEnv$LT$$u27$tcx$GT$$GT$5empty17hbfd56779932f4976E
_ZN5rustc2ty4util90_$LT$impl$u20$rustc..ty..context..TyCtxt$LT$$u27$a$C$$u20$$u27$gcx$C$$u20$$u27$tcx$GT$$GT$11struct_tail17hea38e161308f5c53E
_ZN5rustc2ty4util90_$LT$impl$u20$rustc..ty..context..TyCtxt$LT$$u27$a$C$$u20$$u27$gcx$C$$u20$$u27$tcx$GT$$GT$14closure_env_ty17h380bf114e18a7756E
_ZN5rustc2ty4util90_$LT$impl$u20$rustc..ty..context..TyCtxt$LT$$u27$a$C$$u20$$u27$gcx$C$$u20$$u27$tcx$GT$$GT$19closure_base_def_id17h7f676f1e43f675d7E
_ZN5rustc2ty4util90_$LT$impl$u20$rustc..ty..context..TyCtxt$LT$$u27$a$C$$u20$$u27$gcx$C$$u20$$u27$tcx$GT$$GT$21struct_lockstep_tails17haeae5a509f44f297E
_ZN5rustc2ty4util90_$LT$impl$u20$rustc..ty..context..TyCtxt$LT$$u27$a$C$$u20$$u27$tcx$C$$u20$$u27$tcx$GT$$GT$12type_id_hash17hbfb4bde0d2df1c22E
_ZN5rustc2ty5subst80_$LT$impl$u20$rustc..ty..Slice$LT$rustc..ty..subst..Kind$LT$$u27$tcx$GT$$GT$$GT$11truncate_to17hb5d0e6575a4353d8E
_ZN5rustc2ty5subst80_$LT$impl$u20$rustc..ty..Slice$LT$rustc..ty..subst..Kind$LT$$u27$tcx$GT$$GT$$GT$17identity_for_item17h1cc5efdaa623fc77E
_ZN5rustc2ty5subst99_$LT$impl$u20$rustc..ty..sty..Binder$LT$rustc..ty..sty..ExistentialTraitRef$LT$$u27$tcx$GT$$GT$$GT$12with_self_ty17h6a3f863a3020e176E
_ZN5rustc2ty6AdtDef16non_enum_variant17hb3d4f7659e2305bdE
_ZN5rustc2ty6AdtDef24discriminant_for_variant17h9a1fad23d9ab3d1aE
_ZN5rustc2ty6layout13LayoutDetails11uninhabited17h2bdba816b86f9609E
_ZN5rustc2ty6layout14FieldPlacement12memory_index17h5ee80451a4d43725E
_ZN5rustc2ty6layout14FieldPlacement5count17h6da811ed3f3903b9E
_ZN5rustc2ty6layout14FieldPlacement6offset17h62f7697b66c29a10E
_ZN5rustc2ty6layout16TargetDataLayout12vector_align17h37c2d5107308fab3E
_ZN5rustc2ty6layout16TargetDataLayout14obj_size_bound17h2864264828ee7a6dE
_ZN5rustc2ty6layout4Size10from_bytes17hac93c94540201a77E
_ZN5rustc2ty6layout4Size14is_abi_aligned17h822d4cd077b44619E
_ZN5rustc2ty6layout4Size4bits17hb40aae0dbd33ec8aE
_ZN5rustc2ty6layout4Size5bytes17h0540efa61be9f8afE
_ZN5rustc2ty6layout4Size9abi_align17hf211db65da4ad20bE
_ZN5rustc2ty6layout4Size9from_bits17h6b44c94457b7f0f4E
_ZN5rustc2ty6layout5Align3abi17hc9159d65e8f1923aE
_ZN5rustc2ty6layout5Align3max17ha16246e7322ffd8cE
_ZN5rustc2ty6layout5Align3min17h8fef96adb7fa05a4E
_ZN5rustc2ty6layout5Align4pref17h7b4bb6ef39ce5787E
_ZN5rustc2ty6layout5Align8abi_bits17h7fa29c104909599eE
_ZN5rustc2ty6layout5Align9from_bits17hd0e87b92dc0237d9E
_ZN5rustc2ty6layout6Scalar7is_bool17h8d8d03acbd5c4460E
_ZN5rustc2ty6layout7Integer4size17h00d702debc33f7e1E
_ZN5rustc2ty6layout8TyLayout10is_unsized17hd7dc994187a9964cE
_ZN5rustc2ty6layout8TyLayout14size_and_align17hddb4a81225988887E
_ZN5rustc2ty6layout8TyLayout6is_zst17h05bc6ad85f39a992E
_ZN5rustc2ty6layout9Primitive5to_ty17h47f300919f5f30c6E
_ZN5rustc2ty7context10GlobalCtxt10global_tcx17h3dbd4edccbc993beE
_ZN5rustc2ty7context13CtxtInterners3new17h98f2c5ceca2d42e8E
_ZN5rustc2ty7context3tls7TLS_TCX7__getit17hbea95051fb32c413E
_ZN5rustc2ty7context6TyCtxt10intern_tup17h2487bff48e996052E
_ZN5rustc2ty7context6TyCtxt10lang_items17hf04ffdbbe03bb6cbE
_ZN5rustc2ty7context6TyCtxt10mk_imm_ptr17h412ce19e1873e871E
_ZN5rustc2ty7context6TyCtxt10mk_imm_ref17hc627f33864e12ea9E
_ZN5rustc2ty7context6TyCtxt10mk_mut_ptr17h28e398972a70f626E
_ZN5rustc2ty7context6TyCtxt10mk_mut_ref17h2d8c9f97c730c189E
_ZN5rustc2ty7context6TyCtxt12mk_generator17h5aaaed5a85a7d79cE
_ZN5rustc2ty7context6TyCtxt13intern_layout17h26315525af07bbabE
_ZN5rustc2ty7context6TyCtxt13intern_substs17h4374da2d826b1ab6E
_ZN5rustc2ty7context6TyCtxt15encode_metadata17h92c976e36d65e601E
_ZN5rustc2ty7context6TyCtxt16intern_type_list17ha1cc372160d15f3bE
_ZN5rustc2ty7context6TyCtxt20mk_array_const_usize17h6bb5148d00bba512E
_ZN5rustc2ty7context6TyCtxt25metadata_encoding_version17h7f82bcfa1b5ab6dcE
_ZN5rustc2ty7context6TyCtxt29intern_existential_predicates17h5e020f4ad44f79bbE
_ZN5rustc2ty7context6TyCtxt30mk_closure_from_closure_substs17hef61f73baa8b4194E
_ZN5rustc2ty7context6TyCtxt5mk_ty17h421146c9d46136e8E
_ZN5rustc2ty7context6TyCtxt6crates17ha92c286fa1724d1eE
_ZN5rustc2ty7context6TyCtxt6mk_adt17hb67cf7055fcdb966E
_ZN5rustc2ty7context6TyCtxt6mk_box17h7c29d7f3bf8e8bb0E
_ZN5rustc2ty7context6TyCtxt6mk_nil17h7b2a39a06d90ddbaE
_ZN5rustc2ty7context6TyCtxt6mk_ref17hb135ab0e0f87f1a1E
_ZN5rustc2ty7context6TyCtxt6mk_str17h8e1de044bc0d4cdeE
_ZN5rustc2ty7context6TyCtxt7def_key17h2f7a7b66d3f7f40eE
_ZN5rustc2ty7context6TyCtxt8def_path17hd5fdfc3ee1175bafE
_ZN5rustc2ty7context6TyCtxt8mk_array17h139b2b9f11a7a0d0E
_ZN5rustc2ty7context6TyCtxt9mk_fn_ptr17h1a6ecac04e62f1ebE
_ZN5rustc2ty7context6TyCtxt9mk_region17h5302847918c68952E
_ZN5rustc2ty8FieldDef2ty17h41e9d2df2d68884aE
_ZN5rustc2ty8instance11InstanceDef14requires_local17hd10526910a338191E
_ZN5rustc2ty8instance11InstanceDef9is_inline17h9954eb9bb773393dE
_ZN5rustc2ty8instance8Instance2ty17hb4ddaea0dad45af2E
_ZN5rustc2ty8instance8Instance3new17hbbb0a75da1fe6996E
_ZN5rustc2ty8instance8Instance4mono17h993926c64c17ad87E
_ZN5rustc2ty8instance8Instance7resolve17ha42f1f8f3b6d029eE
_ZN5rustc2ty90_$LT$impl$u20$rustc..ty..context..TyCtxt$LT$$u27$a$C$$u20$$u27$gcx$C$$u20$$u27$tcx$GT$$GT$12instance_mir17h8f3a6d7a53216db8E
_ZN5rustc2ty90_$LT$impl$u20$rustc..ty..context..TyCtxt$LT$$u27$a$C$$u20$$u27$gcx$C$$u20$$u27$tcx$GT$$GT$14impl_of_method17h36697fc78d93c2b1E
_ZN5rustc2ty90_$LT$impl$u20$rustc..ty..context..TyCtxt$LT$$u27$a$C$$u20$$u27$gcx$C$$u20$$u27$tcx$GT$$GT$16trait_id_of_impl17hfceef74f670d188aE
_ZN5rustc2ty90_$LT$impl$u20$rustc..ty..context..TyCtxt$LT$$u27$a$C$$u20$$u27$gcx$C$$u20$$u27$tcx$GT$$GT$8has_attr17h3eb94a582f8e3a45E
_ZN5rustc2ty90_$LT$impl$u20$rustc..ty..context..TyCtxt$LT$$u27$a$C$$u20$$u27$gcx$C$$u20$$u27$tcx$GT$$GT$9get_attrs17h113cf769c1871670E
_ZN5rustc2ty90_$LT$impl$u20$rustc..ty..context..TyCtxt$LT$$u27$a$C$$u20$$u27$gcx$C$$u20$$u27$tcx$GT$$GT$9item_name17he73cc027b7150a26E
_ZN5rustc3hir3map11definitions11DefPathData15as_interned_str17hbdf4228ace28c11bE
_ZN5rustc3hir3map11definitions11DefPathData9to_string17h332fc9ddd25879d7E
_ZN5rustc3hir3map3Map10find_entry17h989f50b25e398216E
_ZN5rustc3hir3map3Map11expect_item17h3fb48b05c38eab00E
_ZN5rustc3hir3map3Map11krate_attrs17hf77987484c0f833fE
_ZN5rustc3hir3map3Map13span_if_local17h59915153c97ecac8E
_ZN5rustc3hir3map3Map3get17he3d108361c210c3eE
_ZN5rustc3hir3map3Map4span17h4b326486deeacab6E
_ZN5rustc3hir3map3Map5krate17ha577b48da71a359cE
_ZN5rustc3hir6BinOp_8is_shift17h30ab44f4ac734f5dE
_ZN5rustc3hir6def_id8CrateNum3new17h02c43769551d603bE
_ZN5rustc3hir6def_id8CrateNum8as_usize17hbbb5ad3b886861aaE
_ZN5rustc3ich11fingerprint11Fingerprint6to_hex17h16ef5a323c34092aE
_ZN5rustc3mir10Terminator10successors17hbfcb8a341c732e9cE
_ZN5rustc3mir14BasicBlockData10terminator17h567fcbb3f2f5a308E
_ZN5rustc3mir3Mir9return_ty17h962a176ae1269bddE
_ZN5rustc3mir3tcx35_$LT$impl$u20$rustc..mir..BinOp$GT$12to_hir_binop17hf25ffbb2db402efdE
_ZN5rustc3mir3tcx35_$LT$impl$u20$rustc..mir..BinOp$GT$2ty17hf499bfe31666ee82E
_ZN5rustc3mir3tcx40_$LT$impl$u20$rustc..mir..BorrowKind$GT$14to_mutbl_lossy17h4b22618d318bb6b8E
_ZN5rustc3mir3tcx7PlaceTy13projection_ty17h0d0b1baf5034fb09E
_ZN5rustc3mir3tcx7PlaceTy5to_ty17h03e4752e8421f767E
_ZN5rustc3mir4mono11CodegenUnit13estimate_size17h46b18430f78a68f3E
_ZN5rustc3mir4mono11CodegenUnit13size_estimate17h55fa2f940ae2ab95E
_ZN5rustc3mir4mono11CodegenUnit3new17ha73bfbcdf1932d18E
_ZN5rustc3mir4mono11CodegenUnit4name17hdad75435a7029f51E
_ZN5rustc3mir4mono11CodegenUnit5items17hed43a6ac8a6c86b9E
_ZN5rustc3mir4mono11CodegenUnit9items_mut17h8d95b5aba0ade7f4E
_ZN5rustc3mir4mono5Stats6extend17h4304b2a80203b4aeE
_ZN5rustc3mir5cache5Cache12predecessors17hf63f2d871e76c08bE
_ZN5rustc3mir5visit12PlaceContext15is_mutating_use17h5cd2a8e33f41cce3E
_ZN5rustc3mir9traversal17reverse_postorder17h62ddb35200d48b71E
_ZN5rustc4util2fs28fix_windows_verbatim_for_gcc17hb6b7e73391852576E
_ZN5rustc4util5ppaux64_$LT$impl$u20$core..fmt..Debug$u20$for$u20$rustc..ty..AdtDef$GT$3fmt17h0ef2b6973dff56e4E
_ZN5rustc4util5ppaux73_$LT$impl$u20$core..fmt..Debug$u20$for$u20$rustc..ty..sty..RegionKind$GT$3fmt17h2568828610b05e18E
_ZN5rustc4util5ppaux77_$LT$impl$u20$core..fmt..Debug$u20$for$u20$rustc..ty..TyS$LT$$u27$tcx$GT$$GT$3fmt17h06cdca7079866fb5E
_ZN5rustc4util5ppaux79_$LT$impl$u20$core..fmt..Display$u20$for$u20$rustc..ty..TyS$LT$$u27$tcx$GT$$GT$3fmt17h1425d3b9c4f2faa2E
_ZN5rustc4util5ppaux93_$LT$impl$u20$core..fmt..Display$u20$for$u20$rustc..ty..sty..TypeVariants$LT$$u27$tcx$GT$$GT$3fmt17he7db2e5162d82ca4E
_ZN5rustc4util6common10TIME_DEPTH7__getit17hc91b836a68900dc7E
_ZN5rustc4util6common10time_depth17h1408f4b9f02da306E
_ZN5rustc4util6common14set_time_depth17he2aa2e271bb3f44fE
_ZN5rustc4util6common23print_time_passes_entry17h03bb169cfc76b45dE
_ZN5rustc4util6common32print_time_passes_entry_internal17h42c3308a4b2c4b8eE
_ZN5rustc4util6common9path2cstr17h6f5eb08e41cace01E
_ZN5rustc5infer13type_variable17TypeVariableTable3new17hec554752740cc078E
_ZN5rustc5infer18region_constraints25RegionConstraintCollector3new17h4a09800527220751E
_ZN5rustc5infer90_$LT$impl$u20$rustc..ty..context..TyCtxt$LT$$u27$a$C$$u20$$u27$gcx$C$$u20$$u27$gcx$GT$$GT$10infer_ctxt17hb09b15b0ba231e99E
_ZN5rustc6middle10lang_items13LanguageItems11box_free_fn17h932b9a38dd3d4646E
_ZN5rustc6middle10lang_items13LanguageItems11i128_add_fn17h0c81bca6d474d8fdE
_ZN5rustc6middle10lang_items13LanguageItems11i128_div_fn17h72ea490e9948692aE
_ZN5rustc6middle10lang_items13LanguageItems11i128_mul_fn17h79919496c21d40a1E
_ZN5rustc6middle10lang_items13LanguageItems11i128_rem_fn17h4779a2d0196d3176E
_ZN5rustc6middle10lang_items13LanguageItems11i128_shl_fn17he15b1b428c30294dE
_ZN5rustc6middle10lang_items13LanguageItems11i128_shr_fn17h1a3dc0fd090d11b0E
_ZN5rustc6middle10lang_items13LanguageItems11i128_sub_fn17hb71ce8355e7792c1E
_ZN5rustc6middle10lang_items13LanguageItems11u128_add_fn17h60012bbc262f2dfdE
_ZN5rustc6middle10lang_items13LanguageItems11u128_div_fn17h0fa8965f9e4803f4E
_ZN5rustc6middle10lang_items13LanguageItems11u128_mul_fn17hb9af8c13af14677aE
_ZN5rustc6middle10lang_items13LanguageItems11u128_rem_fn17he5a60b6a9f818f93E
_ZN5rustc6middle10lang_items13LanguageItems11u128_shl_fn17h99c42397855ca801E
_ZN5rustc6middle10lang_items13LanguageItems11u128_shr_fn17he68a9ba1a80085a7E
_ZN5rustc6middle10lang_items13LanguageItems11u128_sub_fn17h2b556174f23a1610E
_ZN5rustc6middle10lang_items13LanguageItems12i128_addo_fn17h9b10fad6896700dbE
_ZN5rustc6middle10lang_items13LanguageItems12i128_mulo_fn17hedabab40729d7615E
_ZN5rustc6middle10lang_items13LanguageItems12i128_shlo_fn17h93bed74af22ddf02E
_ZN5rustc6middle10lang_items13LanguageItems12i128_shro_fn17h27bf97be269b631fE
_ZN5rustc6middle10lang_items13LanguageItems12i128_subo_fn17h636efb117af43a2fE
_ZN5rustc6middle10lang_items13LanguageItems12u128_addo_fn17ha3f6a5ed7873059eE
_ZN5rustc6middle10lang_items13LanguageItems12u128_mulo_fn17hf5d0b606bf5c7e85E
_ZN5rustc6middle10lang_items13LanguageItems12u128_shlo_fn17h89f545cc9f265769E
_ZN5rustc6middle10lang_items13LanguageItems12u128_shro_fn17hd50521fbf4aea5d6E
_ZN5rustc6middle10lang_items13LanguageItems12u128_subo_fn17h15a0e5108e8f3751E
_ZN5rustc6middle10lang_items13LanguageItems13fn_once_trait17he4eef977ef4edf0eE
_ZN5rustc6middle10lang_items13LanguageItems14eh_personality17h923d695eb8b195a4E
_ZN5rustc6middle10lang_items13LanguageItems15msvc_try_filter17h8c0b3faafab9e08bE
_ZN5rustc6middle10lang_items13LanguageItems16eh_unwind_resume17h393d7f42a4a206adE
_ZN5rustc6middle10lang_items13LanguageItems7require17h146b333fd4efd247E
_ZN5rustc6middle10lang_items13LanguageItems8start_fn17h7e6ee2fa6ae01502E
_ZN5rustc6middle10lang_items13LanguageItems9gen_state17hc9dcfcd9fd16b510E
_ZN5rustc6middle10lang_items90_$LT$impl$u20$rustc..ty..context..TyCtxt$LT$$u27$a$C$$u20$$u27$tcx$C$$u20$$u27$gcx$GT$$GT$17require_lang_item17hc6a8f786f382b0a5E
_ZN5rustc6middle16exported_symbols17SymbolExportLevel18is_below_threshold17h49ed9ea14d652451E
_ZN5rustc6middle6cstore11used_crates17he459d5dec90a2c73E
_ZN5rustc6middle6cstore15EncodedMetadata3new17he1d510eff9019740E
_ZN5rustc6middle6cstore9LibSource6option17he7f6c64aadb48f59E
_ZN5rustc6middle9allocator13AllocatorKind7fn_name17h0b0f4a21ae3c7433E
_ZN5rustc6middle9const_val12ConstEvalErr4note17h74679c473973cd04E
_ZN5rustc6middle9const_val12ConstEvalErr6report17hdb6817509da9f32dE
_ZN5rustc6middle9const_val8ConstVal12to_const_int17h7f67f87d61142e5cE
_ZN5rustc6traits5trans24AssociatedTypeNormalizer3new17haeb0eac5d9257162E
_ZN5rustc6traits5trans90_$LT$impl$u20$rustc..ty..context..TyCtxt$LT$$u27$a$C$$u20$$u27$tcx$C$$u20$$u27$tcx$GT$$GT$18trans_impl_self_ty17hdfe51d139b86cb88E
_ZN5rustc6traits6select14SelectionCache3new17h1503f3f8e623eae9E
_ZN5rustc6traits6select15EvaluationCache3new17hd16cbd1de790fbd7E
_ZN5rustc6traits7project15ProjectionCache3new17h3962932723664050E
_ZN5rustc7session10filesearch10FileSearch12get_lib_path17h779546671ef1dc60E
_ZN5rustc7session10filesearch10FileSearch22get_tools_search_paths17hcb86992612c1ac07E
_ZN5rustc7session10filesearch20make_target_lib_path17h6a20db839b8caee1E
_ZN5rustc7session10filesearch24relative_target_lib_path17h2806bdf3c560ce25E
_ZN5rustc7session12search_paths11SearchPaths4iter17h54e28cd1da91b2cbE
_ZN5rustc7session18CrateDisambiguator14to_fingerprint17hb767140475d7bb99E
_ZN5rustc7session6config10OutputType9extension17hf3341d6cce3590f9E
_ZN5rustc7session6config11OutputTypes12contains_key17hb97281da0ea9567aE
_ZN5rustc7session6config11OutputTypes12should_trans17hbc3b08fa129248a4E
_ZN5rustc7session6config11OutputTypes4keys17hda41858443a3119aE
_ZN5rustc7session6config15OutputFilenames13temp_path_ext17hd86a86d0d7bae1c3E
_ZN5rustc7session6config15OutputFilenames14with_extension17h7fe78840f4d187b1E
_ZN5rustc7session6config15OutputFilenames4path17h0aba45e06b0d268eE
_ZN5rustc7session6config15OutputFilenames9temp_path17h6211bd25f4116329E
_ZN5rustc7session7Session10crt_static17h931da4104687a5b3E
_ZN5rustc7session7Session10diagnostic17h9d9841075db62d7dE
_ZN5rustc7session7Session10struct_err17h00693698db366fffE
_ZN5rustc7session7Session11fewer_names17h36c96a7e2786481eE
_ZN5rustc7session7Session11time_passes17ha0177728b33f2266E
_ZN5rustc7session7Session11trans_stats17h6bf87ac37a231e31E
_ZN5rustc7session7Session13codegen_units17h56f1d3ef29bff296E
_ZN5rustc7session7Session13linker_flavor17hed9cb8deb1251173E
_ZN5rustc7session7Session14compile_status17hd73f04f0e7cc6a24E
_ZN5rustc7session7Session14panic_strategy17h2352ac402e60f5f0E
_ZN5rustc7session7Session15abort_if_errors17hf040f7791be2e829E
_ZN5rustc7session7Session15host_filesearch17hd70fab42c98ce7f1E
_ZN5rustc7session7Session15no_landing_pads17h820d7b1fe1565442E
_ZN5rustc7session7Session15overflow_checks17h66a5dfbcd48eceaaE
_ZN5rustc7session7Session16count_llvm_insns17h85750804a642bb0dE
_ZN5rustc7session7Session16time_llvm_passes17ha592ecdcea13c7cfE
_ZN5rustc7session7Session17print_llvm_passes17hd75279385a3237ddE
_ZN5rustc7session7Session17target_filesearch17hfc48f631ded070c3E
_ZN5rustc7session7Session18note_without_error17h2569a34b980a5a7cE
_ZN5rustc7session7Session25incr_comp_session_dir_opt17hc0cce250240874e0E
_ZN5rustc7session7Session25local_crate_disambiguator17h44aa3b3b2109b7d8E
_ZN5rustc7session7Session32generate_derive_registrar_symbol17h3669755ddb6e933eE
_ZN5rustc7session7Session33must_not_eliminate_frame_pointers17h4ce0dd7668487a7dE
_ZN5rustc7session7Session3err17h176f67ff348da05fE
_ZN5rustc7session7Session3lto17h2103484ee6b42568E
_ZN5rustc7session7Session4warn17ha92c1240f43451c3E
_ZN5rustc7session7Session5fatal17h6f0ec64703e7f236E
_ZN5rustc7session7Session7codemap17hd600382259026e41E
_ZN5rustc7session7Session7sysroot17hb9c2cbfd11969c20E
_ZN5rustc7session7Session9err_count17ha214af00a4b5d751E
_ZN5rustc7session7Session9no_verify17h40ce24ff64a58f3fE
_ZN5rustc7session7bug_fmt17h027ca62312e2553cE
_ZN5rustc9dep_graph5graph8DepGraph14try_mark_green17h9349330fb63f2edfE
_ZN5rustc9dep_graph5graph8DepGraph21previous_work_product17hdca95a680eccabc1E
_ZN5rustc9dep_graph5graph8DepGraph22mark_loaded_from_cache17h11aee37812e08e1fE
_ZN5rustc9dep_graph8dep_node13WorkProductId13from_cgu_name17h3cf84f260f099f01E
_ZN5rustc9dep_graph8dep_node7DepNode3new17hd551ab7e85069622E
_ZN60_$LT$alloc..string..String$u20$as$u20$core..clone..Clone$GT$5clone17h8a68633f6ef4e185E
_ZN60_$LT$core..cell..BorrowError$u20$as$u20$core..fmt..Debug$GT$3fmt17h1ad7b151861b23ffE
_ZN60_$LT$flate2..mem..Decompress$u20$as$u20$flate2..zio..Ops$GT$3run17h4af05d471b09f26bE
_ZN60_$LT$flate2..mem..Decompress$u20$as$u20$flate2..zio..Ops$GT$8total_in17h603a83f6d8967ff6E
_ZN60_$LT$flate2..mem..Decompress$u20$as$u20$flate2..zio..Ops$GT$9total_out17hd7e5fbaa0392a140E
_ZN60_$LT$rustc..ty..SymbolName$u20$as$u20$core..fmt..Display$GT$3fmt17h319dc06416b90c25E
_ZN60_$LT$rustc..ty..layout..Size$u20$as$u20$core..fmt..Debug$GT$3fmt17h6c17177d1b76ebf2E
_ZN60_$LT$rustc_trans..ModuleKind$u20$as$u20$core..fmt..Debug$GT$3fmt17h5119664ee33b0542E
_ZN60_$LT$rustc_trans..ModuleLlvm$u20$as$u20$core..fmt..Debug$GT$3fmt17h9c4f0a4c1968a488E
_ZN60_$LT$std..io..error..Error$u20$as$u20$core..fmt..Display$GT$3fmt17ha6e7c673cf29500dE
_ZN61_$LT$jobserver..Acquired$u20$as$u20$core..ops..drop..Drop$GT$4drop17h750d41dfca7edcd8E
_ZN61_$LT$rustc..ty..layout..Align$u20$as$u20$core..fmt..Debug$GT$3fmt17hbee37088947d4492E
_ZN61_$LT$rustc_trans..type_..Type$u20$as$u20$core..fmt..Debug$GT$3fmt17h40d7f7369a107563E
_ZN61_$LT$std..env..JoinPathsError$u20$as$u20$core..fmt..Debug$GT$3fmt17h80ed32b17f42e614E
_ZN61_$LT$std..ffi..c_str..CString$u20$as$u20$core..fmt..Debug$GT$3fmt17hc8bfd342cf094e48E
_ZN62_$LT$rustc..hir..def_id..DefId$u20$as$u20$core..fmt..Debug$GT$3fmt17h159d4eb18eb64d0cE
_ZN62_$LT$rustc_apfloat..Round$u20$as$u20$core..ops..arith..Neg$GT$3neg17h8583dc59899e4605E
_ZN62_$LT$rustc_apfloat..ieee..Loss$u20$as$u20$core..fmt..Debug$GT$3fmt17ha3dcc082443b0a6dE
_ZN62_$LT$rustc_llvm..ffi..CallConv$u20$as$u20$core..fmt..Debug$GT$3fmt17h626160ee0f3ae4d6E
_ZN62_$LT$rustc_llvm..ffi..TypeKind$u20$as$u20$core..fmt..Debug$GT$3fmt17h79545b1ff0301163E
_ZN62_$LT$rustc_trans..abi..RegKind$u20$as$u20$core..fmt..Debug$GT$3fmt17h839744d913a800caE
_ZN62_$LT$rustc_trans..abi..Uniform$u20$as$u20$core..fmt..Debug$GT$3fmt17h56940dd1452cc3d3E
_ZN62_$LT$rustc_trans..value..Value$u20$as$u20$core..fmt..Debug$GT$3fmt17h4d9db6943431a6e1E
_ZN62_$LT$std..ffi..c_str..NulError$u20$as$u20$core..fmt..Debug$GT$3fmt17h0348bc26c0dbd2dbE
_ZN62_$LT$std..path..PathBuf$u20$as$u20$core..ops..deref..Deref$GT$5deref17h851b77185fb98d28E
_ZN63_$LT$core..cell..BorrowMutError$u20$as$u20$core..fmt..Debug$GT$3fmt17h87bd7b9c8c81f90eE
_ZN63_$LT$rustc_trans..abi..PassMode$u20$as$u20$core..fmt..Debug$GT$3fmt17h1319391f896ef871E
_ZN63_$LT$std..process..ExitStatus$u20$as$u20$core..fmt..Display$GT$3fmt17he40c8026cd0a7d16E
_ZN63_$LT$std..sync..mpsc..RecvError$u20$as$u20$core..fmt..Debug$GT$3fmt17hb13d886805a54af2E
_ZN63_$LT$syntax_pos..symbol..Symbol$u20$as$u20$core..fmt..Debug$GT$3fmt17h03d5e8e4e56cedb6E
_ZN64_$LT$rustc..ty..layout..Variants$u20$as$u20$core..fmt..Debug$GT$3fmt17ha2816003e0fd1747E
_ZN64_$LT$rustc_binaryen..Module$u20$as$u20$core..ops..drop..Drop$GT$4drop17hfaba6798fb810c23E
_ZN64_$LT$rustc_llvm..ObjectFile$u20$as$u20$core..ops..drop..Drop$GT$4drop17h985f0164d8b3dcf4E
_ZN64_$LT$rustc_trans..CompiledModule$u20$as$u20$core..fmt..Debug$GT$3fmt17h714c68e972cec6e9E
_ZN64_$LT$std..ffi..os_str..OsStr$u20$as$u20$core..cmp..PartialEq$GT$2eq17h52ed0fe2c00fe092E
_ZN65_$LT$alloc..string..FromUtf8Error$u20$as$u20$core..fmt..Debug$GT$3fmt17hb003d59636e24630E
_ZN65_$LT$flate2..mem..FlushCompress$u20$as$u20$flate2..zio..Flush$GT$4none17hbfc74a573b9ab36eE
_ZN65_$LT$flate2..mem..FlushCompress$u20$as$u20$flate2..zio..Flush$GT$6finish17h0a5447f7ec5df44fE
_ZN65_$LT$jobserver..HelperThread$u20$as$u20$core..ops..drop..Drop$GT$4drop17ha7486a6276e62dfdE
_ZN65_$LT$rustc..hir..def_id..CrateNum$u20$as$u20$core..fmt..Debug$GT$3fmt17h1e0063b6e9a6f6c4E
_ZN65_$LT$rustc..ty..SymbolName$u20$as$u20$core..ops..deref..Deref$GT$5deref17hc4345009a526c07eE
_ZN65_$LT$rustc..ty..layout..Size$u20$as$u20$core..ops..arith..Add$GT$3add17h391fe2e5b42bb1d1E
_ZN65_$LT$rustc..ty..layout..Size$u20$as$u20$core..ops..arith..Sub$GT$3sub17hcc46995e9076d8faE
_ZN65_$LT$rustc_llvm..SectionIter$u20$as$u20$core..ops..drop..Drop$GT$4drop17h0733f2b8ce212bbaE
_ZN65_$LT$rustc_trans..ModuleLlvm$u20$as$u20$core..ops..drop..Drop$GT$4drop17h3ba849dc5444bb14E
_ZN65_$LT$rustc_trans..abi..CastTarget$u20$as$u20$core..fmt..Debug$GT$3fmt17h23109ec6e5c393b4E
_ZN65_$LT$std..sys..unix..fs..Dir$u20$as$u20$core..ops..drop..Drop$GT$4drop17h14b2a53f581a7ed9E
_ZN65_$LT$syntax_pos..symbol..Symbol$u20$as$u20$core..fmt..Display$GT$3fmt17h84356a4de8f18fbfE
_ZN66_$LT$std..ffi..os_str..OsStr$u20$as$u20$alloc..borrow..ToOwned$GT$8to_owned17hfed4263192e5285aE
_ZN67_$LT$flate2..mem..DirCompress$u20$as$u20$flate2..mem..Direction$GT$7destroy17h1d390b3cae33c8baE
_ZN67_$LT$flate2..mem..FlushDecompress$u20$as$u20$flate2..zio..Flush$GT$4none17h32a7e502305c06b6E
_ZN67_$LT$flate2..mem..FlushDecompress$u20$as$u20$flate2..zio..Flush$GT$6finish17h0a9451766a3adecbE
_ZN67_$LT$std..fs..ReadDir$u20$as$u20$core..iter..iterator..Iterator$GT$4next17h4366145ff2bd8212E
_ZN68_$LT$core..time..Duration$u20$as$u20$core..ops..arith..AddAssign$GT$10add_assign17ha71c622dc33cedb1E
_ZN68_$LT$rustc_const_math..int..ConstInt$u20$as$u20$core..fmt..Debug$GT$3fmt17h8d2d91dfa5960ef8E
_ZN68_$LT$rustc_trans..abi..ArgAttributes$u20$as$u20$core..fmt..Debug$GT$3fmt17h57b438d109049c54E
_ZN68_$LT$rustc_trans..cabi_x86_64..Class$u20$as$u20$core..fmt..Debug$GT$3fmt17h544e9e843e3612d7E
_ZN68_$LT$rustc_trans..meth..VirtualIndex$u20$as$u20$core..fmt..Debug$GT$3fmt17hc0a081ba7c617c51E
_ZN68_$LT$serialize..json..EncoderError$u20$as$u20$core..fmt..Display$GT$3fmt17h18455c0c81acf729E
_ZN68_$LT$std..thread..local..AccessError$u20$as$u20$core..fmt..Debug$GT$3fmt17h7bf43d3d03aaf783E
_ZN69_$LT$flate2..mem..DirDecompress$u20$as$u20$flate2..mem..Direction$GT$7destroy17h1f7b3c3e7a5a65d6E
_ZN69_$LT$rustc_trans..cabi_powerpc64..ABI$u20$as$u20$core..fmt..Debug$GT$3fmt17h47d467ce3efb9efdE
_ZN69_$LT$rustc_trans..cabi_x86_64..Memory$u20$as$u20$core..fmt..Debug$GT$3fmt17he22c88c00ec10ffbE
_ZN69_$LT$std..sync..condvar..Condvar$u20$as$u20$core..ops..drop..Drop$GT$4drop17h33dc1855cf1ebf4eE
_ZN69_$LT$syntax..attr..IntType$u20$as$u20$rustc..ty..util..IntTypeExt$GT$20initial_discriminant17h231ddf142e47333eE
_ZN69_$LT$syntax..attr..IntType$u20$as$u20$rustc..ty..util..IntTypeExt$GT$5to_ty17hab66ee50b3f54972E
_ZN6flate211Compression4fast17h83c41ab0f1d830efE
_ZN6flate23mem107_$LT$impl$u20$core..convert..From$LT$flate2..mem..DecompressError$GT$$u20$for$u20$std..io..error..Error$GT$4from17h7b473b05ad630d7eE
_ZN6flate23mem10Decompress3new17h440da7ad2a41567fE
_ZN6flate23mem8Compress3new17ha1d89bfcc2149f85E
_ZN6syntax3abi3Abi4name17h718540dc0e8b8512E
_ZN6syntax3ast5IntTy12ty_to_string17h64831a2e25b619e8E
_ZN6syntax3ast5IntTy9bit_width17hd69de7beb46416e7E
_ZN6syntax3ast6UintTy12ty_to_string17h21c5847dca5bc39aE
_ZN6syntax3ast6UintTy9bit_width17h394d8510279c2867E
_ZN6syntax3ast7FloatTy12ty_to_string17h305a3d0f0bb2dbc2E
_ZN6syntax3ast7FloatTy9bit_width17h0ca2fdc553b684a1E
_ZN6syntax4attr11cfg_matches17hd8518cad16108c70E
_ZN6syntax4attr13contains_name17hfb113f1e8ca2311aE
_ZN6syntax4attr16find_inline_attr17hd505ea805073cdefE
_ZN6syntax4attr28first_attr_value_str_by_name17h1fbe11dff2e4bc96E
_ZN6syntax4attr40_$LT$impl$u20$syntax..ast..Attribute$GT$10check_name17ha1117e703d336fc1E
_ZN6syntax4attr40_$LT$impl$u20$syntax..ast..Attribute$GT$14meta_item_list17h0ca0409d76c693c3E
_ZN6syntax4attr40_$LT$impl$u20$syntax..ast..Attribute$GT$9value_str17h2d1a99e5713d8c5bE
_ZN6syntax4attr81_$LT$impl$u20$syntax..codemap..Spanned$LT$syntax..ast..NestedMetaItemKind$GT$$GT$10check_name17hb5703fdaec740b3dE
_ZN6syntax4attr81_$LT$impl$u20$syntax..codemap..Spanned$LT$syntax..ast..NestedMetaItemKind$GT$$GT$9value_str17h14a4918605930fe2E
_ZN6syntax7codemap7CodeMap15lookup_char_pos17h77ed26eb872385daE
_ZN70_$LT$rustc..mir..Place$LT$$u27$tcx$GT$$u20$as$u20$core..fmt..Debug$GT$3fmt17h7210fe108d12d2c0E
_ZN70_$LT$rustc..session..config..CrateType$u20$as$u20$core..fmt..Debug$GT$3fmt17hdecca2bf423cd659E
_ZN70_$LT$rustc_llvm..OperandBundleDef$u20$as$u20$core..ops..drop..Drop$GT$4drop17h550858cfacf78134E
_ZN70_$LT$std..io..Guard$LT$$u27$a$GT$$u20$as$u20$core..ops..drop..Drop$GT$4drop17h9fb8630892ae69a1E
_ZN70_$LT$std..sys..unix..fd..FileDesc$u20$as$u20$core..ops..drop..Drop$GT$4drop17ha9f7f731cf74fd82E
_ZN71_$LT$rustc..mir..Rvalue$LT$$u27$tcx$GT$$u20$as$u20$core..fmt..Debug$GT$3fmt17hdc18c2cc0602c963E
_ZN71_$LT$rustc..ty..layout..Size$u20$as$u20$core..ops..arith..AddAssign$GT$10add_assign17hab1a7e3cc62b905eE
_ZN71_$LT$rustc_binaryen..ModuleOptions$u20$as$u20$core..ops..drop..Drop$GT$4drop17he6924a342e04e29bE
_ZN71_$LT$std..path..Display$LT$$u27$a$GT$$u20$as$u20$core..fmt..Display$GT$3fmt17hf94b0541dd2b14cbE
_ZN71_$LT$syntax_pos..symbol..InternedString$u20$as$u20$core..fmt..Debug$GT$3fmt17h97b6d03ab09d2411E
_ZN72_$LT$rustc..mir..Operand$LT$$u27$tcx$GT$$u20$as$u20$core..fmt..Debug$GT$3fmt17hd031388cc5f88ae2E
_ZN72_$LT$rustc_llvm..ffi..debuginfo..DIFlags$u20$as$u20$core..fmt..Debug$GT$3fmt17hc775ac6fbe9bb99fE
_ZN72_$LT$rustc_trans..back..command..Command$u20$as$u20$core..fmt..Debug$GT$3fmt17h2ceb580b8657c6f1E
_ZN72_$LT$rustc_trans..time_graph..TimelineId$u20$as$u20$core..fmt..Debug$GT$3fmt17h2f17d53252317621E
_ZN72_$LT$std..sys..unix..thread..Thread$u20$as$u20$core..ops..drop..Drop$GT$4drop17h8c698fe8ff3ec16aE
_ZN72_$LT$std..sys..unix..time..Timespec$u20$as$u20$core..cmp..PartialOrd$GT$11partial_cmp17h2974f9c271b0d065E
_ZN73_$LT$core..fmt..Arguments$LT$$u27$a$GT$$u20$as$u20$core..fmt..Display$GT$3fmt17hda40beb920511c23E
_ZN73_$LT$rustc..session..config..PrintRequest$u20$as$u20$core..fmt..Debug$GT$3fmt17hb356d30a6aa24531E
_ZN73_$LT$rustc_const_math..int..ConstInt$u20$as$u20$core..ops..arith..Add$GT$3add17h3ccf4596d12afb62E
_ZN73_$LT$rustc_const_math..int..ConstInt$u20$as$u20$core..ops..arith..Mul$GT$3mul17h61c33048af72c26fE
_ZN73_$LT$rustc_const_math..int..ConstInt$u20$as$u20$core..ops..arith..Sub$GT$3sub17h04d25acd294aa535E
_ZN73_$LT$syntax_pos..symbol..InternedString$u20$as$u20$core..fmt..Display$GT$3fmt17h3d7e24ea8ba0c843E
_ZN74_$LT$rustc..hir..map..Node$LT$$u27$hir$GT$$u20$as$u20$core..fmt..Debug$GT$3fmt17hb657aa77ea3298a9E
_ZN74_$LT$rustc..ty..sty..Const$LT$$u27$tcx$GT$$u20$as$u20$core..fmt..Debug$GT$3fmt17h4ecdbf3e8d4292bfE
_ZN74_$LT$rustc_trans..back..lto..ThinData$u20$as$u20$core..ops..drop..Drop$GT$4drop17hc1224268f8caca67E
_ZN75_$LT$rustc..mir..Terminator$LT$$u27$tcx$GT$$u20$as$u20$core..fmt..Debug$GT$3fmt17habc4a52de6d10517E
_ZN75_$LT$rustc..ty..subst..Kind$LT$$u27$tcx$GT$$u20$as$u20$core..fmt..Debug$GT$3fmt17h3ffa383b172669c1E
_ZN75_$LT$rustc_llvm..archive_ro..ArchiveRO$u20$as$u20$core..ops..drop..Drop$GT$4drop17h3e7ff522ec21635aE
_ZN75_$LT$rustc_trans..mir..analyze..CleanupKind$u20$as$u20$core..fmt..Debug$GT$3fmt17h96a1de5e20ea9454E
_ZN75_$LT$std..ffi..c_str..FromBytesWithNulError$u20$as$u20$core..fmt..Debug$GT$3fmt17hef509b5727eab653E
_ZN76_$LT$rustc..ty..layout..Size$u20$as$u20$core..ops..arith..Mul$LT$u64$GT$$GT$3mul17hc54589d5998f5226E
_ZN76_$LT$rustc..ty..sty..Binder$LT$rustc..ty..sty..FnSig$LT$$u27$tcx$GT$$GT$$GT$3abi17h9fbb83ff9d3ecb9fE
_ZN76_$LT$rustc..ty..sty..Binder$LT$rustc..ty..sty..FnSig$LT$$u27$tcx$GT$$GT$$GT$5input17hc0cf97f66c09318bE
_ZN76_$LT$rustc..ty..sty..Binder$LT$rustc..ty..sty..FnSig$LT$$u27$tcx$GT$$GT$$GT$6inputs17h45f505cfe61748abE
_ZN76_$LT$rustc..ty..sty..Binder$LT$rustc..ty..sty..FnSig$LT$$u27$tcx$GT$$GT$$GT$6output17he61d9b60643b19f6E
_ZN76_$LT$rustc..ty..sty..Binder$LT$rustc..ty..sty..FnSig$LT$$u27$tcx$GT$$GT$$GT$8unsafety17h53af89e9913b033fE
_ZN76_$LT$rustc..ty..sty..Binder$LT$rustc..ty..sty..FnSig$LT$$u27$tcx$GT$$GT$$GT$8variadic17h12ee37a827219174E
_ZN76_$LT$rustc_trans..back..lto..ThinBuffer$u20$as$u20$core..ops..drop..Drop$GT$4drop17h6a5717be3cb83538E
_ZN76_$LT$rustc_trans..mir..operand..OperandValue$u20$as$u20$core..fmt..Debug$GT$3fmt17hc24e2c92c99c65e4E
_ZN76_$LT$rustc_trans..time_graph..RaiiToken$u20$as$u20$core..ops..drop..Drop$GT$4drop17hbe22a1aff20b3f22E
_ZN76_$LT$std..ascii..EscapeDefault$u20$as$u20$core..iter..iterator..Iterator$GT$4next17h94b94e2cc5c3a64aE
_ZN77_$LT$core..any..Any$u20$$u2b$$u20$$u27$static$u20$as$u20$core..fmt..Debug$GT$3fmt17h2ae43e79b8f2d99cE
_ZN77_$LT$rustc..mir..Field$u20$as$u20$rustc_data_structures..indexed_vec..Idx$GT$5index17h956e64fd08ac69fbE
_ZN77_$LT$rustc..mir..Local$u20$as$u20$rustc_data_structures..indexed_vec..Idx$GT$3new17h7dd42e2535d7f910E
_ZN77_$LT$rustc..mir..Local$u20$as$u20$rustc_data_structures..indexed_vec..Idx$GT$5index17h642454d4294b8195E
_ZN77_$LT$rustc_demangle..Demangle$LT$$u27$a$GT$$u20$as$u20$core..fmt..Display$GT$3fmt17h3194e723a3eb5966E
_ZN77_$LT$rustc_trans..abi..FnType$LT$$u27$tcx$GT$$u20$as$u20$core..fmt..Debug$GT$3fmt17hb235329fc0659b36E
_ZN78_$LT$flate2..ffi..imp..StreamWrapper$u20$as$u20$core..ops..deref..DerefMut$GT$9deref_mut17h7ea692231b873234E
_ZN78_$LT$rustc..hir..map..MapEntry$LT$$u27$hir$GT$$u20$as$u20$core..fmt..Debug$GT$3fmt17h10ef4d1e93fc4979E
_ZN78_$LT$rustc..mir..AssertMessage$LT$$u27$tcx$GT$$u20$as$u20$core..fmt..Debug$GT$3fmt17h551d039f7ad37a32E
_ZN78_$LT$rustc..mir..StatementKind$LT$$u27$tcx$GT$$u20$as$u20$core..fmt..Debug$GT$3fmt17h2f3869cd0ba8b605E
_ZN78_$LT$rustc_trans..abi..ArgType$LT$$u27$tcx$GT$$u20$as$u20$core..fmt..Debug$GT$3fmt17hbf340da45135c481E
_ZN78_$LT$rustc_trans..abi..attr_impl..ArgAttribute$u20$as$u20$core..fmt..Debug$GT$3fmt17h72b165f5e3048056E
_ZN78_$LT$rustc_trans..abi..attr_impl..ArgAttribute$u20$as$u20$core..fmt..Octal$GT$3fmt17h70728081d4215934E
_ZN78_$LT$rustc_trans..back..lto..ModuleBuffer$u20$as$u20$core..ops..drop..Drop$GT$4drop17h25e1f6dcbb7ad363E
_ZN78_$LT$std..ffi..os_str..OsStr$u20$as$u20$std..sys..unix..ext..ffi..OsStrExt$GT$8as_bytes17h739235be40374967E
_ZN78_$LT$syntax_pos..symbol..InternedString$u20$as$u20$core..ops..deref..Deref$GT$5deref17hb5db7acccbd42246E
_ZN79_$LT$rustc..mir..TerminatorKind$LT$$u27$tcx$GT$$u20$as$u20$core..fmt..Debug$GT$3fmt17h8f83143c4cc1310dE
_ZN79_$LT$rustc_trans..abi..attr_impl..ArgAttribute$u20$as$u20$core..fmt..Binary$GT$3fmt17h85d8ecc5fc1fff40E
_ZN79_$LT$rustc_trans..base..ValueIter$u20$as$u20$core..iter..iterator..Iterator$GT$4next17h07c4b7cfabde1f6cE
_ZN79_$LT$std..path..Path$u20$as$u20$core..convert..AsRef$LT$std..path..Path$GT$$GT$6as_ref17h6dc2cca1026a9128E
_ZN7tempdir7TempDir3new17h11790e6e4b27a4d4E
_ZN7tempdir7TempDir4path17h4e523093c0728920E
_ZN7tempdir7TempDir9into_path17he9fefbe283cd4473E
_ZN80_$LT$rustc..mir..Promoted$u20$as$u20$rustc_data_structures..indexed_vec..Idx$GT$5index17hdeae7d84204ab75cE
_ZN80_$LT$rustc..ty..layout..TyLayout$LT$$u27$tcx$GT$$u20$as$u20$core..fmt..Debug$GT$3fmt17hcd126a7e97856cf3E
_ZN81_$LT$rustc..ty..Attributes$LT$$u27$gcx$GT$$u20$as$u20$core..ops..deref..Deref$GT$5deref17hec8d1583ebb25a04E
_ZN81_$LT$rustc..ty..sty..TypeVariants$LT$$u27$tcx$GT$$u20$as$u20$core..fmt..Debug$GT$3fmt17hac1f72e6115455c8E
_ZN81_$LT$rustc_trans..abi..attr_impl..ArgAttribute$u20$as$u20$core..fmt..LowerHex$GT$3fmt17h76fb2f2928bf285eE
_ZN81_$LT$rustc_trans..abi..attr_impl..ArgAttribute$u20$as$u20$core..fmt..UpperHex$GT$3fmt17hf51adc6b31134211E
_ZN81_$LT$std..path..PrefixComponent$LT$$u27$a$GT$$u20$as$u20$core..cmp..PartialEq$GT$2eq17hfcb70da9220e27b4E
_ZN82_$LT$rustc..mir..BasicBlock$u20$as$u20$rustc_data_structures..indexed_vec..Idx$GT$3new17hcf6fba807e38a831E
_ZN82_$LT$rustc..mir..BasicBlock$u20$as$u20$rustc_data_structures..indexed_vec..Idx$GT$5index17hed8df13e8f6bccc9E
_ZN82_$LT$rustc..ty..instance..Instance$LT$$u27$tcx$GT$$u20$as$u20$core..fmt..Debug$GT$3fmt17ha2799c793caa20c8E
_ZN82_$LT$std..path..PathBuf$u20$as$u20$core..convert..AsRef$LT$std..path..Path$GT$$GT$6as_ref17hf0e65d4e1a9b5fbfE
_ZN83_$LT$rustc_trans..debuginfo..metadata..UniqueTypeId$u20$as$u20$core..fmt..Debug$GT$3fmt17h3cf8b07c1757ca18E
_ZN84_$LT$rustc..ty..instance..Instance$LT$$u27$tcx$GT$$u20$as$u20$core..fmt..Display$GT$3fmt17h043d870c63d0d612E
_ZN84_$LT$rustc_llvm..archive_ro..Iter$LT$$u27$a$GT$$u20$as$u20$core..ops..drop..Drop$GT$4drop17he4489cd731f453e7E
_ZN84_$LT$rustc_trans..back..write..MainThreadWorkerState$u20$as$u20$core..fmt..Debug$GT$3fmt17hd145258268c12cbfE
_ZN84_$LT$std..ffi..os_str..OsString$u20$as$u20$std..sys..unix..ext..ffi..OsStringExt$GT$8from_vec17hae2848641567f39cE
_ZN85_$LT$rustc..ty..layout..LayoutError$LT$$u27$tcx$GT$$u20$as$u20$core..fmt..Display$GT$3fmt17hd2694dfd7c0ac32cE
_ZN85_$LT$rustc_llvm..archive_ro..Child$LT$$u27$a$GT$$u20$as$u20$core..ops..drop..Drop$GT$4drop17h3e793a970a68a21eE
_ZN85_$LT$std..env..SplitPaths$LT$$u27$a$GT$$u20$as$u20$core..iter..iterator..Iterator$GT$4next17hf2016c7dacd574bcE
_ZN85_$LT$std..env..SplitPaths$LT$$u27$a$GT$$u20$as$u20$core..iter..iterator..Iterator$GT$9size_hint17h58d8de2cf6f08c45E
_ZN86_$LT$rustc_trans..mir..constant..Const$LT$$u27$tcx$GT$$u20$as$u20$core..fmt..Debug$GT$3fmt17h2c601d7d4efa0398E
_ZN86_$LT$rustc_trans..mir..place..PlaceRef$LT$$u27$tcx$GT$$u20$as$u20$core..fmt..Debug$GT$3fmt17hae055ef52457cef6E
_ZN86_$LT$std..path..Components$LT$$u27$a$GT$$u20$as$u20$core..iter..iterator..Iterator$GT$4next17hb0f807f203013edfE
_ZN87_$LT$alloc..string..String$u20$as$u20$core..convert..From$LT$$RF$$u27$a$u20$str$GT$$GT$4from17h0747ecb4035de28eE
_ZN87_$LT$rustc..middle..const_val..ConstVal$LT$$u27$tcx$GT$$u20$as$u20$core..fmt..Debug$GT$3fmt17h40f2e88bd44f8acbE
_ZN87_$LT$rustc..mir..VisibilityScope$u20$as$u20$rustc_data_structures..indexed_vec..Idx$GT$3new17hc55c4fbcbd0b86efE
_ZN87_$LT$rustc..mir..VisibilityScope$u20$as$u20$rustc_data_structures..indexed_vec..Idx$GT$5index17h460e2e00f0b3c639E
_ZN87_$LT$rustc..ty..layout..TyLayout$LT$$u27$tcx$GT$$u20$as$u20$core..ops..deref..Deref$GT$5deref17hd4dd62c1f33891d0E
_ZN87_$LT$std..path..Path$u20$as$u20$core..convert..AsRef$LT$std..ffi..os_str..OsStr$GT$$GT$6as_ref17h1997a88ae68381aeE
_ZN88_$LT$rustc_trans..debuginfo..metadata..MemberDescription$u20$as$u20$core..fmt..Debug$GT$3fmt17h3e341a5b56d83d5eE
_ZN88_$LT$serialize..json..Encoder$LT$$u27$a$GT$$u20$as$u20$serialize..serialize..Encoder$GT$8emit_str17h55f6946bcadb294dE
_ZN8num_cpus12get_num_cpus17h55fbf0e38a6ce2beE
_ZN90_$LT$rustc..ty..sty..Binder$LT$rustc..ty..sty..ExistentialTraitRef$LT$$u27$tcx$GT$$GT$$GT$6def_id17hb3ac8d5f2b938fc8E
_ZN90_$LT$rustc_trans..LlvmTransCrate$u20$as$u20$rustc_trans_utils..trans_crate..TransCrate$GT$11diagnostics17hf539591e3c929d18E
_ZN90_$LT$rustc_trans..LlvmTransCrate$u20$as$u20$rustc_trans_utils..trans_crate..TransCrate$GT$11trans_crate17h6be0065e6726b2eeE
_ZN90_$LT$rustc_trans..LlvmTransCrate$u20$as$u20$rustc_trans_utils..trans_crate..TransCrate$GT$12print_passes17hf4e40c411b1719c7E
_ZN90_$LT$rustc_trans..LlvmTransCrate$u20$as$u20$rustc_trans_utils..trans_crate..TransCrate$GT$13print_version17h046eace7331ed174E
_ZN90_$LT$rustc_trans..LlvmTransCrate$u20$as$u20$rustc_trans_utils..trans_crate..TransCrate$GT$14provide_extern17h6df8d32d10c49837E
_ZN90_$LT$rustc_trans..LlvmTransCrate$u20$as$u20$rustc_trans_utils..trans_crate..TransCrate$GT$15metadata_loader17h992e151fcc9684cfE
_ZN90_$LT$rustc_trans..LlvmTransCrate$u20$as$u20$rustc_trans_utils..trans_crate..TransCrate$GT$15target_features17h9f29b89562768f0aE
_ZN90_$LT$rustc_trans..LlvmTransCrate$u20$as$u20$rustc_trans_utils..trans_crate..TransCrate$GT$19join_trans_and_link17h8af505e3dab49366E
_ZN90_$LT$rustc_trans..LlvmTransCrate$u20$as$u20$rustc_trans_utils..trans_crate..TransCrate$GT$4init17h6caf4aa8636ee285E
_ZN90_$LT$rustc_trans..LlvmTransCrate$u20$as$u20$rustc_trans_utils..trans_crate..TransCrate$GT$5print17hf0f360097b487e18E
_ZN90_$LT$rustc_trans..LlvmTransCrate$u20$as$u20$rustc_trans_utils..trans_crate..TransCrate$GT$7provide17h0543e1065c5cb094E
_ZN90_$LT$rustc_trans..back..write..SharedEmitter$u20$as$u20$rustc_errors..emitter..Emitter$GT$4emit17h707380a581c6c9f1E
_ZN90_$LT$rustc_trans..mir..operand..OperandRef$LT$$u27$tcx$GT$$u20$as$u20$core..fmt..Debug$GT$3fmt17h53290312aafb3583E
_ZN90_$LT$std..path..PathBuf$u20$as$u20$core..convert..AsRef$LT$std..ffi..os_str..OsStr$GT$$GT$6as_ref17h3df02c91002b1219E
_ZN91_$LT$alloc..vec..Vec$LT$u8$GT$$u20$as$u20$core..convert..From$LT$$RF$$u27$a$u20$str$GT$$GT$4from17h310f0a282bff5af8E
_ZN91_$LT$rustc..middle..const_val..ConstEvalErr$LT$$u27$tcx$GT$$u20$as$u20$core..fmt..Debug$GT$3fmt17h38ec08ddf759e602E
_ZN92_$LT$rustc_trans..debuginfo..create_scope_map..MirDebugScope$u20$as$u20$core..fmt..Debug$GT$3fmt17h8017c614a1efd7f4E
_ZN92_$LT$std..path..PathBuf$u20$as$u20$core..convert..From$LT$std..ffi..os_str..OsString$GT$$GT$4from17h570a08941e2ae971E
_ZN93_$LT$rustc..mir..Mir$LT$$u27$tcx$GT$$u20$as$u20$rustc..mir..HasLocalDecls$LT$$u27$tcx$GT$$GT$11local_decls17h5426b8a421ce47bfE
_ZN93_$LT$rustc_llvm..archive_ro..Iter$LT$$u27$a$GT$$u20$as$u20$core..iter..iterator..Iterator$GT$4next17hc2414f0b46ef60a8E
_ZN93_$LT$serialize..json..EncoderError$u20$as$u20$core..convert..From$LT$core..fmt..Error$GT$$GT$4from17h2918be4c9cf18f9cE
_ZN94_$LT$rustc_trans..abi..Uniform$u20$as$u20$core..convert..From$LT$rustc_trans..abi..Reg$GT$$GT$4from17h325f3c129f53f0a5E
_ZN95_$LT$std..ffi..os_str..OsStr$u20$as$u20$core..convert..AsRef$LT$std..ffi..os_str..OsStr$GT$$GT$6as_ref17hec63427697572b40E
_ZN97_$LT$rustc_trans..abi..CastTarget$u20$as$u20$core..convert..From$LT$rustc_trans..abi..Reg$GT$$GT$4from17h7d813de4b499abcbE
_ZN97_$LT$rustc_trans..back..link..exec_linker..Escape$LT$$u27$a$GT$$u20$as$u20$core..fmt..Display$GT$3fmt17h8b0d908114d3187eE
_ZN98_$LT$std..ffi..os_str..OsString$u20$as$u20$core..convert..AsRef$LT$std..ffi..os_str..OsStr$GT$$GT$6as_ref17h1f794f68bf847f89E
_ZN99_$LT$rustc..session..search_paths..Iter$LT$$u27$a$GT$$u20$as$u20$core..iter..iterator..Iterator$GT$4next17h742ba26aa88545ceE
_ZN99_$LT$rustc_trans..metadata..LlvmMetadataLoader$u20$as$u20$rustc..middle..cstore..MetadataLoader$GT$17get_rlib_metadata17hb34b299e29b8c944E
_ZN99_$LT$rustc_trans..metadata..LlvmMetadataLoader$u20$as$u20$rustc..middle..cstore..MetadataLoader$GT$18get_dylib_metadata17h76c6bdbb8fc196d5E
_ZN9jobserver12HelperThread13request_token17h93c27a5593f8129dE
_ZN9jobserver3imp12spawn_helper17h77fde82639111d09E
_ZN9jobserver6Client3new17h6c153fc7f97c70a4E
_ZN9rustc_mir12monomorphize12partitioning14CodegenUnitExt28items_in_deterministic_order13item_sort_key17hedc2ad19a2d5de7bE
_ZN9rustc_mir12monomorphize12partitioning17fallback_cgu_name17h022e35e1ae13a006E
_ZN9rustc_mir12monomorphize12partitioning19internalize_symbols17h723e1648359822adE
_ZN9rustc_mir12monomorphize12partitioning19merge_codegen_units17h1d3813bff419eb66E
_ZN9rustc_mir12monomorphize12partitioning25compute_codegen_unit_name17h59c8b3d07ad70938E
_ZN9rustc_mir12monomorphize12partitioning31place_inlined_translation_items17h713bd8840abbe1ffE
_ZN9rustc_mir12monomorphize12partitioning35characteristic_def_id_of_trans_item17ha60a2bc5469c6e76E
_ZN9rustc_mir12monomorphize15resolve_closure17h0021201842907564E
_ZN9rustc_mir12monomorphize21resolve_drop_in_place17h1573ac2dea817255E
_ZN9rustc_mir12monomorphize4item11MonoItemExt9to_string18to_string_internal17h15fe115f9ad66c93E
_ZN9rustc_mir12monomorphize4item15linkage_by_name17h87d5c2e1ea599c92E
_ZN9rustc_mir12monomorphize4item17DefPathBasedNames13push_def_path17h59c897dded9f1f95E
_ZN9rustc_mir12monomorphize4item17DefPathBasedNames14push_type_name17h8febea14d65e984bE
_ZN9rustc_mir12monomorphize4item17DefPathBasedNames3new17h08fe5a23fef1603fE
_ZN9rustc_mir12monomorphize9collector24collect_crate_mono_items17h92f75ada6a72d739E
_ZN9serialize4json7Encoder3new17h9898be0e117b6f59E
__rust_alloc
__rust_alloc_zeroed
__rust_dealloc
__rust_maybe_catch_panic
__rust_oom
__rust_realloc
__rustc_codegen_backend
memcmp
memcpy
memmove
memset
pthread_mutex_destroy
pthread_mutex_init
pthread_mutex_lock
pthread_mutex_unlock
pthread_mutexattr_destroy
pthread_mutexattr_init
pthread_mutexattr_settype
rust_eh_personality
rust_metadata_rustc_trans_6dd3cc66389ad14766807d8018850680
__rdl_alloc
__rdl_alloc_excess
__rdl_alloc_zeroed
__rdl_dealloc
__rdl_grow_in_place
__rdl_oom
__rdl_realloc
__rdl_realloc_excess
__rdl_shrink_in_place
__rdl_usable_size
__rust_alloc_excess
__rust_grow_in_place
__rust_realloc_excess
__rust_shrink_in_place
__rust_usable_size
_ZN3std3env8temp_dir17h33d144dfc6af37b8E
_ZN3std3sys4unix2fs14remove_dir_all17h31599046c31d07c0E
_ZN53_$LT$tempdir..TempDir$u20$as$u20$core..fmt..Debug$GT$3fmt17h15c543fabe86d3eaE
_ZN7tempdir7TempDir5close17hd891588fa277872bE
_ZN80_$LT$tempdir..TempDir$u20$as$u20$core..convert..AsRef$LT$std..path..Path$GT$$GT$6as_ref17h970120a6229bdaedE
librustc_trans_utils-9d5edc7bc904879e.so
librustc_platform_intrinsics-751945c373c3223d.so
LLVMCountParams
LLVMCreateObjectFile
LLVMDisposeObjectFile
LLVMDisposeSectionIterator
LLVMDisposeTargetData
LLVMGetSections
LLVMInitializeAArch64AsmParser
LLVMInitializeAArch64AsmPrinter
LLVMInitializeAArch64Target
LLVMInitializeAArch64TargetInfo
LLVMInitializeAArch64TargetMC
LLVMInitializeARMAsmParser
LLVMInitializeARMAsmPrinter
LLVMInitializeARMTarget
LLVMInitializeARMTargetInfo
LLVMInitializeARMTargetMC
LLVMInitializeMipsAsmParser
LLVMInitializeMipsAsmPrinter
LLVMInitializeMipsTarget
LLVMInitializeMipsTargetInfo
LLVMInitializeMipsTargetMC
LLVMInitializeNVPTXAsmPrinter
LLVMInitializeNVPTXTarget
LLVMInitializeNVPTXTargetInfo
LLVMInitializeNVPTXTargetMC
LLVMInitializePowerPCAsmParser
LLVMInitializePowerPCAsmPrinter
LLVMInitializePowerPCTarget
LLVMInitializePowerPCTargetInfo
LLVMInitializePowerPCTargetMC
LLVMInitializeSystemZAsmParser
LLVMInitializeSystemZAsmPrinter
LLVMInitializeSystemZTarget
LLVMInitializeSystemZTargetInfo
LLVMInitializeSystemZTargetMC
LLVMInitializeX86AsmParser
LLVMInitializeX86AsmPrinter
LLVMInitializeX86Target
LLVMInitializeX86TargetInfo
LLVMInitializeX86TargetMC
LLVMRustAddCallSiteAttribute
LLVMRustAddFunctionAttrStringValue
LLVMRustAddFunctionAttribute
LLVMRustArchiveChildData
LLVMRustArchiveChildFree
LLVMRustArchiveChildName
LLVMRustArchiveIteratorFree
LLVMRustArchiveIteratorNew
LLVMRustArchiveIteratorNext
LLVMRustBuildOperandBundleDef
LLVMRustDestroyArchive
LLVMRustFreeOperandBundleDef
LLVMRustGetDiagInfoKind
LLVMRustOpenArchive
LLVMRustRemoveFunctionAttributes
LLVMRustSetComdat
LLVMRustStringWriteImpl
LLVMRustUnpackInlineAsmDiagnostic
LLVMRustUnpackOptimizationDiagnostic
LLVMRustUnsetComdat
LLVMRustWriteTwineToString
LLVMSetFunctionCallConv
LLVMSetInstructionCallConv
LLVMSetThreadLocal
LLVMSetThreadLocalMode
_ZN10rustc_llvm10archive_ro9ArchiveRO3raw17h83b5ba888e66cc38E
_ZN10rustc_llvm11UnsetComdat17h767191bf779854acE
_ZN10rustc_llvm16set_thread_local17h4c75f8169baabe97E
_ZN4core3fmt3num50_$LT$impl$u20$core..fmt..Octal$u20$for$u20$u32$GT$3fmt17h33901be84be5f401E
_ZN4core3fmt3num51_$LT$impl$u20$core..fmt..Binary$u20$for$u20$u32$GT$3fmt17hde8a3d3ab1fa6dd7E
_ZN4core3fmt3num53_$LT$impl$u20$core..fmt..LowerHex$u20$for$u20$u32$GT$3fmt17h318bf6ad6781af5cE
_ZN4core3fmt3num53_$LT$impl$u20$core..fmt..UpperHex$u20$for$u20$u32$GT$3fmt17h9fab4c022c2c8cc8E
_ZN61_$LT$rustc_llvm..ffi..Linkage$u20$as$u20$core..fmt..Debug$GT$3fmt17h2a58b30b24b37eedE
_ZN62_$LT$rustc_llvm..ffi..PassKind$u20$as$u20$core..fmt..Debug$GT$3fmt17h2253c905eb08410dE
_ZN63_$LT$rustc_llvm..ffi..Attribute$u20$as$u20$core..fmt..Debug$GT$3fmt17h3f369e96b9c863e5E
_ZN64_$LT$rustc_llvm..TargetData$u20$as$u20$core..ops..drop..Drop$GT$4drop17h4e39572e7006b6d2E
_ZN64_$LT$rustc_llvm..ffi..Visibility$u20$as$u20$core..fmt..Debug$GT$3fmt17h86d9b30ecf158808E
_ZN72_$LT$rustc_llvm..ffi..DiagnosticSeverity$u20$as$u20$core..fmt..Debug$GT$3fmt17ha13f3f8604121f40E
_ZN72_$LT$rustc_llvm..ffi..debuginfo..DIFlags$u20$as$u20$core..fmt..Octal$GT$3fmt17hab31aa4bdc4ec4a9E
_ZN73_$LT$rustc_llvm..ffi..debuginfo..DIFlags$u20$as$u20$core..fmt..Binary$GT$3fmt17h31d7ad82de15cbf4E
_ZN75_$LT$rustc_llvm..ffi..debuginfo..DIFlags$u20$as$u20$core..fmt..LowerHex$GT$3fmt17h519f118a5c6ea6f7E
_ZN75_$LT$rustc_llvm..ffi..debuginfo..DIFlags$u20$as$u20$core..fmt..UpperHex$GT$3fmt17h0cdba030b7eb2abfE
free
_ZZSt9call_onceIRFPvRN4llvm12PassRegistryEEJSt17reference_wrapperIS2_EEEvRSt9once_flagOT_DpOT0_ENUlvE0_4_FUNEv
_ZSt15__once_callable
__tls_get_addr
__printf_chk
_ZdlPv
_Znwm
_ZN4llvm12PassRegistry12registerPassERKNS_8PassInfoEb
_ZN4llvm24AssemblyAnnotationWriterD2Ev
_ZN4llvm10ModulePassD2Ev
strlen
_ZNK4llvm5Value7getNameEv
_ZSt20__throw_length_errorPKc
_ZTVN4llvm18raw_string_ostreamE
_ZN4llvm11raw_ostream14flush_nonemptyEv
_ZN4llvm18raw_string_ostreamD1Ev
_ZSt19__throw_logic_errorPKc
__stack_chk_fail
_ZNK4llvm6Module5printERNS_11raw_ostreamEPNS_24AssemblyAnnotationWriterEbb
_ZN4llvm12PassRegistry15getPassRegistryEv
_ZN4llvm14initializeCoreERNS_12PassRegistryE
_ZN4llvm17initializeCodeGenERNS_12PassRegistryE
_ZN4llvm20initializeScalarOptsERNS_12PassRegistryE
_ZN4llvm23initializeVectorizationERNS_12PassRegistryE
_ZN4llvm13initializeIPOERNS_12PassRegistryE
_ZN4llvm18initializeAnalysisERNS_12PassRegistryE
_ZN4llvm24initializeTransformUtilsERNS_12PassRegistryE
_ZN4llvm21initializeInstCombineERNS_12PassRegistryE
_ZN4llvm25initializeInstrumentationERNS_12PassRegistryE
_ZN4llvm16initializeTargetERNS_12PassRegistryE
_ZNK4llvm12PassRegistry11getPassInfoENS_9StringRefE
_ZN4llvm18PassManagerBuilder26populateThinLTOPassManagerERNS_6legacy15PassManagerBaseE
_ZN4llvm6Triple9normalizeB5cxx11ENS_9StringRefE
_ZN4llvm6TripleC1ERKNS_5TwineE
_ZN4llvm14TargetRegistry12lookupTargetERKNSt7__cxx1112basic_stringIcSt11char_traitsIcESaIcEEERS6_
_ZN4llvm15MCTargetOptionsC1Ev
_ZN4llvm3sys14getHostCPUNameEv
LLVMRustSetLastError
_ZN4llvm18report_fatal_errorEPKcb
_ZN4llvm13TargetMachine19getTargetIRAnalysisEv
_ZN4llvm36createTargetTransformInfoWrapperPassENS_16TargetIRAnalysisE
_ZN4llvm21TargetLibraryInfoImplC1ERKNS_6TripleE
_ZN4llvm21TargetLibraryInfoImpl19disableAllFunctionsEv
_ZN4llvm28TargetLibraryInfoWrapperPassC1ERKNS_21TargetLibraryInfoImplE
_ZN4llvm6legacy19FunctionPassManager16doInitializationEv
_ZN4llvm23UpgradeCallsToIntrinsicEPNS_8FunctionE
_ZNK4llvm11GlobalValue13isDeclarationEv
_ZN4llvm6legacy19FunctionPassManager3runERNS_8FunctionE
_ZN4llvm6legacy19FunctionPassManager14doFinalizationEv
_ZN4llvm2cl23ParseCommandLineOptionsEiPKPKcNS_9StringRefEPNS_11raw_ostreamE
_ZN4llvm33initializeRustPrintModulePassPassERNS_12PassRegistryE
_ZSt11__once_call
__once_proxy
_ZSt20__throw_system_errori
_ZTVZ19LLVMRustPrintPassesE10MyListener
_ZN4llvm12PassRegistry13enumerateWithEPNS_24PassRegistrationListenerE
_ZN4llvm29createAlwaysInlinerLegacyPassEb
_ZN4llvm8Function12addAttributeEjNS_9Attribute8AttrKindE
_ZN4llvm10InvokeInst12addAttributeEjNS_9Attribute8AttrKindE
_ZN4llvm6Module11setPIELevelENS_8PIELevel5LevelE
_ZN4llvm22renameModuleForThinLTOERNS_6ModuleERKNS_18ModuleSummaryIndexEPNS_9SetVectorIPNS_11GlobalValueESt6vectorIS7_SaIS7_EENS_8DenseSetIS7_NS_12DenseMapInfoIS7_EEEEEE
_ZNK4llvm6Module16getNamedMetadataERKNS_5TwineE
_ZNK4llvm11NamedMDNode14getNumOperandsEv
_ZN4llvm6Module28debug_compile_units_iterator14SkipNoDebugCUsEv
_ZNK4llvm6Module28debug_compile_units_iteratordeEv
_ZN4llvm15DebugInfoFinder13processModuleERKNS_6ModuleE
_ZN4llvm16MetadataTracking5trackEPvRNS_8MetadataENS_12PointerUnionIPNS_15MetadataAsValueEPS2_EE
_ZNK4llvm8DebugLoc3getEv
_ZN4llvm15DebugInfoFinder15processLocationERKNS_6ModuleEPKNS_10DILocationE
_ZN4llvm16MetadataTracking7untrackEPvRNS_8MetadataE
_ZN4llvm15DebugInfoFinder14processDeclareERKNS_6ModuleEPKNS_14DbgDeclareInstE
_ZN4llvm6MDNode18replaceOperandWithEjPNS_8MetadataE
_ZN4llvm11NamedMDNode13clearOperandsEv
_ZN4llvm11NamedMDNode10addOperandEPNS_6MDNodeE
_ZN4llvm15DebugInfoFinder12processValueERKNS_6ModuleEPKNS_12DbgValueInstE
_ZN4llvm8Function17dropAllReferencesEv
_ZN4llvm11make_uniqueI19LLVMRustThinLTODataJEEENSt9enable_ifIXntsrSt8is_arrayIT_E5valueESt10unique_ptrIS4_St14default_deleteIS4_EEE4typeEDpOT0_
_ZN4llvm6ModuleD1Ev
_ZNSt7__cxx1112basic_stringIcSt11char_traitsIcESaIcEE9_M_appendEPKcm
_ZN4llvm23SmallVectorTemplateBaseINSt7__cxx1112basic_stringIcSt11char_traitsIcESaIcEEELb0EE4growEm
malloc
_ZN4llvm22report_bad_alloc_errorEPKcb
_ZNSt6vectorIcSaIcEE17_M_default_appendEm
_ZN4llvm11raw_ostream5writeEPKcm
_ZNSt8_Rb_treeImmSt9_IdentityImESt4lessImESaImEE8_M_eraseEPSt13_Rb_tree_nodeImE
_ZNSt8_Rb_treeImmSt9_IdentityImESt4lessImESaImEE16_M_insert_uniqueIRKmEESt4pairISt17_Rb_tree_iteratorImEbEOT_
_ZSt29_Rb_tree_insert_and_rebalancebPSt18_Rb_tree_node_baseS0_RS_
_ZSt18_Rb_tree_decrementPSt18_Rb_tree_node_base
_ZNSt8_Rb_treeImSt4pairIKmN4llvm22GlobalValueSummaryInfoEESt10_Select1stIS4_ESt4lessImESaIS4_EE8_M_eraseEPSt13_Rb_tree_nodeIS4_E
_ZNSt8_Rb_treeImSt4pairIKmmESt10_Select1stIS2_ESt4lessImESaIS2_EE8_M_eraseEPSt13_Rb_tree_nodeIS2_E
_ZNSt8_Rb_treeINSt7__cxx1112basic_stringIcSt11char_traitsIcESaIcEEES5_St9_IdentityIS5_ESt4lessIS5_ESaIS5_EE8_M_eraseEPSt13_Rb_tree_nodeIS5_E
_ZNSt6vectorISt10unique_ptrIN4llvm13ErrorInfoBaseESt14default_deleteIS2_EESaIS5_EE17_M_realloc_insertIJS5_EEEvN9__gnu_cxx17__normal_iteratorIPS5_S7_EEDpOT_
_ZNSt6vectorISt10unique_ptrIN4llvm13ErrorInfoBaseESt14default_deleteIS2_EESaIS5_EE12emplace_backIJS5_EEEvDpOT_
_ZN4llvm15handleErrorImplIZNS_8toStringENS_5ErrorEEUlRKNS_13ErrorInfoBaseEE_JEEES1_St10unique_ptrIS2_St14default_deleteIS2_EEOT_DpOT0_
_ZN4llvm13ErrorInfoBase2IDE
_ZN4llvm12handleErrorsIJZNS_8toStringENS_5ErrorEEUlRKNS_13ErrorInfoBaseEE_EEES1_S1_DpOT_
_ZN4llvm9ErrorList2IDE
_ZTVN4llvm9ErrorListE
_ZN4llvm11LLVMContext26enableDebugTypeODRUniquingEv
_ZN4llvm16parseBitcodeFileENS_15MemoryBufferRefERNS_11LLVMContextE
_ZNSt7__cxx1112basic_stringIcSt11char_traitsIcESaIcEE9_M_assignERKS4_
_ZN4llvm10DataLayout5clearEv
_ZN4llvm6Module13setDataLayoutERKNS_10DataLayoutE
_ZN4llvm10DataLayoutD1Ev
_ZN4llvm15SmallVectorBase8grow_podEPvmm
_ZNK4llvm13StringMapImpl7FindKeyENS_9StringRefE
_ZNSt8_Rb_treeImSt4pairIKmN4llvm11GlobalValue12LinkageTypesEESt10_Select1stIS5_ESt4lessImESaIS5_EE8_M_eraseEPSt13_Rb_tree_nodeIS5_E
_ZNSt8_Rb_treeImSt4pairIKmN4llvm11GlobalValue12LinkageTypesEESt10_Select1stIS5_ESt4lessImESaIS5_EE24_M_get_insert_unique_posERS1_
_ZNSt8_Rb_treeImSt4pairIKmN4llvm11GlobalValue12LinkageTypesEESt10_Select1stIS5_ESt4lessImESaIS5_EE29_M_get_insert_hint_unique_posESt23_Rb_tree_const_iteratorIS5_ERS1_
_ZSt18_Rb_tree_incrementPSt18_Rb_tree_node_base
_ZN4llvm13StringMapImpl15LookupBucketForENS_9StringRefE
_ZN4llvm13StringMapImpl11RehashTableEj
_ZN4llvm24thinLTOInternalizeModuleERNS_6ModuleERKNS_8DenseMapImPNS_18GlobalValueSummaryENS_12DenseMapInfoImEENS_6detail12DenseMapPairImS4_EEEE
_ZN4llvm33thinLTOResolveWeakForLinkerModuleERNS_6ModuleERKNS_8DenseMapImPNS_18GlobalValueSummaryENS_12DenseMapInfoImEENS_6detail12DenseMapPairImS4_EEEE
_ZNSt8_Rb_treeImSt4pairIKmjESt10_Select1stIS2_ESt4lessImESaIS2_EE8_M_eraseEPSt13_Rb_tree_nodeIS2_E
_ZN4llvm20getLazyBitcodeModuleENS_15MemoryBufferRefERNS_11LLVMContextEbb
_ZNSt8_Rb_treeImSt4pairIKmjESt10_Select1stIS2_ESt4lessImESaIS2_EE7_M_copyINS8_11_Alloc_nodeEEEPSt13_Rb_tree_nodeIS2_EPKSC_PSt18_Rb_tree_node_baseRT_
_ZN4llvm16FunctionImporter15importFunctionsERNS_6ModuleERKNS_9StringMapISt3mapImjSt4lessImESaISt4pairIKmjEEENS_15MallocAllocatorEEE
_ZN4llvm13StringMapImpl4initEj
_ZNSt8_Rb_treeISt6vectorImSaImEESt4pairIKS2_N4llvm28WholeProgramDevirtResolution5ByArgEESt10_Select1stIS8_ESt4lessIS2_ESaIS8_EE8_M_eraseEPSt13_Rb_tree_nodeIS8_E
_ZNSt8_Rb_treeImSt4pairIKmN4llvm28WholeProgramDevirtResolutionEESt10_Select1stIS4_ESt4lessImESaIS4_EE8_M_eraseEPSt13_Rb_tree_nodeIS4_E
_ZNSt8_Rb_treeINSt7__cxx1112basic_stringIcSt11char_traitsIcESaIcEEESt4pairIKS5_N4llvm13TypeIdSummaryEESt10_Select1stISA_ESt4lessIS5_ESaISA_EE8_M_eraseEPSt13_Rb_tree_nodeISA_E
_ZN4llvm22readModuleSummaryIndexENS_15MemoryBufferRefERNS_18ModuleSummaryIndexEm
_ZNK4llvm18ModuleSummaryIndex34collectDefinedGVSummariesPerModuleERNS_9StringMapINS_8DenseMapImPNS_18GlobalValueSummaryENS_12DenseMapInfoImEENS_6detail12DenseMapPairImS4_EEEENS_15MallocAllocatorEEE
_ZN4llvm3MD5C1Ev
_ZN4llvm3MD56updateENS_9StringRefE
_ZN4llvm3MD55finalERNS0_9MD5ResultE
_ZN4llvm18computeDeadSymbolsERNS_18ModuleSummaryIndexERKNS_8DenseSetImNS_12DenseMapInfoImEEEE
_ZN4llvm24ComputeCrossModuleImportERKNS_18ModuleSummaryIndexERKNS_9StringMapINS_8DenseMapImPNS_18GlobalValueSummaryENS_12DenseMapInfoImEENS_6detail12DenseMapPairImS6_EEEENS_15MallocAllocatorEEERNS3_INS3_ISt3mapImjSt4lessImESaISt4pairIKmjEEESD_EESD_EERNS3_ISt13unordered_setImSt4hashImESt8equal_toImESaImEESD_EE
_ZN4llvm34thinLTOResolveWeakForLinkerInIndexERNS_18ModuleSummaryIndexENS_12function_refIFbmPKNS_18GlobalValueSummaryEEEENS2_IFvNS_9StringRefEmNS_11GlobalValue12LinkageTypesEEEE
_ZN4llvm35thinLTOInternalizeAndPromoteInIndexERNS_18ModuleSummaryIndexENS_12function_refIFbNS_9StringRefEmEEE
LLVMLinkInInterpreter
getenv
LLVMLinkInMCJIT
_ZNSt3_V215system_categoryEv
_ZN4llvm14raw_fd_ostreamC1ENS_9StringRefERSt10error_codeNS_3sys2fs9OpenFlagsE
_ZN4llvm6legacy11PassManager3runERNS_6ModuleE
_ZN4llvm14raw_fd_ostreamD1Ev
LLVMRustWriteThinBitcodeToFile
_ZN4llvm29createWriteThinLTOBitcodePassERNS_11raw_ostreamEPS0_
_ZN4llvm6legacy11PassManagerC1Ev
_ZN4llvm21createInternalizePassESt8functionIFbRKNS_11GlobalValueEEE
_ZN4llvm6legacy11PassManager3addEPNS_4PassE
_ZN4llvm6legacy11PassManagerD1Ev
_ZTVN4llvm21formatted_raw_ostreamE
_ZN4llvm11raw_ostream16SetBufferAndModeEPcmNS0_10BufferKindE
_Znam
_ZN4llvm11raw_ostreamD2Ev
_ZNK4llvm14raw_fd_ostream21preferred_buffer_sizeEv
_ZNK4llvm11raw_ostream21preferred_buffer_sizeEv
_ZTSN4llvm24PassRegistrationListenerE
_ZTIN4llvm24PassRegistrationListenerE
_ZTVN10__cxxabiv117__class_type_infoE
_ZTVN10__cxxabiv120__si_class_type_infoE
_ZTIN4llvm24AssemblyAnnotationWriterE
_ZTIN4llvm10ModulePassE
_ZTIZ19LLVMRustPrintPassesE10MyListener
_ZNK4llvm4Pass11getPassNameEv
_ZNK4llvm4Pass5printERNS_11raw_ostreamEPKNS_6ModuleE
_ZNK4llvm10ModulePass17createPrinterPassERNS_11raw_ostreamERKNSt7__cxx1112basic_stringIcSt11char_traitsIcESaIcEEE
_ZN4llvm10ModulePass17assignPassManagerERNS_7PMStackENS_15PassManagerTypeE
_ZN4llvm4Pass18preparePassManagerERNS_7PMStackE
_ZNK4llvm10ModulePass27getPotentialPassManagerTypeEv
_ZN4llvm4Pass13releaseMemoryEv
_ZN4llvm4Pass26getAdjustedAnalysisPointerEPKv
_ZN4llvm4Pass18getAsImmutablePassEv
_ZN4llvm4Pass18getAsPMDataManagerEv
_ZNK4llvm4Pass14verifyAnalysisEv
_ZN4llvm4Pass17dumpPassStructureEj
_ZN4llvm24DisableABIBreakingChecksE
__pthread_key_create
pthread_once
_ZTV20RawRustStringOstream
strdup
_ZN4llvm11LLVMContextC1Ev
_ZN4llvm11LLVMContext20setDiscardValueNamesEb
_ZNK4llvm6Module13getNamedValueENS_9StringRefE
_ZN4llvm6Module19getOrInsertFunctionENS_9StringRefEPNS_12FunctionTypeE
_ZN4llvm6Module17getOrInsertGlobalENS_9StringRefEPNS_4TypeE
_ZN4llvm4Type13getMetadataTyERNS_11LLVMContextE
_ZNK4llvm5Value10getContextEv
_ZN4llvm9Attribute3getERNS_11LLVMContextENS0_8AttrKindEm
_ZN4llvm10InvokeInst12addAttributeEjNS_9AttributeE
_ZN4llvm8CallInst12addAttributeEjNS_9AttributeE
_ZN4llvm11Instruction7setFastEb
_ZN4llvm4UsernwEmj
_ZN4llvm8LoadInstC1EPNS_4TypeEPNS_5ValueEPKcbPNS_11InstructionE
_ZN4llvm21SymbolTableListTraitsINS_11InstructionEE13addNodeToListEPS1_
_ZN4llvm5Value7setNameERKNS_5TwineE
_ZN4llvm16MetadataTracking7retrackEPvRNS_8MetadataES1_
_ZN4llvm9StoreInstC1EPNS_5ValueES2_bPNS_11InstructionE
_ZN4llvm17AtomicCmpXchgInstC1EPNS_5ValueES2_S2_NS_14AtomicOrderingES3_hPNS_11InstructionE
_ZN4llvm9FenceInstC1ERNS_11LLVMContextENS_14AtomicOrderingEhPNS_11InstructionE
_ZN4llvm9InlineAsm3getEPNS_12FunctionTypeENS_9StringRefES3_bbNS0_10AsmDialectE
_ZN4llvm6Module13addModuleFlagENS0_15ModFlagBehaviorENS_9StringRefEj
_ZN4llvm15MetadataAsValue3getERNS_11LLVMContextEPNS_8MetadataE
_ZN4llvm9DIBuilderC1ERNS_6ModuleEb
_ZN4llvm9DIBuilder8finalizeEv
_ZN4llvm9DIBuilder17createCompileUnitEjPNS_6DIFileENS_9StringRefEbS3_jS3_NS_13DICompileUnit17DebugEmissionKindEmbbb
_ZN4llvm9DIBuilder10createFileENS_9StringRefES1_NS_6DIFile12ChecksumKindES1_
_ZN4llvm9DIBuilder20createSubroutineTypeENS_14DITypeRefArrayENS_6DINode7DIFlagsEj
_ZN4llvm9DIBuilder14createFunctionEPNS_7DIScopeENS_9StringRefES3_PNS_6DIFileEjPNS_16DISubroutineTypeEbbjNS_6DINode7DIFlagsEbNS_24MDTupleTypedArrayWrapperINS_19DITemplateParameterEEEPNS_12DISubprogramENSA_INS_6DITypeEEE
_ZN4llvm8Function13setSubprogramEPNS_12DISubprogramE
_ZN4llvm9DIBuilder15createBasicTypeENS_9StringRefEmj
_ZN4llvm9DIBuilder17createPointerTypeEPNS_6DITypeEmjNS_8OptionalIjEENS_9StringRefE
_ZN4llvm9DIBuilder16createStructTypeEPNS_7DIScopeENS_9StringRefEPNS_6DIFileEjmjNS_6DINode7DIFlagsEPNS_6DITypeENS_24MDTupleTypedArrayWrapperIS6_EEjS9_S3_
_ZN4llvm9DIBuilder16createMemberTypeEPNS_7DIScopeENS_9StringRefEPNS_6DIFileEjmjmNS_6DINode7DIFlagsEPNS_6DITypeE
_ZN4llvm9DIBuilder18createLexicalBlockEPNS_7DIScopeEPNS_6DIFileEjj
_ZN4llvm9DIBuilder22createLexicalBlockFileEPNS_7DIScopeEPNS_6DIFileEj
_ZN4llvm12DIExpression7getImplERNS_11LLVMContextENS_8ArrayRefImEENS_8Metadata11StorageTypeEb
_ZN4llvm9DIBuilder30createGlobalVariableExpressionEPNS_7DIScopeENS_9StringRefES3_PNS_6DIFileEjPNS_6DITypeEbPNS_12DIExpressionEPNS_6MDNodeEj
_ZN4llvm12GlobalObject11setMetadataENS_9StringRefEPNS_6MDNodeE
_ZN4llvm11APFloatBase15PPCDoubleDoubleEv
_ZNK4llvm6detail9IEEEFloat14bitcastToAPIntEv
_ZdaPv
_ZNK4llvm6detail13DoubleAPFloat14bitcastToAPIntEv
_ZN4llvm9DIBuilder23createParameterVariableEPNS_7DIScopeENS_9StringRefEjPNS_6DIFileEjPNS_6DITypeEbNS_6DINode7DIFlagsE
_ZN4llvm9DIBuilder18createAutoVariableEPNS_7DIScopeENS_9StringRefEPNS_6DIFileEjPNS_6DITypeEbNS_6DINode7DIFlagsEj
_ZN4llvm9DIBuilder15createArrayTypeEmjPNS_6DITypeENS_24MDTupleTypedArrayWrapperINS_6DINodeEEE
LLVMRustDIBuilderCreateVectorType
_ZN4llvm9DIBuilder16createVectorTypeEmjPNS_6DITypeENS_24MDTupleTypedArrayWrapperINS_6DINodeEEE
_ZN4llvm9DIBuilder19getOrCreateSubrangeEll
_ZN4llvm9DIBuilder16getOrCreateArrayENS_8ArrayRefIPNS_8MetadataEEE
_ZN4llvm8DebugLocC1EPKNS_6MDNodeE
_ZN4llvm9DIBuilder16createExpressionENS_8ArrayRefIlEE
_ZN4llvm9DIBuilder13insertDeclareEPNS_5ValueEPNS_15DILocalVariableEPNS_12DIExpressionEPKNS_10DILocationEPNS_10BasicBlockE
_ZN4llvm9DIBuilder16createEnumeratorENS_9StringRefEl
_ZN4llvm9DIBuilder21createEnumerationTypeEPNS_7DIScopeENS_9StringRefEPNS_6DIFileEjmjNS_24MDTupleTypedArrayWrapperINS_6DINodeEEEPNS_6DITypeES3_
_ZN4llvm9DIBuilder15createUnionTypeEPNS_7DIScopeENS_9StringRefEPNS_6DIFileEjmjNS_6DINode7DIFlagsENS_24MDTupleTypedArrayWrapperIS6_EEjS3_
_ZN4llvm9DIBuilder27createTemplateTypeParameterEPNS_7DIScopeENS_9StringRefEPNS_6DITypeE
_ZN4llvm9DIBuilder15createNameSpaceEPNS_7DIScopeENS_9StringRefEb
_ZN4llvm9DIBuilder13replaceArraysERPNS_15DICompositeTypeENS_24MDTupleTypedArrayWrapperINS_6DINodeEEES6_
_ZN4llvm8DebugLoc3getEjjPKNS_6MDNodeES3_
_ZNK4llvm4Type5printERNS_11raw_ostreamEbb
_ZNK4llvm5Value5printERNS_11raw_ostreamEb
_ZN4llvm18report_fatal_errorERKNSt7__cxx1112basic_stringIcSt11char_traitsIcESaIcEEEb
_ZN4llvm9ArrayType3getEPNS_4TypeEm
_ZNK4llvm5Twine5printERNS_11raw_ostreamE
_ZNK4llvm30DiagnosticInfoOptimizationBase6getMsgB5cxx11Ev
LLVMRustWriteDiagnosticInfoToString
_ZTVN4llvm27DiagnosticPrinterRawOStreamE
_ZN4llvm11LLVMContext29setInlineAsmDiagnosticHandlerEPFvRKNS_12SMDiagnosticEPvjES4_
_ZNK4llvm12SMDiagnostic5printEPKcRNS_11raw_ostreamEbb
_ZN4llvm14FuncletPadInstC2ENS_11Instruction13FuncletPadOpsEPNS_5ValueENS_8ArrayRefIS4_EEjRKNS_5TwineEPS1_
_ZN4llvm4Type10getTokenTyERNS_11LLVMContextE
_ZN4llvm8Constant12getNullValueEPNS_4TypeE
_ZN4llvm17CleanupReturnInstC1EPNS_5ValueEPNS_10BasicBlockEjPNS_11InstructionE
_ZN4llvm15CatchReturnInstC1EPNS_5ValueEPNS_10BasicBlockEPNS_11InstructionE
_ZN4llvm4UsernwEm
_ZN4llvm15CatchSwitchInstC1EPNS_5ValueEPNS_10BasicBlockEjRKNS_5TwineEPNS_11InstructionE
_ZN4llvm15CatchSwitchInst10addHandlerEPNS_10BasicBlockE
_ZN4llvm4UsernwEmjj
_ZN4llvm11InstructionC2EPNS_4TypeEjPNS_3UseEjPS0_
_ZN4llvm8CallInst4initEPNS_12FunctionTypeEPNS_5ValueENS_8ArrayRefIS4_EENS5_INS_17OperandBundleDefTIS4_EEEERKNS_5TwineE
_ZN4llvm11Instruction11setMetadataEjPNS_6MDNodeE
_ZN4llvm11Instruction16setFastMathFlagsENS_13FastMathFlagsE
_ZN4llvm10InvokeInst4initEPNS_12FunctionTypeEPNS_5ValueEPNS_10BasicBlockES6_NS_8ArrayRefIS4_EENS7_INS_17OperandBundleDefTIS4_EEEERKNS_5TwineE
_ZNK4llvm10BasicBlock19getFirstInsertionPtEv
_ZN4llvm6Module17getOrInsertComdatENS_9StringRefE
LLVMGetLinkage
LLVMSetLinkage
_ZNK4llvm5APInt10sextOrSelfEj
_ZNK4llvm5APInt9getLoBitsEj
_ZNK4llvm5APInt9getHiBitsEj
_ZNK4llvm5APInt10zextOrSelfEj
LLVMGetVisibility
_ZN4llvm12ConstantExpr14getIntegerCastEPNS_8ConstantEPNS_4TypeEb
_ZN4llvm8CastInst17CreateIntegerCastEPNS_5ValueEPNS_4TypeEbRKNS_5TwineEPNS_11InstructionE
LLVMSetVisibility
_ZN4llvm12MemoryBuffer7getFileERKNS_5TwineElbb
_ZNSt7__cxx1112basic_stringIcSt11char_traitsIcESaIcEE9_M_mutateEmmPKcm
_ZNSt8_Rb_treeINSt7__cxx1112basic_stringIcSt11char_traitsIcESaIcEEESt4pairIKS5_S5_ESt10_Select1stIS8_ESt4lessIS5_ESaIS8_EE8_M_eraseEPSt13_Rb_tree_nodeIS8_E
_ZN4llvm11AttrBuilder16addAlignmentAttrEj
_ZNK4llvm13AttributeList13addAttributesERNS_11LLVMContextEjRKNS_11AttrBuilderE
_ZN4llvm11AttrBuilder22addDereferenceableAttrEm
_ZN4llvm11AttrBuilder28addDereferenceableOrNullAttrEm
_ZNK4llvm8Function10getContextEv
_ZN4llvm11AttrBuilder12addAttributeENS_9AttributeE
_ZN4llvm8Function13addAttributesEjRKNS_11AttrBuilderE
_ZN4llvm11AttrBuilder12addAttributeENS_9StringRefES1_
_ZNK4llvm13AttributeList16removeAttributesERNS_11LLVMContextEjRKNS_11AttrBuilderE
_ZN4llvm12MemoryBuffer16getMemBufferCopyENS_9StringRefERKNS_5TwineE
_ZNK4llvm12MemoryBuffer15getMemBufferRefEv
_ZN4llvm6Linker11linkModulesERNS_6ModuleESt10unique_ptrIS1_St14default_deleteIS1_EEjSt8functionIFvS2_RKNS_9StringSetINS_15MallocAllocatorEEEEE
_ZNSt7__cxx1112basic_stringIcSt11char_traitsIcESaIcEE12_M_constructIPKcEEvT_S8_St20forward_iterator_tag
_ZN4llvm14raw_fd_ostreamC1Eibb
_ZN4llvm10TimerGroup8printAllERNS_11raw_ostreamE
_ZN4llvm23createBitcodeWriterPassERNS_11raw_ostreamEbbb
_ZTS20RawRustStringOstream
_ZTI20RawRustStringOstream
_ZTIN4llvm11raw_ostreamE
_ZN4llvm11raw_ostream6handleEv
_ZN4llvm6object7Archive5ChildC1EPKS1_PKcPNS_5ErrorE
_ZN4llvm6object7Archive6createENS_15MemoryBufferRefE
_ZNK4llvm6object7Archive5Child9getBufferEv
_ZNK4llvm6object7Archive5Child7getNameEv
_ZNK4llvm6object7Archive11child_beginERNS_5ErrorEb
_ZNK4llvm6object7Archive9child_endEv
_ZNK4llvm6object7Archive5Child7getNextEv
_ZNSt6vectorIN4llvm16NewArchiveMemberESaIS1_EE17_M_realloc_insertIJS1_EEEvN9__gnu_cxx17__normal_iteratorIPS1_S3_EEDpOT_
_ZNSt6vectorIN4llvm16NewArchiveMemberESaIS1_EE12emplace_backIJS1_EEEvDpOT_
_ZN4llvm16NewArchiveMember7getFileENS_9StringRefEb
_ZN4llvm3sys4path8filenameENS_9StringRefENS1_5StyleE
_ZN4llvm16NewArchiveMember12getOldMemberERKNS_6object7Archive5ChildEb
_ZN4llvm12writeArchiveENS_9StringRefENS_8ArrayRefINS_16NewArchiveMemberEEEbNS_6object7Archive4KindEbbSt10unique_ptrINS_12MemoryBufferESt14default_deleteIS8_EE
librustc_incremental-385d8f6e106860f5.so
BinaryenRustModuleCreate
BinaryenRustModuleFree
BinaryenRustModuleLen
BinaryenRustModuleOptionsCreate
BinaryenRustModuleOptionsFree
BinaryenRustModuleOptionsSetDebugInfo
BinaryenRustModuleOptionsSetImportMemory
BinaryenRustModuleOptionsSetSourceMapUrl
BinaryenRustModuleOptionsSetStackAllocation
BinaryenRustModuleOptionsSetStart
BinaryenRustModulePtr
BinaryenRustModuleSourceMapLen
BinaryenRustModuleSourceMapPtr
_ZN14rustc_binaryen13ModuleOptions5start17h6967c3ac3619ba59E
_ZNSt13unordered_setIPKcN6cashew7IString11CStringHashENS3_12CStringEqualESaIS1_EED2Ev
_ZNSt13unordered_setIPKcN6cashew7IString11CStringHashENS3_12CStringEqualESaIS1_EED1Ev
_ZNSt6vectorISt10unique_ptrINSt7__cxx1112basic_stringIcSt11char_traitsIcESaIcEEESt14default_deleteIS6_EESaIS9_EED2Ev
_ZNSt6vectorISt10unique_ptrINSt7__cxx1112basic_stringIcSt11char_traitsIcESaIcEEESt14default_deleteIS6_EESaIS9_EED1Ev
_ZSt20__replacement_assertPKciS0_S0_
_ZN10MixedArenaD2Ev
_ZN10MixedArenaD1Ev
_ZN4wasm13asmToWasmTypeE7AsmType
_ZN4wasm13wasmToAsmTypeENS_8WasmTypeE
_ZN4wasm6getSigENS_8WasmTypeE
_ZN4wasm13sigToWasmTypeEc
_ZNSt6vectorISt10unique_ptrINSt7__cxx1112basic_stringIcSt11char_traitsIcESaIcEEESt14default_deleteIS6_EESaIS9_EE17_M_realloc_insertIJS9_EEEvN9__gnu_cxx17__normal_iteratorIPS9_SB_EEDpOT_
_ZNSt6vectorIPcSaIS0_EE17_M_realloc_insertIJS0_EEEvN9__gnu_cxx17__normal_iteratorIPS0_S2_EEDpOT_
_ZN10MixedArena10allocSpaceEm
__gxx_personality_v0
_ZN4wasm12ensureDoubleEPNS_10ExpressionER10MixedArena
__assert_fail
_ZStplIcSt11char_traitsIcESaIcEENSt7__cxx1112basic_stringIT_T0_T1_EEPKS5_RKS8_
_ZN4wasm6getSigB5cxx11EPKNS_12FunctionTypeE
_ZN4wasm6getSigB5cxx11EPNS_8FunctionE
_ZNSt6vectorIN4wasm8WasmTypeESaIS1_EE17_M_realloc_insertIJS1_EEEvN9__gnu_cxx17__normal_iteratorIPS1_S3_EEDpOT_
_ZNSt6vectorIN4wasm8WasmTypeESaIS1_EE12emplace_backIJS1_EEEvDpOT_
_ZN4wasm17sigToFunctionTypeENSt7__cxx1112basic_stringIcSt11char_traitsIcESaIcEEE
_ZNKSt10_HashtableIPKcS1_SaIS1_ENSt8__detail9_IdentityEN6cashew7IString12CStringEqualENS6_11CStringHashENS3_18_Mod_range_hashingENS3_20_Default_ranged_hashENS3_20_Prime_rehash_policyENS3_17_Hashtable_traitsILb1ELb1ELb1EEEE19_M_find_before_nodeEmRKS1_m
strcmp
_ZNSt10_HashtableIPKcS1_SaIS1_ENSt8__detail9_IdentityEN6cashew7IString12CStringEqualENS6_11CStringHashENS3_18_Mod_range_hashingENS3_20_Default_ranged_hashENS3_20_Prime_rehash_policyENS3_17_Hashtable_traitsILb1ELb1ELb1EEEE21_M_insert_unique_nodeEmmPNS3_10_Hash_nodeIS1_Lb1EEEm
_ZNKSt8__detail20_Prime_rehash_policy14_M_need_rehashEmmm
_ZSt17__throw_bad_allocv
__cxa_begin_catch
__cxa_rethrow
__cxa_end_catch
_ZN4wasm18ensureFunctionTypeENSt7__cxx1112basic_stringIcSt11char_traitsIcESaIcEEEPNS_6ModuleE
_ZZN6cashew7IString3setEPKcbE5mutex
_ZGVZN6cashew7IString3setEPKcbE13globalStrings
_ZZN6cashew7IString3setEPKcbE13globalStrings
_ZN4wasm6Module21getFunctionTypeOrNullENS_4NameE
_ZN4wasm6Module15getFunctionTypeENS_4NameE
_ZGVZN6cashew7IString3setEPKcbE9allocatedB5cxx11
_ZZN6cashew7IString3setEPKcbE9allocatedB5cxx11
__cxa_guard_acquire
__cxa_guard_release
__cxa_atexit
_ZN4wasm6Module15addFunctionTypeEPNS_12FunctionTypeE
_ZNSt8ios_base4InitC1Ev
_ZNSt8ios_base4InitD1Ev
pthread_self
_ZN6cashew7IString3setEPKcb
_ZN4wasm6GLOBALE
_ZN4wasm4NAN_E
_ZN4wasm9INFINITY_E
_ZN4wasm5NAN__E
_ZN4wasm10INFINITY__E
_ZN4wasm7TOPMOSTE
_ZN4wasm9INT8ARRAYE
_ZN4wasm10INT16ARRAYE
_ZN4wasm10INT32ARRAYE
_ZN4wasm10UINT8ARRAYE
_ZN4wasm11UINT16ARRAYE
_ZN4wasm11UINT32ARRAYE
_ZN4wasm12FLOAT32ARRAYE
_ZN4wasm12FLOAT64ARRAYE
_ZN4wasm12ARRAY_BUFFERE
_ZN4wasm10ASM_MODULEE
_ZN4wasm19IMPOSSIBLE_CONTINUEE
_ZN4wasm4MATHE
_ZN4wasm4IMULE
_ZN4wasm5CLZ32E
_ZN4wasm6FROUNDE
_ZN4wasm8ASM2WASME
_ZN4wasm7F64_REME
_ZN4wasm10F64_TO_INTE
_ZN4wasm11F64_TO_UINTE
_ZN4wasm12F64_TO_INT64E
_ZN4wasm13F64_TO_UINT64E
_ZN4wasm10F32_TO_INTE
_ZN4wasm11F32_TO_UINTE
_ZN4wasm12F32_TO_INT64E
_ZN4wasm13F32_TO_UINT64E
_ZN4wasm8I32S_DIVE
_ZN4wasm8I32U_DIVE
_ZN4wasm8I32S_REME
_ZN4wasm8I32U_REME
_ZN4wasm11GLOBAL_MATHE
_ZN4wasm3ABSE
_ZN4wasm5FLOORE
_ZN4wasm4CEILE
_ZN4wasm4SQRTE
_ZN4wasm3POWE
_ZN4wasm8I32_TEMPE
_ZN4wasm8DEBUGGERE
_ZN4wasm7USE_ASME
_ZN4wasm6BUFFERE
_ZN4wasm3ENVE
_ZN4wasm10INSTRUMENTE
_ZN4wasm9MATH_IMULE
_ZN4wasm8MATH_ABSE
_ZN4wasm9MATH_CEILE
_ZN4wasm10MATH_CLZ32E
_ZN4wasm10MATH_FLOORE
_ZN4wasm10MATH_TRUNCE
_ZN4wasm12MATH_NEARESTE
_ZN4wasm9MATH_SQRTE
_ZN4wasm8MATH_MINE
_ZN4wasm8MATH_MAXE
_ZN4wasm10WASM_CTZ32E
_ZN4wasm10WASM_CTZ64E
_ZN4wasm10WASM_CLZ32E
_ZN4wasm10WASM_CLZ64E
_ZN4wasm13WASM_POPCNT32E
_ZN4wasm13WASM_POPCNT64E
_ZN4wasm11WASM_ROTL32E
_ZN4wasm11WASM_ROTL64E
_ZN4wasm11WASM_ROTR32E
_ZN4wasm11WASM_ROTR64E
_ZN4wasm4Pass12prepareToRunEPNS_10PassRunnerEPNS_6ModuleE
_ZN4wasm4Pass18isFunctionParallelEv
_ZN4wasm10ReFinalize18isFunctionParallelEv
_ZN4wasm8AutoDrop18isFunctionParallelEv
_ZZN4wasm18ModuleInstanceBaseISt3mapINS_4NameENS_7LiteralESt4lessIS2_ESaISt4pairIKS2_S3_EEENS_14ModuleInstanceEE20callFunctionInternalES2_RSt6vectorIS3_SaIS3_EEEN23RuntimeExpressionRunner4trapEPKc
_ZN4wasm4Pass6createEv
_ZN4wasm4Pass11runFunctionEPNS_10PassRunnerEPNS_6ModuleEPNS_8FunctionE
_ZN4wasm4Pass3runEPNS_10PassRunnerEPNS_6ModuleE
_ZN4wasm16ExpressionRunnerINS_24ConstantExpressionRunnerISt3mapINS_4NameENS_7LiteralESt4lessIS3_ESaISt4pairIKS3_S4_EEEEEE4trapEPKc
_ZN4wasm6WalkerINS_10ReFinalizeENS_17OverriddenVisitorIS1_vEEE13doVisitReturnEPS1_PPNS_10ExpressionE
_ZN4wasm6WalkerINS_10ReFinalizeENS_17OverriddenVisitorIS1_vEEE15doVisitGetLocalEPS1_PPNS_10ExpressionE
_ZN4wasm6WalkerINS_10ReFinalizeENS_17OverriddenVisitorIS1_vEEE16doVisitGetGlobalEPS1_PPNS_10ExpressionE
_ZN4wasm6WalkerINS_10ReFinalizeENS_17OverriddenVisitorIS1_vEEE10doVisitNopEPS1_PPNS_10ExpressionE
_ZN4wasm6WalkerINS_10ReFinalizeENS_17OverriddenVisitorIS1_vEEE18doVisitUnreachableEPS1_PPNS_10ExpressionE
_ZN4wasm6WalkerINS_8AutoDropENS_7VisitorIS1_vEEE11doVisitLoopEPS1_PPNS_10ExpressionE
_ZN4wasm6WalkerINS_8AutoDropENS_7VisitorIS1_vEEE12doVisitBreakEPS1_PPNS_10ExpressionE
_ZN4wasm6WalkerINS_8AutoDropENS_7VisitorIS1_vEEE13doVisitSwitchEPS1_PPNS_10ExpressionE
_ZN4wasm6WalkerINS_8AutoDropENS_7VisitorIS1_vEEE11doVisitCallEPS1_PPNS_10ExpressionE
_ZN4wasm6WalkerINS_8AutoDropENS_7VisitorIS1_vEEE17doVisitCallImportEPS1_PPNS_10ExpressionE
_ZN4wasm6WalkerINS_8AutoDropENS_7VisitorIS1_vEEE19doVisitCallIndirectEPS1_PPNS_10ExpressionE
_ZN4wasm6WalkerINS_8AutoDropENS_7VisitorIS1_vEEE15doVisitGetLocalEPS1_PPNS_10ExpressionE
_ZN4wasm6WalkerINS_8AutoDropENS_7VisitorIS1_vEEE15doVisitSetLocalEPS1_PPNS_10ExpressionE
_ZN4wasm6WalkerINS_8AutoDropENS_7VisitorIS1_vEEE16doVisitGetGlobalEPS1_PPNS_10ExpressionE
_ZN4wasm6WalkerINS_8AutoDropENS_7VisitorIS1_vEEE16doVisitSetGlobalEPS1_PPNS_10ExpressionE
_ZN4wasm6WalkerINS_8AutoDropENS_7VisitorIS1_vEEE11doVisitLoadEPS1_PPNS_10ExpressionE
_ZN4wasm6WalkerINS_8AutoDropENS_7VisitorIS1_vEEE12doVisitStoreEPS1_PPNS_10ExpressionE
_ZN4wasm6WalkerINS_8AutoDropENS_7VisitorIS1_vEEE16doVisitAtomicRMWEPS1_PPNS_10ExpressionE
_ZN4wasm6WalkerINS_8AutoDropENS_7VisitorIS1_vEEE20doVisitAtomicCmpxchgEPS1_PPNS_10ExpressionE
_ZN4wasm6WalkerINS_8AutoDropENS_7VisitorIS1_vEEE17doVisitAtomicWaitEPS1_PPNS_10ExpressionE
_ZN4wasm6WalkerINS_8AutoDropENS_7VisitorIS1_vEEE17doVisitAtomicWakeEPS1_PPNS_10ExpressionE
_ZN4wasm6WalkerINS_8AutoDropENS_7VisitorIS1_vEEE12doVisitConstEPS1_PPNS_10ExpressionE
_ZN4wasm6WalkerINS_8AutoDropENS_7VisitorIS1_vEEE12doVisitUnaryEPS1_PPNS_10ExpressionE
_ZN4wasm6WalkerINS_8AutoDropENS_7VisitorIS1_vEEE13doVisitBinaryEPS1_PPNS_10ExpressionE
_ZN4wasm6WalkerINS_8AutoDropENS_7VisitorIS1_vEEE13doVisitSelectEPS1_PPNS_10ExpressionE
_ZN4wasm6WalkerINS_8AutoDropENS_7VisitorIS1_vEEE11doVisitDropEPS1_PPNS_10ExpressionE
_ZN4wasm6WalkerINS_8AutoDropENS_7VisitorIS1_vEEE13doVisitReturnEPS1_PPNS_10ExpressionE
_ZN4wasm6WalkerINS_8AutoDropENS_7VisitorIS1_vEEE11doVisitHostEPS1_PPNS_10ExpressionE
_ZN4wasm6WalkerINS_8AutoDropENS_7VisitorIS1_vEEE10doVisitNopEPS1_PPNS_10ExpressionE
_ZN4wasm6WalkerINS_8AutoDropENS_7VisitorIS1_vEEE18doVisitUnreachableEPS1_PPNS_10ExpressionE
_ZN4wasm4PassD2Ev
_ZTVN4wasm4PassE
_ZN4wasm4PassD1Ev
_ZN4wasm4PassD0Ev
_ZN4wasm10WalkerPassINS_10PostWalkerINS_10ReFinalizeENS_17OverriddenVisitorIS2_vEEEEED2Ev
_ZTVN4wasm10WalkerPassINS_10PostWalkerINS_10ReFinalizeENS_17OverriddenVisitorIS2_vEEEEEE
_ZN4wasm10WalkerPassINS_10PostWalkerINS_10ReFinalizeENS_17OverriddenVisitorIS2_vEEEEED1Ev
_ZN4wasm10WalkerPassINS_21ExpressionStackWalkerINS_8AutoDropENS_7VisitorIS2_vEEEEED2Ev
_ZTVN4wasm10WalkerPassINS_21ExpressionStackWalkerINS_8AutoDropENS_7VisitorIS2_vEEEEEE
_ZN4wasm10WalkerPassINS_21ExpressionStackWalkerINS_8AutoDropENS_7VisitorIS2_vEEEEED1Ev
_ZN4wasm6WalkerINS_10ReFinalizeENS_17OverriddenVisitorIS1_vEEE13doVisitBinaryEPS1_PPNS_10ExpressionE
_ZN4wasm6Binary8finalizeEv
_ZN4wasm6WalkerINS_10ReFinalizeENS_17OverriddenVisitorIS1_vEEE12doVisitUnaryEPS1_PPNS_10ExpressionE
_ZN4wasm5Unary8finalizeEv
_ZN4wasm6WalkerINS_10ReFinalizeENS_17OverriddenVisitorIS1_vEEE9doVisitIfEPS1_PPNS_10ExpressionE
_ZN4wasm2If8finalizeEv
_ZN4wasm6WalkerINS_10ReFinalizeENS_17OverriddenVisitorIS1_vEEE11doVisitLoopEPS1_PPNS_10ExpressionE
_ZN4wasm4Loop8finalizeEv
_ZN4wasm6WalkerINS_10ReFinalizeENS_17OverriddenVisitorIS1_vEEE15doVisitSetLocalEPS1_PPNS_10ExpressionE
_ZN4wasm8SetLocal8finalizeEv
_ZN4wasm6WalkerINS_10ReFinalizeENS_17OverriddenVisitorIS1_vEEE11doVisitCallEPS1_PPNS_10ExpressionE
_ZN4wasm4Call8finalizeEv
_ZN4wasm6WalkerINS_10ReFinalizeENS_17OverriddenVisitorIS1_vEEE17doVisitCallImportEPS1_PPNS_10ExpressionE
_ZN4wasm10CallImport8finalizeEv
_ZN4wasm6WalkerINS_10ReFinalizeENS_17OverriddenVisitorIS1_vEEE19doVisitCallIndirectEPS1_PPNS_10ExpressionE
_ZN4wasm12CallIndirect8finalizeEv
_ZN4wasm6WalkerINS_10ReFinalizeENS_17OverriddenVisitorIS1_vEEE16doVisitSetGlobalEPS1_PPNS_10ExpressionE
_ZN4wasm9SetGlobal8finalizeEv
_ZN4wasm6WalkerINS_10ReFinalizeENS_17OverriddenVisitorIS1_vEEE11doVisitLoadEPS1_PPNS_10ExpressionE
_ZN4wasm4Load8finalizeEv
_ZN4wasm6WalkerINS_10ReFinalizeENS_17OverriddenVisitorIS1_vEEE12doVisitStoreEPS1_PPNS_10ExpressionE
_ZN4wasm5Store8finalizeEv
_ZN4wasm6WalkerINS_10ReFinalizeENS_17OverriddenVisitorIS1_vEEE16doVisitAtomicRMWEPS1_PPNS_10ExpressionE
_ZN4wasm9AtomicRMW8finalizeEv
_ZN4wasm6WalkerINS_10ReFinalizeENS_17OverriddenVisitorIS1_vEEE20doVisitAtomicCmpxchgEPS1_PPNS_10ExpressionE
_ZN4wasm13AtomicCmpxchg8finalizeEv
_ZN4wasm6WalkerINS_10ReFinalizeENS_17OverriddenVisitorIS1_vEEE17doVisitAtomicWaitEPS1_PPNS_10ExpressionE
_ZN4wasm10AtomicWait8finalizeEv
_ZN4wasm6WalkerINS_10ReFinalizeENS_17OverriddenVisitorIS1_vEEE17doVisitAtomicWakeEPS1_PPNS_10ExpressionE
_ZN4wasm10AtomicWake8finalizeEv
_ZN4wasm6WalkerINS_10ReFinalizeENS_17OverriddenVisitorIS1_vEEE12doVisitConstEPS1_PPNS_10ExpressionE
_ZN4wasm5Const8finalizeEv
_ZN4wasm6WalkerINS_10ReFinalizeENS_17OverriddenVisitorIS1_vEEE13doVisitSelectEPS1_PPNS_10ExpressionE
_ZN4wasm6Select8finalizeEv
_ZN4wasm6WalkerINS_10ReFinalizeENS_17OverriddenVisitorIS1_vEEE11doVisitDropEPS1_PPNS_10ExpressionE
_ZN4wasm4Drop8finalizeEv
_ZN4wasm6WalkerINS_10ReFinalizeENS_17OverriddenVisitorIS1_vEEE11doVisitHostEPS1_PPNS_10ExpressionE
_ZN4wasm4Host8finalizeEv
_ZN4wasm22ShellExternalInterface4trapEPKc
_ZSt4cerr
_ZSt16__ostream_insertIcSt11char_traitsIcEERSt13basic_ostreamIT_T0_ES6_PKS3_l
_ZStlsISt11char_traitsIcEERSt13basic_ostreamIcT_ES5_PKc
__cxa_allocate_exception
_ZTIN4wasm13TrapExceptionE
__cxa_throw
stderr
__fprintf_chk
_ZN4wasm6WalkerINS_10ReFinalizeENS_17OverriddenVisitorIS1_vEEE12doVisitBlockEPS1_PPNS_10ExpressionE
_ZN4wasm18isConcreteWasmTypeENS_8WasmTypeE
_ZN4wasm8AutoDropD2Ev
_ZN4wasm8AutoDropD1Ev
_ZN4wasm10WalkerPassINS_21ExpressionStackWalkerINS_8AutoDropENS_7VisitorIS2_vEEEEED0Ev
_ZN4wasm8AutoDropD0Ev
_ZN4wasm10WalkerPassINS_10PostWalkerINS_10ReFinalizeENS_17OverriddenVisitorIS2_vEEEEED0Ev
_ZN4wasm22ShellExternalInterface10callImportEPNS_6ImportERSt6vectorINS_7LiteralESaIS4_EE
_ZN4wasm8SPECTESTE
_ZN4wasm4EXITE
_ZN4wasm5PRINTE
_ZSt4cout
_ZN4wasmlsERSoNS_7LiteralE
_ZNSt9basic_iosIcSt11char_traitsIcEE5clearESt12_Ios_Iostate
_ZTIN4wasm13ExitExceptionE
_ZN4wasm22ShellExternalInterface6store8ENS_7AddressEa
_ZN4wasm22ShellExternalInterface6load8sENS_7AddressE
_ZN4wasm22ShellExternalInterface6load8uENS_7AddressE
_ZN4wasm22ShellExternalInterface7load16sENS_7AddressE
_ZN4wasm22ShellExternalInterface7load16uENS_7AddressE
_ZN4wasm22ShellExternalInterface7load32sENS_7AddressE
_ZN4wasm22ShellExternalInterface7load32uENS_7AddressE
_ZN4wasm22ShellExternalInterface7load64sENS_7AddressE
_ZN4wasm22ShellExternalInterface7load64uENS_7AddressE
_ZN4wasm22ShellExternalInterface7store16ENS_7AddressEs
_ZN4wasm22ShellExternalInterface7store32ENS_7AddressEi
_ZN4wasm22ShellExternalInterface7store64ENS_7AddressEl
_ZN4wasm21ExpressionStackWalkerINS_8AutoDropENS_7VisitorIS1_vEEE11doPostVisitEPS1_PPNS_10ExpressionE
_ZN4wasm18ModuleInstanceBaseISt3mapINS_4NameENS_7LiteralESt4lessIS2_ESaISt4pairIKS2_S3_EEENS_14ModuleInstanceEE17ExternalInterface5storeEPNS_5StoreENS_7AddressES3_
_ZN4wasm18ModuleInstanceBaseISt3mapINS_4NameENS_7LiteralESt4lessIS2_ESaISt4pairIKS2_S3_EEENS_14ModuleInstanceEE17ExternalInterface4loadEPNS_4LoadENS_7AddressE
_ZN4wasm7Literal9castToF32Ev
_ZN4wasm7Literal9castToF64Ev
_ZN4wasmlsERSoNS_4NameE
_ZN6cashew9JSPrinter6ensureEi
_ZN6cashew9JSPrinter4emitEc
_ZN6cashew11isIdentPartEc
_ZN6cashew9JSPrinter4emitEPKc
strncpy
_ZN6cashew9JSPrinter11numToStringEdb
fmod
_ZZN6cashew9JSPrinter11numToStringEdbE9storage_f
_ZN4wasm12isUInteger64Ed
__snprintf_chk
sscanf
strchr
_ZZN6cashew9JSPrinter11numToStringEdbE9storage_e
_ZZN6cashew9JSPrinter11numToStringEdbE6format
_ZN4wasm12toUInteger64Ed
_ZN6cashew9JSPrinter11printObjectENS_3RefE
_ZN6cashew3RefixEj
isalnum
_ZN6cashew9JSPrinter5printENS_3RefE
_ZN6cashew5Value8asAssignEv
_ZN6cashew9JSPrinter10printChildENS_3RefES1_i
_ZN6cashew5Value12asAssignNameEv
_ZN6cashew5WHILEE
_ZN6cashew4CALLE
_ZN6cashew11CONDITIONALE
_ZN6cashew8CONTINUEE
_ZN6cashew3RefntEv
_ZN6cashew6OBJECTE
_ZN6cashew3SUBE
_ZN6cashew3SEQE
_ZN6cashew6SWITCHE
_ZN6cashew6STRINGE
_ZN6cashew5ARRAYE
_ZN6cashew5DEFUNE
_ZN6cashew2DOE
_ZN6cashew3DOTE
_ZN6cashew5LABELE
_ZN6cashew3NEWE
_ZN6cashew6BINARYE
_ZN6cashew5BLOCKE
_ZN6cashew5BREAKE
_ZN6cashew8TOPLEVELE
_ZN6cashew3TRYE
_ZN6cashew9JSPrinter10printBlockENS_3RefE
_ZN6cashew2IFE
_ZN6cashew9JSPrinter7printIfENS_3RefE
_ZN6cashew6RETURNE
_ZN6cashew12UNARY_PREFIXE
_ZN6cashew9JSPrinter16printUnaryPrefixENS_3RefE
_ZN6cashew3VARE
_ZN6cashew9JSPrinter8printVarENS_3RefE
_ZN6cashew9JSPrinter9printCallENS_3RefE
_ZN6cashew9JSPrinter10printStatsENS_3RefE
_ZN6cashew9JSPrinter10printDefunENS_3RefE
_ZN6cashew9JSPrinter16printConditionalENS_3RefE
_ZN6cashew9JSPrinter11printSwitchENS_3RefE
_ZN6cashew3RefeqERKNS_7IStringE
_ZN6cashew13OperatorClass13getPrecedenceENS0_4TypeENS_7IStringE
_ZN6cashew13OperatorClass6getRtlEi
_ZN6cashew8QUESTIONE
_ZN6cashew3SETE
_ZN6cashew5COMMAE
_ZN6cashew4PLUSE
_ZN6cashew5MINUSE
_ZN6cashew3RefeqES0_
_ZN4wasm14ParseException4dumpERSo
_ZN6Colors15outputColorCodeERSoPKc
_ZNSo9_M_insertImEERSoT_
_ZN4wasm15Wasm2AsmBuilder16scanFunctionBodyEPNS_10ExpressionE
_Z17toBinaryenLiteralN4wasm7LiteralE
_Z19fromBinaryenLiteral15BinaryenLiteral
_Z15traceNameOrNULLPKc
BinaryenNone
BinaryenInt32
BinaryenInt64
BinaryenFloat32
BinaryenFloat64
BinaryenUndefined
BinaryenInvalidId
BinaryenBlockId
BinaryenIfId
BinaryenLoopId
BinaryenBreakId
BinaryenSwitchId
BinaryenCallId
BinaryenCallImportId
BinaryenCallIndirectId
BinaryenGetLocalId
BinaryenSetLocalId
BinaryenGetGlobalId
BinaryenSetGlobalId
BinaryenLoadId
BinaryenStoreId
BinaryenConstId
BinaryenUnaryId
BinaryenBinaryId
BinaryenSelectId
BinaryenDropId
BinaryenReturnId
BinaryenHostId
BinaryenNopId
BinaryenUnreachableId
BinaryenAtomicCmpxchgId
BinaryenAtomicRMWId
BinaryenAtomicWaitId
BinaryenAtomicWakeId
BinaryenLiteralInt32
BinaryenLiteralInt64
BinaryenLiteralFloat32
BinaryenLiteralFloat64
BinaryenLiteralFloat32Bits
BinaryenLiteralFloat64Bits
BinaryenClzInt32
BinaryenCtzInt32
BinaryenPopcntInt32
BinaryenNegFloat32
BinaryenAbsFloat32
BinaryenCeilFloat32
BinaryenFloorFloat32
BinaryenTruncFloat32
BinaryenNearestFloat32
BinaryenSqrtFloat32
BinaryenEqZInt32
BinaryenClzInt64
BinaryenCtzInt64
BinaryenPopcntInt64
BinaryenNegFloat64
BinaryenAbsFloat64
BinaryenCeilFloat64
BinaryenFloorFloat64
BinaryenTruncFloat64
BinaryenNearestFloat64
BinaryenSqrtFloat64
BinaryenEqZInt64
BinaryenExtendSInt32
BinaryenExtendUInt32
BinaryenWrapInt64
BinaryenTruncSFloat32ToInt32
BinaryenTruncSFloat32ToInt64
BinaryenTruncUFloat32ToInt32
BinaryenTruncUFloat32ToInt64
BinaryenTruncSFloat64ToInt32
BinaryenTruncSFloat64ToInt64
BinaryenTruncUFloat64ToInt32
BinaryenTruncUFloat64ToInt64
BinaryenReinterpretFloat32
BinaryenReinterpretFloat64
BinaryenConvertSInt32ToFloat32
BinaryenConvertSInt32ToFloat64
BinaryenConvertUInt32ToFloat32
BinaryenConvertUInt32ToFloat64
BinaryenConvertSInt64ToFloat32
BinaryenConvertSInt64ToFloat64
BinaryenConvertUInt64ToFloat32
BinaryenConvertUInt64ToFloat64
BinaryenPromoteFloat32
BinaryenDemoteFloat64
BinaryenReinterpretInt32
BinaryenReinterpretInt64
BinaryenAddInt32
BinaryenSubInt32
BinaryenMulInt32
BinaryenDivSInt32
BinaryenDivUInt32
BinaryenRemSInt32
BinaryenRemUInt32
BinaryenAndInt32
BinaryenOrInt32
BinaryenXorInt32
BinaryenShlInt32
BinaryenShrUInt32
BinaryenShrSInt32
BinaryenRotLInt32
BinaryenRotRInt32
BinaryenEqInt32
BinaryenNeInt32
BinaryenLtSInt32
BinaryenLtUInt32
BinaryenLeSInt32
BinaryenLeUInt32
BinaryenGtSInt32
BinaryenGtUInt32
BinaryenGeSInt32
BinaryenGeUInt32
BinaryenAddInt64
BinaryenSubInt64
BinaryenMulInt64
BinaryenDivSInt64
BinaryenDivUInt64
BinaryenRemSInt64
BinaryenRemUInt64
BinaryenAndInt64
BinaryenOrInt64
BinaryenXorInt64
BinaryenShlInt64
BinaryenShrUInt64
BinaryenShrSInt64
BinaryenRotLInt64
BinaryenRotRInt64
BinaryenEqInt64
BinaryenNeInt64
BinaryenLtSInt64
BinaryenLtUInt64
BinaryenLeSInt64
BinaryenLeUInt64
BinaryenGtSInt64
BinaryenGtUInt64
BinaryenGeSInt64
BinaryenGeUInt64
BinaryenAddFloat32
BinaryenSubFloat32
BinaryenMulFloat32
BinaryenDivFloat32
BinaryenCopySignFloat32
BinaryenMinFloat32
BinaryenMaxFloat32
BinaryenEqFloat32
BinaryenNeFloat32
BinaryenLtFloat32
BinaryenLeFloat32
BinaryenGtFloat32
BinaryenGeFloat32
BinaryenAddFloat64
BinaryenSubFloat64
BinaryenMulFloat64
BinaryenDivFloat64
BinaryenCopySignFloat64
BinaryenMinFloat64
BinaryenMaxFloat64
BinaryenEqFloat64
BinaryenNeFloat64
BinaryenLtFloat64
BinaryenLeFloat64
BinaryenGtFloat64
BinaryenGeFloat64
BinaryenPageSize
BinaryenCurrentMemory
BinaryenGrowMemory
BinaryenHasFeature
BinaryenAtomicRMWAdd
BinaryenAtomicRMWSub
BinaryenAtomicRMWAnd
BinaryenAtomicRMWOr
BinaryenAtomicRMWXor
BinaryenAtomicRMWXchg
BinaryenModulePrint
_ZTVN4wasm7PrinterE
_ZN4wasm10PassRunner5doAddEPNS_4PassE
_ZN4wasm10PassRunner3runEv
_ZN4wasm10PassRunnerD1Ev
BinaryenModuleValidate
_ZN4wasm13WasmValidator8validateERNS_6ModuleEjj
BinaryenModuleOptimize
_ZN4wasm10PassRunner28addDefaultOptimizationPassesEv
RelooperCreate
_ZN3CFG8RelooperC1Ev
BinaryenSetAPITracing
_ZNSt6vectorIN4wasm5Table7SegmentESaIS2_EED2Ev
_ZNSt6vectorIN4wasm5Table7SegmentESaIS2_EED1Ev
_ZNSt10_HashtableIN4wasm4NameESt4pairIKS1_jESaIS4_ENSt8__detail10_Select1stESt8equal_toIS1_ESt4hashIS1_ENS6_18_Mod_range_hashingENS6_20_Default_ranged_hashENS6_20_Prime_rehash_policyENS6_17_Hashtable_traitsILb1ELb0ELb1EEEED2Ev
_ZNSt10_HashtableIN4wasm4NameESt4pairIKS1_jESaIS4_ENSt8__detail10_Select1stESt8equal_toIS1_ESt4hashIS1_ENS6_18_Mod_range_hashingENS6_20_Default_ranged_hashENS6_20_Prime_rehash_policyENS6_17_Hashtable_traitsILb1ELb0ELb1EEEED1Ev
_ZNSt10_HashtableIN4wasm4NameES1_SaIS1_ENSt8__detail9_IdentityESt8equal_toIS1_ESt4hashIS1_ENS3_18_Mod_range_hashingENS3_20_Default_ranged_hashENS3_20_Prime_rehash_policyENS3_17_Hashtable_traitsILb1ELb1ELb1EEEED2Ev
_ZNSt10_HashtableIN4wasm4NameES1_SaIS1_ENSt8__detail9_IdentityESt8equal_toIS1_ESt4hashIS1_ENS3_18_Mod_range_hashingENS3_20_Default_ranged_hashENS3_20_Prime_rehash_policyENS3_17_Hashtable_traitsILb1ELb1ELb1EEEED1Ev
_ZNSt10_HashtableINSt7__cxx1112basic_stringIcSt11char_traitsIcESaIcEEESt4pairIKS5_jESaIS8_ENSt8__detail10_Select1stESt8equal_toIS5_ESt4hashIS5_ENSA_18_Mod_range_hashingENSA_20_Default_ranged_hashENSA_20_Prime_rehash_policyENSA_17_Hashtable_traitsILb1ELb0ELb1EEEED2Ev
_ZNSt10_HashtableINSt7__cxx1112basic_stringIcSt11char_traitsIcESaIcEEESt4pairIKS5_jESaIS8_ENSt8__detail10_Select1stESt8equal_toIS5_ESt4hashIS5_ENSA_18_Mod_range_hashingENSA_20_Default_ranged_hashENSA_20_Prime_rehash_policyENSA_17_Hashtable_traitsILb1ELb0ELb1EEEED1Ev
_ZNSt6vectorIN4wasm7LiteralESaIS1_EEixEm
_ZZN4wasm18ModuleInstanceBaseISt3mapINS_4NameENS_7LiteralESt4lessIS2_ESaISt4pairIKS2_S3_EEENS_14ModuleInstanceEE20callFunctionInternalES2_RSt6vectorIS3_SaIS3_EEEN13FunctionScopeC2EPNS_8FunctionESG_
_ZN4wasm8Function12getNumLocalsEv
_ZN4wasm8Function7isParamEj
_ZN4wasm8Function5isVarEj
_ZN4wasm8Function12getLocalTypeEj
_ZN4wasm13printWasmTypeENS_8WasmTypeE
_ZSt4endlIcSt11char_traitsIcEERSt13basic_ostreamIT_T0_ES6_
_ZZN4wasm18ModuleInstanceBaseISt3mapINS_4NameENS_7LiteralESt4lessIS2_ESaISt4pairIKS2_S3_EEENS_14ModuleInstanceEE20callFunctionInternalES2_RSt6vectorIS3_SaIS3_EEEN13FunctionScopeC1EPNS_8FunctionESG_
_ZNSt6vectorIN4wasm8WasmTypeESaIS1_EEaSERKS3_
_ZN4wasm22ShellExternalInterface10growMemoryENS_7AddressES1_
_ZNSt8_Rb_treeIjSt4pairIKjN4wasm4NameEESt10_Select1stIS4_ESt4lessIjESaIS4_EE8_M_eraseEPSt13_Rb_tree_nodeIS4_E
_ZNSt8_Rb_treeIN4wasm4NameESt4pairIKS1_jESt10_Select1stIS4_ESt4lessIS1_ESaIS4_EE8_M_eraseEPSt13_Rb_tree_nodeIS4_E
_ZNSt10unique_ptrIN4wasm8FunctionESt14default_deleteIS1_EED2Ev
_ZNSt10unique_ptrIN4wasm8FunctionESt14default_deleteIS1_EED1Ev
_ZNSt6vectorISt10unique_ptrIN4wasm8FunctionESt14default_deleteIS2_EESaIS5_EED2Ev
_ZNSt6vectorISt10unique_ptrIN4wasm8FunctionESt14default_deleteIS2_EESaIS5_EED1Ev
_ZNSt8_Rb_treeIN4wasm4NameESt4pairIKS1_PNS0_12FunctionTypeEESt10_Select1stIS6_ESt4lessIS1_ESaIS6_EE8_M_eraseEPSt13_Rb_tree_nodeIS6_E
_ZNSt8_Rb_treeIN4wasm4NameESt4pairIKS1_PNS0_6ImportEESt10_Select1stIS6_ESt4lessIS1_ESaIS6_EE8_M_eraseEPSt13_Rb_tree_nodeIS6_E
_ZNSt8_Rb_treeIN4wasm4NameESt4pairIKS1_PNS0_6ExportEESt10_Select1stIS6_ESt4lessIS1_ESaIS6_EE8_M_eraseEPSt13_Rb_tree_nodeIS6_E
_ZNSt8_Rb_treeIN4wasm4NameESt4pairIKS1_PNS0_8FunctionEESt10_Select1stIS6_ESt4lessIS1_ESaIS6_EE8_M_eraseEPSt13_Rb_tree_nodeIS6_E
_ZNSt8_Rb_treeIN4wasm4NameESt4pairIKS1_PNS0_6GlobalEESt10_Select1stIS6_ESt4lessIS1_ESaIS6_EE8_M_eraseEPSt13_Rb_tree_nodeIS6_E
_ZNSt6vectorIN6cashew7IStringESaIS1_EE17_M_realloc_insertIJRKS1_EEEvN9__gnu_cxx17__normal_iteratorIPS1_S3_EEDpOT_
_ZNSt6vectorIN4wasm8WasmTypeESaIS1_EE17_M_realloc_insertIJRKS1_EEEvN9__gnu_cxx17__normal_iteratorIPS1_S3_EEDpOT_
_ZNSt6vectorIN4wasm8WasmTypeESaIS1_EE17_M_realloc_insertIJRS1_EEEvN9__gnu_cxx17__normal_iteratorIPS1_S3_EEDpOT_
_ZNSt6vectorIN4wasm4NameESaIS1_EE17_M_realloc_insertIJRKS1_EEEvN9__gnu_cxx17__normal_iteratorIPS1_S3_EEDpOT_
_ZNSt8_Rb_treeIN4wasm4NameESt4pairIKS1_St6vectorIS1_SaIS1_EEESt10_Select1stIS7_ESt4lessIS1_ESaIS7_EE8_M_eraseEPSt13_Rb_tree_nodeIS7_E
_ZNSt8_Rb_treeIN4wasm4NameESt4pairIKS1_S1_ESt10_Select1stIS4_ESt4lessIS1_ESaIS4_EE8_M_eraseEPSt13_Rb_tree_nodeIS4_E
_ZNSt8_Rb_treeIjSt4pairIKjmESt10_Select1stIS2_ESt4lessIjESaIS2_EE8_M_eraseEPSt13_Rb_tree_nodeIS2_E
_ZNSt8_Rb_treeIN4wasm8WasmTypeESt4pairIKS1_mESt10_Select1stIS4_ESt4lessIS1_ESaIS4_EE8_M_eraseEPSt13_Rb_tree_nodeIS4_E
BinaryenModuleWrite
_ZN4wasm16WasmBinaryWriter7prepareEv
_ZN4wasm16WasmBinaryWriter5writeEv
_ZNSt8_Rb_treeIN4wasm12BinaryConsts7SectionES2_St9_IdentityIS2_ESt4lessIS2_ESaIS2_EE8_M_eraseEPSt13_Rb_tree_nodeIS2_E
_ZNSt8_Rb_treeIjSt4pairIKjSt6vectorIPN4wasm4CallESaIS5_EEESt10_Select1stIS8_ESt4lessIjESaIS8_EE8_M_eraseEPSt13_Rb_tree_nodeIS8_E
_ZNSt8_Rb_treeIPN4wasm6ExportESt4pairIKS2_jESt10_Select1stIS5_ESt4lessIS2_ESaIS5_EE8_M_eraseEPSt13_Rb_tree_nodeIS5_E
_ZNSt8_Rb_treeIjSt4pairIKjSt6vectorIjSaIjEEESt10_Select1stIS5_ESt4lessIjESaIS5_EE8_M_eraseEPSt13_Rb_tree_nodeIS5_E
_ZN4wasm17WasmBinaryBuilderD2Ev
_ZN4wasm17WasmBinaryBuilderD1Ev
_ZNSt8_Rb_treeIN4wasm4NameESt4pairIKS1_NS0_7LiteralEESt10_Select1stIS5_ESt4lessIS1_ESaIS5_EE8_M_eraseEPSt13_Rb_tree_nodeIS5_E
_ZNSt8_Rb_treeIN4wasm4NameESt4pairIKS1_NS0_8WasmTypeEESt10_Select1stIS5_ESt4lessIS1_ESaIS5_EE8_M_eraseEPSt13_Rb_tree_nodeIS5_E
_ZN4wasm10ReFinalizeD2Ev
_ZTVN4wasm10ReFinalizeE
_ZN4wasm10ReFinalizeD1Ev
_ZN4wasm10ReFinalizeD0Ev
_ZNKSt8_Rb_treeIN4wasm4NameESt4pairIKS1_NS0_8WasmTypeEESt10_Select1stIS5_ESt4lessIS1_ESaIS5_EE4findERS3_
_ZNSt6vectorIPN4wasm10ExpressionESaIS2_EE17_M_realloc_insertIJRKS2_EEEvN9__gnu_cxx17__normal_iteratorIPS2_S4_EEDpOT_
_ZN4wasm21ExpressionStackWalkerINS_8AutoDropENS_7VisitorIS1_vEEE10doPreVisitEPS1_PPNS_10ExpressionE
_ZNSt8_Rb_treeIPN4wasm10ExpressionES2_St9_IdentityIS2_ESt4lessIS2_ESaIS2_EE8_M_eraseEPSt13_Rb_tree_nodeIS2_E
_ZNSt8_Rb_treeIPN4wasm10ExpressionES2_St9_IdentityIS2_ESt4lessIS2_ESaIS2_EE16_M_insert_uniqueIRKS2_EESt4pairISt17_Rb_tree_iteratorIS2_EbEOT_
_ZNSt8_Rb_treeIPN4wasm10ExpressionES2_St9_IdentityIS2_ESt4lessIS2_ESaIS2_EE4findERKS2_
_ZNSt8_Rb_treeINSt7__cxx1112basic_stringIcSt11char_traitsIcESaIcEEESt4pairIKS5_St6vectorIN6cashew7IStringESaISA_EEESt10_Select1stISD_ESt4lessIS5_ESaISD_EE8_M_eraseEPSt13_Rb_tree_nodeISD_E
_ZNSt6vectorIS_IN6cashew7IStringESaIS1_EESaIS3_EE17_M_default_appendEm
_ZNSt8_Rb_treeIN4wasm4NameESt4pairIKS1_N6cashew7IStringEESt10_Select1stIS6_ESt4lessIS1_ESaIS6_EE8_M_eraseEPSt13_Rb_tree_nodeIS6_E
_ZNSt8_Rb_treeIPvSt4pairIKS0_mESt10_Select1stIS3_ESt4lessIS0_ESaIS3_EE8_M_eraseEPSt13_Rb_tree_nodeIS3_E
_ZNSt3mapIPvmSt4lessIS0_ESaISt4pairIKS0_mEEED2Ev
_ZNSt3mapIPvmSt4lessIS0_ESaISt4pairIKS0_mEEED1Ev
BinaryenModuleDispose
functionTypes
expressions
functions
relooperBlocks
BinaryenGetFunctionTypeBySignature
_ZN4wasm12FunctionType20structuralComparisonERS0_
_ZNSt6vectorIN4wasm5Table7SegmentESaIS2_EE17_M_realloc_insertIJRKS2_EEEvN9__gnu_cxx17__normal_iteratorIPS2_S4_EEDpOT_
_ZNSt6vectorIN4wasm6Memory7SegmentESaIS2_EE17_M_realloc_insertIJPNS0_10ExpressionERPKcRjEEEvN9__gnu_cxx17__normal_iteratorIPS2_S4_EEDpOT_
_ZNSt6vectorIjSaIjEE17_M_realloc_insertIJRKjEEEvN9__gnu_cxx17__normal_iteratorIPjS1_EEDpOT_
_ZN6cashew12ValueBuilder13makeRawStringERKNS_7IStringE
_ZN6cashew5arenaE
_ZN6cashew12ValueBuilder10makeDoubleEd
_ZN6cashew12ValueBuilder12makeRawArrayEi
_ZN4wasm8AutoDrop9maybeDropERPNS_10ExpressionE
_ZN4wasm18ExpressionAnalyzer12isResultUsedESt6vectorIPNS_10ExpressionESaIS3_EEPNS_8FunctionE
_ZN4wasm18ExpressionAnalyzer15isResultDroppedESt6vectorIPNS_10ExpressionESaIS3_EE
_ZN4wasm6WalkerINS_8AutoDropENS_7VisitorIS1_vEEE9doVisitIfEPS1_PPNS_10ExpressionE
_ZN4wasm5Block8finalizeEv
_ZN4wasm6Switch8finalizeEv
_ZN4wasm5Break8finalizeEv
_ZN4wasm6WalkerINS_8AutoDropENS_7VisitorIS1_vEEE12doVisitBlockEPS1_PPNS_10ExpressionE
_ZN6cashew5Value9push_backENS_3RefE
_ZN4wasm7Builder8blockifyEPNS_10ExpressionES2_
_ZN6cashew12ValueBuilder11appendToVarENS_3RefENS_7IStringES1_
_ZN6cashew12ValueBuilder8makeCallIJNS_3RefEEEES2_NS_7IStringEDpT_
_ZN6cashew12ValueBuilder12makeFunctionENS_7IStringE
_ZN4wasm5BLOCKE
_ZN6cashew12ValueBuilder10makeBinaryENS_3RefENS_7IStringES1_
_ZN6cashew5Value13setAssignNameENS_7IStringENS_3RefE
_ZN6cashew5Value9setAssignENS_3RefES1_
_ZN6cashew12ValueBuilder12makePtrShiftENS_3RefEi
_ZN6cashew6RSHIFTE
_ZN6cashew12ValueBuilder8makeCallIJNS_3RefES2_EEES2_NS_7IStringEDpT_
_ZN6cashew12ValueBuilder24appendArgumentToFunctionENS_3RefENS_7IStringE
_ZN6cashew12ValueBuilder9makeBreakENS_7IStringE
_ZN6cashew12ValueBuilder7makeDotENS_3RefENS_7IStringE
_ZN4wasm4CALLE
_ZN6cashew12ValueBuilder9makeUnaryENS_7IStringENS_3RefE
_ZN6cashew12ValueBuilder7makeVarEb
_ZN6cashew12ValueBuilder9makeBlockEv
_ZN4wasm13flattenAppendEN6cashew3RefES1_
_ZN6cashew12ValueBuilder18appendCodeToSwitchENS_3RefES1_b
_ZN6cashew12ValueBuilder7makeSubENS_3RefES1_
_ZN6cashew12ValueBuilder7makeSeqENS_3RefES1_
_ZN6cashew12ValueBuilder8makeCallENS_7IStringE
_ZN6cashew11MATH_FROUNDE
_ZN6cashew12ValueBuilder6makeIfENS_3RefES1_S1_
_ZN4wasm15Wasm2AsmBuilder9addBasicsEN6cashew3RefE
_ZN6cashew5HEAP8E
_ZN6cashew6HEAP16E
_ZN6cashew6HEAP32E
_ZN6cashew6HEAPU8E
_ZN6cashew7HEAPU16E
_ZN6cashew7HEAPU32E
_ZN6cashew7HEAPF32E
_ZN6cashew7HEAPF64E
_ZN6cashew12ValueBuilder10makeReturnENS_3RefE
_ZNSt6vectorIN4wasm7LiteralESaIS1_EE17_M_realloc_insertIJRKS1_EEEvN9__gnu_cxx17__normal_iteratorIPS1_S3_EEDpOT_
_ZNSt8_Rb_treeIPvSt4pairIKS0_mESt10_Select1stIS3_ESt4lessIS0_ESaIS3_EE14_M_insert_nodeEPSt18_Rb_tree_node_baseSB_PSt13_Rb_tree_nodeIS3_E
_ZNSt7__cxx1112basic_stringIcSt11char_traitsIcESaIcEE10_M_replaceEmmPKcm
_ZN4wasm8AutoDrop6createEv
_ZTVN4wasm8AutoDropE
BinaryenModuleAutoDrop
_ZN4wasm10ReFinalize6createEv
_ZN4wasm18ModuleInstanceBaseISt3mapINS_4NameENS_7LiteralESt4lessIS2_ESaISt4pairIKS2_S3_EEENS_14ModuleInstanceEE8trapIfGtEmmPKc
_ZNSt8ios_baseC2Ev
_ZTVSt9basic_iosIcSt11char_traitsIcEE
_ZTTNSt7__cxx1118basic_stringstreamIcSt11char_traitsIcESaIcEEE
_ZNSt9basic_iosIcSt11char_traitsIcEE4initEPSt15basic_streambufIcS1_E
_ZTVNSt7__cxx1118basic_stringstreamIcSt11char_traitsIcESaIcEEE
_ZTVSt15basic_streambufIcSt11char_traitsIcEE
_ZNSt6localeC1Ev
_ZTVNSt7__cxx1115basic_stringbufIcSt11char_traitsIcESaIcEEE
_ZNSt6localeD1Ev
_ZNSt8ios_baseD2Ev
_ZNSt7__cxx1118basic_stringstreamIcSt11char_traitsIcESaIcEED1Ev
_ZN4wasm18ModuleInstanceBaseISt3mapINS_4NameENS_7LiteralESt4lessIS2_ESaISt4pairIKS2_S3_EEENS_14ModuleInstanceEE12doAtomicLoadENS_7AddressEjNS_8WasmTypeE
_ZNSt7__cxx1112basic_stringIcSt11char_traitsIcESaIcEE12_M_constructIPcEEvT_S7_St20forward_iterator_tag
_ZN4wasm10PassRunner3addENSt7__cxx1112basic_stringIcSt11char_traitsIcESaIcEEE
_ZN4wasm12PassRegistry3getEv
_ZN4wasm12PassRegistry10createPassENSt7__cxx1112basic_stringIcSt11char_traitsIcESaIcEEE
_ZN9__gnu_cxx12__to_xstringINSt7__cxx1112basic_stringIcSt11char_traitsIcESaIcEEEcEET_PFiPT0_mPKS8_P13__va_list_tagEmSB_z
_ZNSt8_Rb_treeIN4wasm4NameESt4pairIKS1_jESt10_Select1stIS4_ESt4lessIS1_ESaIS4_EE24_M_get_insert_unique_posERS3_
_ZNSt8_Rb_treeIN4wasm4NameESt4pairIKS1_jESt10_Select1stIS4_ESt4lessIS1_ESaIS4_EE29_M_get_insert_hint_unique_posESt23_Rb_tree_const_iteratorIS4_ERS3_
_ZNSt8_Rb_treeIN4wasm4NameESt4pairIKS1_jESt10_Select1stIS4_ESt4lessIS1_ESaIS4_EE22_M_emplace_hint_uniqueIJRKSt21piecewise_construct_tSt5tupleIJRS3_EESF_IJEEEEESt17_Rb_tree_iteratorIS4_ESt23_Rb_tree_const_iteratorIS4_EDpOT_
_ZNSt8_Rb_treeIjSt4pairIKjN4wasm4NameEESt10_Select1stIS4_ESt4lessIjESaIS4_EE24_M_get_insert_unique_posERS1_
_ZNSt8_Rb_treeIjSt4pairIKjN4wasm4NameEESt10_Select1stIS4_ESt4lessIjESaIS4_EE29_M_get_insert_hint_unique_posESt23_Rb_tree_const_iteratorIS4_ERS1_
_ZNSt8_Rb_treeIjSt4pairIKjN4wasm4NameEESt10_Select1stIS4_ESt4lessIjESaIS4_EE22_M_emplace_hint_uniqueIJRKSt21piecewise_construct_tSt5tupleIJRS1_EESF_IJEEEEESt17_Rb_tree_iteratorIS4_ESt23_Rb_tree_const_iteratorIS4_EDpOT_
_ZN4wasm7Builder12makeFunctionENS_4NameEOSt6vectorINS_8NameTypeESaIS3_EENS_8WasmTypeES6_PNS_10ExpressionE
BinaryenModuleRunPasses
_ZNSt8_Rb_treeIN4wasm4NameESt4pairIKS1_NS0_8WasmTypeEESt10_Select1stIS5_ESt4lessIS1_ESaIS5_EE24_M_get_insert_unique_posERS3_
_ZNSt8_Rb_treeIN4wasm4NameESt4pairIKS1_NS0_8WasmTypeEESt10_Select1stIS5_ESt4lessIS1_ESaIS5_EE29_M_get_insert_hint_unique_posESt23_Rb_tree_const_iteratorIS5_ERS3_
_ZN4wasm6WalkerINS_10ReFinalizeENS_17OverriddenVisitorIS1_vEEE13doVisitSwitchEPS1_PPNS_10ExpressionE
_ZN4wasm6WalkerINS_10ReFinalizeENS_17OverriddenVisitorIS1_vEEE12doVisitBreakEPS1_PPNS_10ExpressionE
_ZNSt6vectorIN4wasm6WalkerINS0_8AutoDropENS0_7VisitorIS2_vEEE4TaskESaIS6_EE17_M_realloc_insertIJRPFvPS2_PPNS0_10ExpressionEERSD_EEEvN9__gnu_cxx17__normal_iteratorIPS6_S8_EEDpOT_
_ZNSt6vectorIN4wasm6WalkerINS0_8AutoDropENS0_7VisitorIS2_vEEE4TaskESaIS6_EE12emplace_backIJRPFvPS2_PPNS0_10ExpressionEERSD_EEEvDpOT_
_ZN4wasm6WalkerINS_8AutoDropENS_7VisitorIS1_vEEE8pushTaskEPFvPS1_PPNS_10ExpressionEES8_
_ZN4wasm10PostWalkerINS_8AutoDropENS_7VisitorIS1_vEEE4scanEPS1_PPNS_10ExpressionE
_ZN4wasm21ExpressionStackWalkerINS_8AutoDropENS_7VisitorIS1_vEEE4scanEPS1_PPNS_10ExpressionE
_ZNSt8_Rb_treeINSt7__cxx1112basic_stringIcSt11char_traitsIcESaIcEEESt4pairIKS5_St6vectorIN6cashew7IStringESaISA_EEESt10_Select1stISD_ESt4lessIS5_ESaISD_EE24_M_get_insert_unique_posERS7_
_ZNSt8_Rb_treeINSt7__cxx1112basic_stringIcSt11char_traitsIcESaIcEEESt4pairIKS5_St6vectorIN6cashew7IStringESaISA_EEESt10_Select1stISD_ESt4lessIS5_ESaISD_EE29_M_get_insert_hint_unique_posESt23_Rb_tree_const_iteratorISD_ERS7_
_ZNSt8_Rb_treeINSt7__cxx1112basic_stringIcSt11char_traitsIcESaIcEEESt4pairIKS5_St6vectorIN6cashew7IStringESaISA_EEESt10_Select1stISD_ESt4lessIS5_ESaISD_EE22_M_emplace_hint_uniqueIJRKSt21piecewise_construct_tSt5tupleIJRS7_EESO_IJEEEEESt17_Rb_tree_iteratorISD_ESt23_Rb_tree_const_iteratorISD_EDpOT_
_ZNSt8_Rb_treeIN4wasm4NameESt4pairIKS1_N6cashew7IStringEESt10_Select1stIS6_ESt4lessIS1_ESaIS6_EE24_M_get_insert_unique_posERS3_
_ZNSt8_Rb_treeIN4wasm4NameESt4pairIKS1_N6cashew7IStringEESt10_Select1stIS6_ESt4lessIS1_ESaIS6_EE29_M_get_insert_hint_unique_posESt23_Rb_tree_const_iteratorIS6_ERS3_
_ZNSt3mapIN4wasm4NameEN6cashew7IStringESt4lessIS1_ESaISt4pairIKS1_S3_EEEixERS7_
_ZNKSt10_HashtableIN4wasm4NameES1_SaIS1_ENSt8__detail9_IdentityESt8equal_toIS1_ESt4hashIS1_ENS3_18_Mod_range_hashingENS3_20_Default_ranged_hashENS3_20_Prime_rehash_policyENS3_17_Hashtable_traitsILb1ELb1ELb1EEEE19_M_find_before_nodeEmRKS1_m
_ZN4wasm16ExpressionRunnerINS_24ConstantExpressionRunnerISt3mapINS_4NameENS_7LiteralESt4lessIS3_ESaISt4pairIKS3_S4_EEEEEE11truncSFloatEPNS_5UnaryES4_
_ZNK4wasm7Literal8getFloatEv
_ZN4wasm18isInRangeI64TruncSEl
_ZN4wasm18isInRangeI64TruncSEi
_ZN4wasm18isInRangeI32TruncSEl
_ZN4wasm18isInRangeI32TruncSEi
_ZN4wasm16ExpressionRunnerINS_24ConstantExpressionRunnerISt3mapINS_4NameENS_7LiteralESt4lessIS3_ESaISt4pairIKS3_S4_EEEEEE11truncUFloatEPNS_5UnaryES4_
_ZN4wasm18isInRangeI64TruncUEl
_ZN4wasm18isInRangeI32TruncUEl
_ZN4wasm18isInRangeI64TruncUEi
_ZN4wasm18isInRangeI32TruncUEi
_ZNSt8_Rb_treeIN4wasm4NameESt4pairIKS1_NS0_7LiteralEESt10_Select1stIS5_ESt4lessIS1_ESaIS5_EE24_M_get_insert_unique_posERS3_
_ZNSt8_Rb_treeIN4wasm4NameESt4pairIKS1_NS0_7LiteralEESt10_Select1stIS5_ESt4lessIS1_ESaIS5_EE29_M_get_insert_hint_unique_posESt23_Rb_tree_const_iteratorIS5_ERS3_
_ZNSt8_Rb_treeIN4wasm4NameESt4pairIKS1_NS0_7LiteralEESt10_Select1stIS5_ESt4lessIS1_ESaIS5_EE22_M_emplace_hint_uniqueIJRKSt21piecewise_construct_tSt5tupleIJRS3_EESG_IJEEEEESt17_Rb_tree_iteratorIS5_ESt23_Rb_tree_const_iteratorIS5_EDpOT_
_ZNSt3mapIN4wasm4NameENS0_7LiteralESt4lessIS1_ESaISt4pairIKS1_S2_EEEixERS6_
_ZN4wasm22ShellExternalInterface13importGlobalsERSt3mapINS_4NameENS_7LiteralESt4lessIS2_ESaISt4pairIKS2_S3_EEERNS_6ModuleE
_ZN4wasm6MEMORYE
_ZNSt8_Rb_treeIPvSt4pairIKS0_mESt10_Select1stIS3_ESt4lessIS0_ESaIS3_EE24_M_get_insert_unique_posERS2_
_ZNSt8_Rb_treeIPvSt4pairIKS0_mESt10_Select1stIS3_ESt4lessIS0_ESaIS3_EE29_M_get_insert_hint_unique_posESt23_Rb_tree_const_iteratorIS3_ERS2_
_ZNSt8_Rb_treeIPvSt4pairIKS0_mESt10_Select1stIS3_ESt4lessIS0_ESaIS3_EE22_M_emplace_hint_uniqueIJRKSt21piecewise_construct_tSt5tupleIJRS2_EESE_IJEEEEESt17_Rb_tree_iteratorIS3_ESt23_Rb_tree_const_iteratorIS3_EDpOT_
_ZNSt3mapIPvmSt4lessIS0_ESaISt4pairIKS0_mEEEixERS4_
BinaryenExpressionPrint
_ZN4wasm11WasmPrinter15printExpressionEPNS_10ExpressionERSobb
RelooperAddBranch
_ZN3CFG5Block11AddBranchToEPS0_PN4wasm10ExpressionES4_
RelooperAddBranchForSwitch
_ZN3CFG5Block17AddSwitchBranchToEPS0_OSt6vectorIjSaIjEEPN4wasm10ExpressionE
_Z14noteExpressionPv
RelooperRenderAndDispose
_ZN3CFG8Relooper9CalculateEPNS_5BlockE
_ZN3CFG8Relooper6RenderERNS_15RelooperBuilderE
_ZN3CFG8RelooperD1Ev
BinaryenConst
_ZNSo9_M_insertIdEERSoT_
_ZNSolsEi
_ZNSo9_M_insertIlEERSoT_
BinaryenGetLocal
BinaryenBinary
BinaryenUnary
BinaryenIf
BinaryenSetLocal
_ZN4wasm8SetLocal6setTeeEb
BinaryenTeeLocal
BinaryenDrop
BinaryenUnreachable
BinaryenLoad
BinaryenStore
BinaryenSelect
BinaryenReturn
BinaryenNop
BinaryenAtomicRMW
BinaryenAtomicCmpxchg
BinaryenAtomicWait
BinaryenAtomicWake
BinaryenExpressionGetId
BinaryenExpressionGetType
BinaryenConstGetValueI64
BinaryenConstGetValueI64Low
BinaryenConstGetValueI32
BinaryenConstGetValueF64
BinaryenConstGetValueF32
BinaryenConstGetValueI64High
BinaryenSetStart
_ZN4wasm6Module8addStartERKNS_4NameE
BinaryenSetFunctionTable
_ZN4wasm5Const3setENS_7LiteralE
_ZNSt3mapIPvmSt4lessIS0_ESaISt4pairIKS0_mEEEixEOS0_
RelooperAddBlock
_ZN3CFG5BlockC1EPN4wasm10ExpressionES3_
_ZN3CFG8Relooper8AddBlockEPNS_5BlockEi
RelooperAddBlockWithSwitch
_ZNSt10_HashtableIPKcS1_SaIS1_ENSt8__detail9_IdentityEN6cashew7IString12CStringEqualENS6_11CStringHashENS3_18_Mod_range_hashingENS3_20_Default_ranged_hashENS3_20_Prime_rehash_policyENS3_17_Hashtable_traitsILb1ELb1ELb1EEEE9_M_rehashEmRKm
_ZNSt10_HashtableIPKcS1_SaIS1_ENSt8__detail9_IdentityEN6cashew7IString12CStringEqualENS6_11CStringHashENS3_18_Mod_range_hashingENS3_20_Default_ranged_hashENS3_20_Prime_rehash_policyENS3_17_Hashtable_traitsILb1ELb1ELb1EEEE9_M_insertIRKS1_NS3_10_AllocNodeISaINS3_10_Hash_nodeIS1_Lb1EEEEEEEESt4pairINS3_14_Node_iteratorIS1_Lb1ELb1EEEbEOT_RKT0_St17integral_constantIbLb1EEm
_ZN6cashew7IStringC2EPKcb
_ZN6cashew7IStringC1EPKcb
_ZN4wasm11makeRotFuncER10MixedArenaNS_8BinaryOpE
_ZN4wasm15Wasm2AsmBuilder15isAssertHandledERNS_7ElementE
_ZN4wasm7Element4listEv
_ZN4wasm7ElementixEj
_ZNK4wasm7Element3strEv
_ZN4wasm15Wasm2AsmBuilder25addWasmCompatibilityFuncsEPNS_6ModuleE
_ZN4wasm6Module11addFunctionEPNS_8FunctionE
BinaryenRemoveImport
_ZN4wasm6Module12removeImportENS_4NameE
BinaryenRemoveExport
_ZN4wasm6Module12removeExportENS_4NameE
_ZN4wasm4Name7fromIntEm
vsnprintf
BinaryenSetMemory
_ZN4wasm6Module9addExportEPNS_6ExportE
BinaryenGetGlobal
BinaryenAddExport
BinaryenSetGlobal
BinaryenAddGlobal
_ZN4wasm6Module9addGlobalEPNS_6GlobalE
BinaryenBreak
BinaryenAddImport
_ZN4wasm6Module9addImportEPNS_6ImportE
_ZN4wasm6ModuleC2Ev
_ZN4wasm6ModuleC1Ev
BinaryenModuleCreate
BinaryenModuleParse
_ZN4wasm17SExpressionParserC1EPc
_ZN4wasm22SExpressionWasmBuilderC1ERNS_6ModuleERNS_7ElementEPNS_4NameE
BinaryenModuleRead
_ZN4wasm17WasmBinaryBuilder4readEv
BinaryenLoop
BinaryenHost
_ZN4wasm15Wasm2AsmBuilder8fromNameENS_4NameE
_ZN4wasm15Wasm2AsmBuilder9addImportEN6cashew3RefEPNS_6ImportE
_ZN4wasm15Wasm2AsmBuilder9addTablesEN6cashew3RefEPNS_6ModuleE
_ZN4wasm6Module11getFunctionENS_4NameE
_ZN4wasm15Wasm2AsmBuilder10addExportsEN6cashew3RefEPNS_6ModuleE
BinaryenAddFunction
BinaryenCallImport
BinaryenCall
BinaryenCallIndirect
BinaryenSwitch
_ZN4wasm15Wasm2AsmBuilder7getTempENS_8WasmTypeEPNS_8FunctionE
_ZN4wasm17EXPRESSION_RESULTE
_ZN4wasm9NO_RESULTE
BinaryenAddFunctionType
BinaryenBlock
_ZN4wasm5Block8finalizeENS_8WasmTypeE
_ZNSt10_HashtableIN4wasm4NameES1_SaIS1_ENSt8__detail9_IdentityESt8equal_toIS1_ESt4hashIS1_ENS3_18_Mod_range_hashingENS3_20_Default_ranged_hashENS3_20_Prime_rehash_policyENS3_17_Hashtable_traitsILb1ELb1ELb1EEEE9_M_rehashEmRKm
_ZN6cashew3ANDE
_ZN4wasm10ABORT_FUNCE
_Z15makeAsmCoercionN6cashew3RefE7AsmType
_ZN4wasm8Function21getLocalNameOrGenericEj
_ZN4wasm8Function13getLocalIndexENS_4NameE
_Z11makeSigningN6cashew3RefE7AsmSign
_ZN6cashew2GEE
_ZN6cashew2GTE
_ZN6cashew2LEE
_ZN6cashew2LTE
_ZN6cashew2NEE
_ZN6cashew2EQE
_ZN6cashew7TRSHIFTE
_ZN6cashew6LSHIFTE
_ZN6cashew3XORE
_ZN6cashew2ORE
_ZN6cashew3MODE
_ZN6cashew3DIVE
_ZN6cashew3MULE
_ZN4wasm15Wasm2AsmBuilder19processFunctionBodyEPNS_8FunctionEN6cashew7IStringE
_ZN4wasm15Wasm2AsmBuilder15processFunctionEPNS_8FunctionE
_ZN4wasm8Function12getNumParamsEv
_ZN4wasm8Function15getVarIndexBaseEv
_Z18makeAsmCoercedZero7AsmType
_ZN4wasm15Wasm2AsmBuilder11processWasmEPNS_6ModuleE
_ZN4wasm8ASM_FUNCE
BinaryenModulePrintAsmjs
_ZN4wasm15Wasm2AsmBuilder20makeAssertReturnFuncERNS_22SExpressionWasmBuilderERNS_7BuilderERNS_7ElementENS_4NameE
_ZN4wasm22SExpressionWasmBuilder15parseExpressionERNS_7ElementE
_ZN4wasm15Wasm2AsmBuilder18makeAssertTrapFuncERNS_22SExpressionWasmBuilderERNS_7BuilderERNS_7ElementENS_4NameE
_ZN4wasm15Wasm2AsmBuilder14processAssertsERNS_7ElementERNS_22SExpressionWasmBuilderE
_ZN4wasm7Element9setStringEN6cashew7IStringEbb
_ZNSt7__cxx1118basic_stringstreamIcSt11char_traitsIcESaIcEEC1ESt13_Ios_Openmode
_ZN6cashew5L_NOTE
_ZN4wasmlsERSoRNS_7ElementE
_ZNSt6vectorIPN4wasm5BlockESaIS2_EE17_M_realloc_insertIJRKS2_EEEvN9__gnu_cxx17__normal_iteratorIPS2_S4_EEDpOT_
_ZN4wasm16ExpressionRunnerINS_24ConstantExpressionRunnerISt3mapINS_4NameENS_7LiteralESt4lessIS3_ESaISt4pairIKS3_S4_EEEEEE5visitEPNS_10ExpressionE
_ZN4wasm11RETURN_FLOWE
_ZN4wasm16ExpressionRunnerINS_24ConstantExpressionRunnerISt3mapINS_4NameENS_7LiteralESt4lessIS3_ESaISt4pairIKS3_S4_EEEEEE11visitBinaryEPNS_6BinaryE
_ZN4wasm16ExpressionRunnerINS_24ConstantExpressionRunnerISt3mapINS_4NameENS_7LiteralESt4lessIS3_ESaISt4pairIKS3_S4_EEEEEE10visitUnaryEPNS_5UnaryE
_ZNK4wasm7Literal10getIntegerEv
_ZN4wasm22ShellExternalInterface4initERNS_6ModuleERNS_14ModuleInstanceE
_ZTVN4wasm24ConstantExpressionRunnerISt3mapINS_4NameENS_7LiteralESt4lessIS2_ESaISt4pairIKS2_S3_EEEEE
_ZNK4wasm7Literal13convertUToF64Ev
_ZNK4wasm7Literal13convertUToF32Ev
_ZNK4wasm7Literal13convertSToF64Ev
_ZNK4wasm7Literal13convertSToF32Ev
_ZNK4wasm7Literal8popCountEv
_ZNK4wasm7Literal19countTrailingZeroesEv
_ZNK4wasm7Literal18countLeadingZeroesEv
_ZNK4wasm7LiteraleqERKS0_
_ZNK4wasm7Literal12extendToUI64Ev
_ZNK4wasm7Literal12extendToSI64Ev
_ZNK4wasm7Literal3negEv
_ZNK4wasm7Literal4sqrtEv
_ZNK4wasm7Literal9nearbyintEv
_ZNK4wasm7Literal5truncEv
_ZNK4wasm7Literal5floorEv
_ZNK4wasm7Literal4ceilEv
_ZNK4wasm7Literal3absEv
_ZN4wasm7Literal9castToI64Ev
_ZNK4wasm7Literal13truncateToI32Ev
_ZNK4wasm7Literal11extendToF64Ev
_ZN4wasm7Literal9castToI32Ev
_ZNK4wasm7Literal13truncateToF32Ev
_ZNK4wasm7Literal2gtERKS0_
_ZNK4wasm7Literal2leERKS0_
_ZNK4wasm7Literal2ltERKS0_
_ZNK4wasm7Literal2neERKS0_
_ZNK4wasm7Literal2eqERKS0_
_ZNK4wasm7Literal3maxERKS0_
_ZNK4wasm7Literal3minERKS0_
_ZNK4wasm7Literal8copysignERKS0_
_ZNK4wasm7Literal3divERKS0_
_ZNK4wasm7Literal3mulERKS0_
_ZNK4wasm7Literal3subERKS0_
_ZNK4wasm7Literal3addERKS0_
_ZNK4wasm7Literal2geERKS0_
_ZNK4wasm7Literal3geSERKS0_
_ZNK4wasm7Literal3gtUERKS0_
_ZNK4wasm7Literal3gtSERKS0_
_ZNK4wasm7Literal3leUERKS0_
_ZNK4wasm7Literal3leSERKS0_
_ZNK4wasm7Literal3ltUERKS0_
_ZNK4wasm7Literal3ltSERKS0_
_ZNK4wasm7Literal4rotRERKS0_
_ZNK4wasm7Literal4rotLERKS0_
_ZNK4wasm7Literal4xor_ERKS0_
_ZNK4wasm7Literal3or_ERKS0_
_ZNK4wasm7Literal4and_ERKS0_
_ZNK4wasm7Literal3geUERKS0_
_ZNK4wasm7Literal4shrSERKS0_
_ZNK4wasm7Literal4remUERKS0_
_ZNK4wasm7Literal4shrUERKS0_
_ZNK4wasm7Literal3shlERKS0_
_ZNK4wasm7Literal4divSERKS0_
_ZNK4wasm7Literal4remSERKS0_
_ZNK4wasm7Literal4divUERKS0_
_ZN4wasm16ExpressionRunnerIZNS_18ModuleInstanceBaseISt3mapINS_4NameENS_7LiteralESt4lessIS3_ESaISt4pairIKS3_S4_EEENS_14ModuleInstanceEE20callFunctionInternalES3_RSt6vectorIS4_SaIS4_EEE23RuntimeExpressionRunnerE11truncSFloatEPNS_5UnaryES4_
_ZN4wasm16ExpressionRunnerIZNS_18ModuleInstanceBaseISt3mapINS_4NameENS_7LiteralESt4lessIS3_ESaISt4pairIKS3_S4_EEENS_14ModuleInstanceEE20callFunctionInternalES3_RSt6vectorIS4_SaIS4_EEE23RuntimeExpressionRunnerE11truncUFloatEPNS_5UnaryES4_
_ZN4wasm16ExpressionRunnerIZNS_18ModuleInstanceBaseISt3mapINS_4NameENS_7LiteralESt4lessIS3_ESaISt4pairIKS3_S4_EEENS_14ModuleInstanceEE20callFunctionInternalES3_RSt6vectorIS4_SaIS4_EEE23RuntimeExpressionRunnerE10visitUnaryEPNS_5UnaryE
_ZN4wasm16ExpressionRunnerIZNS_18ModuleInstanceBaseISt3mapINS_4NameENS_7LiteralESt4lessIS3_ESaISt4pairIKS3_S4_EEENS_14ModuleInstanceEE20callFunctionInternalES3_RSt6vectorIS4_SaIS4_EEE23RuntimeExpressionRunnerE5visitEPNS_10ExpressionE
_ZN4wasm7VisitorIZNS_18ModuleInstanceBaseISt3mapINS_4NameENS_7LiteralESt4lessIS3_ESaISt4pairIKS3_S4_EEENS_14ModuleInstanceEE20callFunctionInternalES3_RSt6vectorIS4_SaIS4_EEE23RuntimeExpressionRunnerNS_4FlowEE5visitEPNS_10ExpressionE
_ZN4wasm8SetLocal5isTeeEv
_ZN4wasm16ExpressionRunnerIZNS_18ModuleInstanceBaseISt3mapINS_4NameENS_7LiteralESt4lessIS3_ESaISt4pairIKS3_S4_EEENS_14ModuleInstanceEE20callFunctionInternalES3_RSt6vectorIS4_SaIS4_EEE23RuntimeExpressionRunnerE11visitBinaryEPNS_6BinaryE
_ZZN4wasm18ModuleInstanceBaseISt3mapINS_4NameENS_7LiteralESt4lessIS2_ESaISt4pairIKS2_S3_EEENS_14ModuleInstanceEE20callFunctionInternalES2_RSt6vectorIS3_SaIS3_EEEN23RuntimeExpressionRunner17generateArgumentsERK11ArenaVectorIPNS_10ExpressionEESG_
_ZN4wasm4WASME
_ZN4wasm6Module9getImportENS_4NameE
_ZN4wasm18ModuleInstanceBaseISt3mapINS_4NameENS_7LiteralESt4lessIS2_ESaISt4pairIKS2_S3_EEENS_14ModuleInstanceEE20callFunctionInternalES2_RSt6vectorIS3_SaIS3_EE
_ZN4wasm15getWasmTypeSizeENS_8WasmTypeE
_ZNK4wasm7LiteralneERKS0_
_ZTVZN4wasm18ModuleInstanceBaseISt3mapINS_4NameENS_7LiteralESt4lessIS2_ESaISt4pairIKS2_S3_EEENS_14ModuleInstanceEE20callFunctionInternalES2_RSt6vectorIS3_SaIS3_EEE23RuntimeExpressionRunner
_ZN4wasm22ShellExternalInterface9callTableEjRSt6vectorINS_7LiteralESaIS2_EENS_8WasmTypeERNS_14ModuleInstanceE
_ZN4wasm6Module17getFunctionOrNullENS_4NameE
BinaryenModuleInterpret
_ZTVN4wasm22ShellExternalInterfaceE
_ZNSt6vectorIN4wasm6WalkerINS0_10ReFinalizeENS0_17OverriddenVisitorIS2_vEEE4TaskESaIS6_EE17_M_realloc_insertIJRPFvPS2_PPNS0_10ExpressionEERSD_EEEvN9__gnu_cxx17__normal_iteratorIPS6_S8_EEDpOT_
_ZNSt6vectorIN4wasm6WalkerINS0_10ReFinalizeENS0_17OverriddenVisitorIS2_vEEE4TaskESaIS6_EE12emplace_backIJRPFvPS2_PPNS0_10ExpressionEERSD_EEEvDpOT_
_ZN4wasm6WalkerINS_10ReFinalizeENS_17OverriddenVisitorIS1_vEEE8pushTaskEPFvPS1_PPNS_10ExpressionEES8_
_ZN4wasm6WalkerINS_10ReFinalizeENS_17OverriddenVisitorIS1_vEEE4walkERPNS_10ExpressionE
_ZN4wasm10PostWalkerINS_10ReFinalizeENS_17OverriddenVisitorIS1_vEEE4scanEPS1_PPNS_10ExpressionE
_ZN4wasm10WalkerPassINS_10PostWalkerINS_10ReFinalizeENS_17OverriddenVisitorIS2_vEEEEE11runFunctionEPNS_10PassRunnerEPNS_6ModuleEPNS_8FunctionE
_ZN4wasm10WalkerPassINS_10PostWalkerINS_10ReFinalizeENS_17OverriddenVisitorIS2_vEEEEE3runEPNS_10PassRunnerEPNS_6ModuleE
_ZN4wasm8AutoDrop14doWalkFunctionEPNS_8FunctionE
_ZN4wasm10WalkerPassINS_21ExpressionStackWalkerINS_8AutoDropENS_7VisitorIS2_vEEEEE11runFunctionEPNS_10PassRunnerEPNS_6ModuleEPNS_8FunctionE
_ZN4wasm10WalkerPassINS_21ExpressionStackWalkerINS_8AutoDropENS_7VisitorIS2_vEEEEE3runEPNS_10PassRunnerEPNS_6ModuleE
_ZN4wasm14FUNCTION_TABLEE
_ZTSN4wasm7VisitorINS_8AutoDropEvEE
_ZTIN4wasm7VisitorINS_8AutoDropEvEE
_ZTSN4wasm17OverriddenVisitorINS_10ReFinalizeEvEE
_ZTIN4wasm17OverriddenVisitorINS_10ReFinalizeEvEE
_ZTSN4wasm6WalkerINS_8AutoDropENS_7VisitorIS1_vEEEE
_ZTIN4wasm6WalkerINS_8AutoDropENS_7VisitorIS1_vEEEE
_ZTSN4wasm6WalkerINS_10ReFinalizeENS_17OverriddenVisitorIS1_vEEEE
_ZTIN4wasm6WalkerINS_10ReFinalizeENS_17OverriddenVisitorIS1_vEEEE
_ZTSN4wasm10PostWalkerINS_8AutoDropENS_7VisitorIS1_vEEEE
_ZTIN4wasm10PostWalkerINS_8AutoDropENS_7VisitorIS1_vEEEE
_ZTSN4wasm10PostWalkerINS_10ReFinalizeENS_17OverriddenVisitorIS1_vEEEE
_ZTIN4wasm10PostWalkerINS_10ReFinalizeENS_17OverriddenVisitorIS1_vEEEE
_ZTSN4wasm21ExpressionStackWalkerINS_8AutoDropENS_7VisitorIS1_vEEEE
_ZTIN4wasm21ExpressionStackWalkerINS_8AutoDropENS_7VisitorIS1_vEEEE
_ZTSN4wasm7VisitorINS_24ConstantExpressionRunnerISt3mapINS_4NameENS_7LiteralESt4lessIS3_ESaISt4pairIKS3_S4_EEEEENS_4FlowEEE
_ZTIN4wasm7VisitorINS_24ConstantExpressionRunnerISt3mapINS_4NameENS_7LiteralESt4lessIS3_ESaISt4pairIKS3_S4_EEEEENS_4FlowEEE
_ZTSN4wasm7VisitorIZNS_18ModuleInstanceBaseISt3mapINS_4NameENS_7LiteralESt4lessIS3_ESaISt4pairIKS3_S4_EEENS_14ModuleInstanceEE20callFunctionInternalES3_RSt6vectorIS4_SaIS4_EEE23RuntimeExpressionRunnerNS_4FlowEEE
_ZTIN4wasm7VisitorIZNS_18ModuleInstanceBaseISt3mapINS_4NameENS_7LiteralESt4lessIS3_ESaISt4pairIKS3_S4_EEENS_14ModuleInstanceEE20callFunctionInternalES3_RSt6vectorIS4_SaIS4_EEE23RuntimeExpressionRunnerNS_4FlowEEE
_ZTSN4wasm4PassE
_ZTIN4wasm4PassE
_ZTSN4wasm14ParseExceptionE
_ZTIN4wasm14ParseExceptionE
_ZTSN4wasm10WalkerPassINS_10PostWalkerINS_10ReFinalizeENS_17OverriddenVisitorIS2_vEEEEEE
_ZTIN4wasm10WalkerPassINS_10PostWalkerINS_10ReFinalizeENS_17OverriddenVisitorIS2_vEEEEEE
_ZTVN10__cxxabiv121__vmi_class_type_infoE
_ZTSN4wasm10ReFinalizeE
_ZTIN4wasm10ReFinalizeE
_ZTSN4wasm10WalkerPassINS_21ExpressionStackWalkerINS_8AutoDropENS_7VisitorIS2_vEEEEEE
_ZTIN4wasm10WalkerPassINS_21ExpressionStackWalkerINS_8AutoDropENS_7VisitorIS2_vEEEEEE
_ZTSN4wasm8AutoDropE
_ZTIN4wasm8AutoDropE
_ZTSN4wasm18ModuleInstanceBaseISt3mapINS_4NameENS_7LiteralESt4lessIS2_ESaISt4pairIKS2_S3_EEENS_14ModuleInstanceEE17ExternalInterfaceE
_ZTIN4wasm18ModuleInstanceBaseISt3mapINS_4NameENS_7LiteralESt4lessIS2_ESaISt4pairIKS2_S3_EEENS_14ModuleInstanceEE17ExternalInterfaceE
_ZTSN4wasm22ShellExternalInterfaceE
_ZTIN4wasm22ShellExternalInterfaceE
_ZTSN4wasm16ExpressionRunnerINS_24ConstantExpressionRunnerISt3mapINS_4NameENS_7LiteralESt4lessIS3_ESaISt4pairIKS3_S4_EEEEEEE
_ZTIN4wasm16ExpressionRunnerINS_24ConstantExpressionRunnerISt3mapINS_4NameENS_7LiteralESt4lessIS3_ESaISt4pairIKS3_S4_EEEEEEE
_ZTSN4wasm24ConstantExpressionRunnerISt3mapINS_4NameENS_7LiteralESt4lessIS2_ESaISt4pairIKS2_S3_EEEEE
_ZTIN4wasm24ConstantExpressionRunnerISt3mapINS_4NameENS_7LiteralESt4lessIS2_ESaISt4pairIKS2_S3_EEEEE
_ZTSN4wasm13ExitExceptionE
_ZTSN4wasm13TrapExceptionE
_ZTSN4wasm16ExpressionRunnerIZNS_18ModuleInstanceBaseISt3mapINS_4NameENS_7LiteralESt4lessIS3_ESaISt4pairIKS3_S4_EEENS_14ModuleInstanceEE20callFunctionInternalES3_RSt6vectorIS4_SaIS4_EEE23RuntimeExpressionRunnerEE
_ZTIN4wasm16ExpressionRunnerIZNS_18ModuleInstanceBaseISt3mapINS_4NameENS_7LiteralESt4lessIS3_ESaISt4pairIKS3_S4_EEENS_14ModuleInstanceEE20callFunctionInternalES3_RSt6vectorIS4_SaIS4_EEE23RuntimeExpressionRunnerEE
_ZTSZN4wasm18ModuleInstanceBaseISt3mapINS_4NameENS_7LiteralESt4lessIS2_ESaISt4pairIKS2_S3_EEENS_14ModuleInstanceEE20callFunctionInternalES2_RSt6vectorIS3_SaIS3_EEE23RuntimeExpressionRunner
_ZTIZN4wasm18ModuleInstanceBaseISt3mapINS_4NameENS_7LiteralESt4lessIS2_ESaISt4pairIKS2_S3_EEENS_14ModuleInstanceEE20callFunctionInternalES2_RSt6vectorIS3_SaIS3_EEE23RuntimeExpressionRunner
_ZZN6cashew9JSPrinter11numToStringEdbE14full_storage_e
_ZZN6cashew9JSPrinter11numToStringEdbE14full_storage_f
_ZN3CFG11SimpleShapeD2Ev
_ZN3CFG11SimpleShapeD1Ev
_ZN3CFG11SimpleShapeD0Ev
_ZN4wasm14ParseExceptionD2Ev
_ZN4wasm14ParseExceptionD1Ev
_ZN4wasm6WalkerIZNS_16UniqueNameMapper8uniquifyEPNS_10ExpressionEE6WalkerNS_7VisitorIS4_vEEE12doVisitBlockEPS4_PS3_
_ZN4wasm6WalkerIZNS_16UniqueNameMapper8uniquifyEPNS_10ExpressionEE6WalkerNS_7VisitorIS4_vEEE9doVisitIfEPS4_PS3_
_ZN4wasm6WalkerIZNS_16UniqueNameMapper8uniquifyEPNS_10ExpressionEE6WalkerNS_7VisitorIS4_vEEE11doVisitLoopEPS4_PS3_
_ZN4wasm6WalkerIZNS_16UniqueNameMapper8uniquifyEPNS_10ExpressionEE6WalkerNS_7VisitorIS4_vEEE11doVisitCallEPS4_PS3_
_ZN4wasm6WalkerIZNS_16UniqueNameMapper8uniquifyEPNS_10ExpressionEE6WalkerNS_7VisitorIS4_vEEE17doVisitCallImportEPS4_PS3_
_ZN4wasm6WalkerIZNS_16UniqueNameMapper8uniquifyEPNS_10ExpressionEE6WalkerNS_7VisitorIS4_vEEE19doVisitCallIndirectEPS4_PS3_
_ZN4wasm6WalkerIZNS_16UniqueNameMapper8uniquifyEPNS_10ExpressionEE6WalkerNS_7VisitorIS4_vEEE15doVisitGetLocalEPS4_PS3_
_ZN4wasm6WalkerIZNS_16UniqueNameMapper8uniquifyEPNS_10ExpressionEE6WalkerNS_7VisitorIS4_vEEE15doVisitSetLocalEPS4_PS3_
_ZN4wasm6WalkerIZNS_16UniqueNameMapper8uniquifyEPNS_10ExpressionEE6WalkerNS_7VisitorIS4_vEEE16doVisitGetGlobalEPS4_PS3_
_ZN4wasm6WalkerIZNS_16UniqueNameMapper8uniquifyEPNS_10ExpressionEE6WalkerNS_7VisitorIS4_vEEE16doVisitSetGlobalEPS4_PS3_
_ZN4wasm6WalkerIZNS_16UniqueNameMapper8uniquifyEPNS_10ExpressionEE6WalkerNS_7VisitorIS4_vEEE11doVisitLoadEPS4_PS3_
_ZN4wasm6WalkerIZNS_16UniqueNameMapper8uniquifyEPNS_10ExpressionEE6WalkerNS_7VisitorIS4_vEEE12doVisitStoreEPS4_PS3_
_ZN4wasm6WalkerIZNS_16UniqueNameMapper8uniquifyEPNS_10ExpressionEE6WalkerNS_7VisitorIS4_vEEE16doVisitAtomicRMWEPS4_PS3_
_ZN4wasm6WalkerIZNS_16UniqueNameMapper8uniquifyEPNS_10ExpressionEE6WalkerNS_7VisitorIS4_vEEE20doVisitAtomicCmpxchgEPS4_PS3_
_ZN4wasm6WalkerIZNS_16UniqueNameMapper8uniquifyEPNS_10ExpressionEE6WalkerNS_7VisitorIS4_vEEE17doVisitAtomicWaitEPS4_PS3_
_ZN4wasm6WalkerIZNS_16UniqueNameMapper8uniquifyEPNS_10ExpressionEE6WalkerNS_7VisitorIS4_vEEE17doVisitAtomicWakeEPS4_PS3_
_ZN4wasm6WalkerIZNS_16UniqueNameMapper8uniquifyEPNS_10ExpressionEE6WalkerNS_7VisitorIS4_vEEE12doVisitConstEPS4_PS3_
_ZN4wasm6WalkerIZNS_16UniqueNameMapper8uniquifyEPNS_10ExpressionEE6WalkerNS_7VisitorIS4_vEEE12doVisitUnaryEPS4_PS3_
_ZN4wasm6WalkerIZNS_16UniqueNameMapper8uniquifyEPNS_10ExpressionEE6WalkerNS_7VisitorIS4_vEEE13doVisitBinaryEPS4_PS3_
_ZN4wasm6WalkerIZNS_16UniqueNameMapper8uniquifyEPNS_10ExpressionEE6WalkerNS_7VisitorIS4_vEEE13doVisitSelectEPS4_PS3_
_ZN4wasm6WalkerIZNS_16UniqueNameMapper8uniquifyEPNS_10ExpressionEE6WalkerNS_7VisitorIS4_vEEE11doVisitDropEPS4_PS3_
_ZN4wasm6WalkerIZNS_16UniqueNameMapper8uniquifyEPNS_10ExpressionEE6WalkerNS_7VisitorIS4_vEEE13doVisitReturnEPS4_PS3_
_ZN4wasm6WalkerIZNS_16UniqueNameMapper8uniquifyEPNS_10ExpressionEE6WalkerNS_7VisitorIS4_vEEE11doVisitHostEPS4_PS3_
_ZN4wasm6WalkerIZNS_16UniqueNameMapper8uniquifyEPNS_10ExpressionEE6WalkerNS_7VisitorIS4_vEEE10doVisitNopEPS4_PS3_
_ZN4wasm6WalkerIZNS_16UniqueNameMapper8uniquifyEPNS_10ExpressionEE6WalkerNS_7VisitorIS4_vEEE18doVisitUnreachableEPS4_PS3_
_ZN3CFG6BranchC2EPN4wasm10ExpressionES3_
_ZN3CFG6BranchC1EPN4wasm10ExpressionES3_
_ZN3CFG6BranchC2EOSt6vectorIjSaIjEEPN4wasm10ExpressionE
_ZN3CFG6BranchC1EOSt6vectorIjSaIjEEPN4wasm10ExpressionE
_ZN3CFG5BlockC2EPN4wasm10ExpressionES3_
_ZNSt8_Rb_treeIiSt4pairIKiPN3CFG5ShapeEESt10_Select1stIS5_ESt4lessIiESaIS5_EE8_M_eraseEPSt13_Rb_tree_nodeIS5_E
_ZN3CFG13MultipleShapeD2Ev
_ZTVN3CFG13MultipleShapeE
_ZN3CFG13MultipleShapeD1Ev
_ZN3CFG13MultipleShapeD0Ev
_ZNSt8_Rb_treeIPN3CFG5BlockESt4pairIKS2_St14_List_iteratorIS2_EESt10_Select1stIS7_ESt4lessIS2_ESaIS7_EE8_M_eraseEPSt13_Rb_tree_nodeIS7_E
_ZN3CFG16InsertOrderedSetIPNS_5BlockEED2Ev
_ZN3CFG16InsertOrderedSetIPNS_5BlockEED1Ev
_ZN3CFG9LoopShapeD2Ev
_ZTVN3CFG9LoopShapeE
_ZN3CFG9LoopShapeD1Ev
_ZN3CFG9LoopShapeD0Ev
_ZNSt8_Rb_treeIN4wasm4NameESt4pairIKS1_S1_ESt10_Select1stIS4_ESt4lessIS1_ESaIS4_EE4findERS3_
_ZNSt8_Rb_treeIPN3CFG5BlockESt4pairIKS2_St14_List_iteratorIS3_IS2_PNS0_6BranchEEEESt10_Select1stISA_ESt4lessIS2_ESaISA_EE8_M_eraseEPSt13_Rb_tree_nodeISA_E
_ZN3CFG5BlockD2Ev
_ZN3CFG5BlockD1Ev
_ZNSt6vectorIPN4wasm2IfESaIS2_EE12emplace_backIJS2_EEEvDpOT_
_ZNSt6vectorIPN4wasm2IfESaIS2_EE17_M_realloc_insertIJRKS2_EEEvN9__gnu_cxx17__normal_iteratorIPS2_S4_EEDpOT_
_ZNSt8_Rb_treeIPN3CFG5BlockESt4pairIKS2_N4wasm4NameEESt10_Select1stIS7_ESt4lessIS2_ESaIS7_EE8_M_eraseEPSt13_Rb_tree_nodeIS7_E
_ZNSt11_Deque_baseIPN3CFG5BlockESaIS2_EED2Ev
_ZNSt11_Deque_baseIPN3CFG5BlockESaIS2_EED1Ev
_ZN3CFG8RelooperD2Ev
_ZN3CFG8RelooperC2Ev
_ZNSt5dequeIPN3CFG5ShapeESaIS2_EE16_M_push_back_auxIJRKS2_EEEvDpOT_
_ZNSt8_Rb_treeIPN3CFG5BlockESt4pairIKS2_S2_ESt10_Select1stIS5_ESt4lessIS2_ESaIS5_EE8_M_eraseEPSt13_Rb_tree_nodeIS5_E
_ZNSt8_Rb_treeIPN3CFG5BlockESt4pairIKS2_S2_ESt10_Select1stIS5_ESt4lessIS2_ESaIS5_EE4findERS4_
_ZNSt8_Rb_treeIPN3CFG5BlockESt4pairIKS2_St14_List_iteratorIS3_IS2_NS0_16InsertOrderedSetIS2_EEEEESt10_Select1stISA_ESt4lessIS2_ESaISA_EE8_M_eraseEPSt13_Rb_tree_nodeISA_E
_ZNSt7__cxx1110_List_baseISt4pairIPN3CFG5BlockENS2_16InsertOrderedSetIS4_EEESaIS7_EE8_M_clearEv
_ZN15ArenaVectorBaseI11ArenaVectorIPN4wasm10ExpressionEES3_E9push_backES3_
_ZNSt8_Rb_treeIPN3CFG5BlockESt4pairIKS2_St14_List_iteratorIS3_IS2_PNS0_6BranchEEEESt10_Select1stISA_ESt4lessIS2_ESaISA_EE4findERS4_
_ZNSt8_Rb_treeIPN3CFG5BlockESt4pairIKS2_St14_List_iteratorIS3_IS2_PNS0_6BranchEEEESt10_Select1stISA_ESt4lessIS2_ESaISA_EE16_M_insert_uniqueIS3_IS2_S9_EEES3_ISt17_Rb_tree_iteratorISA_EbEOT_
_ZNSt8_Rb_treeIPN3CFG5BlockESt4pairIKS2_St14_List_iteratorIS2_EESt10_Select1stIS7_ESt4lessIS2_ESaIS7_EE4findERS4_
_ZN3CFG16InsertOrderedSetIPNS_5BlockEE5eraseERKS2_
_ZNSt8__detail15_List_node_base9_M_unhookEv
_ZSt28_Rb_tree_rebalance_for_erasePSt18_Rb_tree_node_baseRS_
_ZNSt8_Rb_treeIPN3CFG5BlockESt4pairIKS2_St14_List_iteratorIS2_EESt10_Select1stIS7_ESt4lessIS2_ESaIS7_EE16_M_insert_uniqueIS3_IS2_S6_EEES3_ISt17_Rb_tree_iteratorIS7_EbEOT_
_ZN3CFG16InsertOrderedSetIPNS_5BlockEE6insertERKS2_
_ZNSt8__detail15_List_node_base7_M_hookEPS0_
_ZNSt8_Rb_treeIPN3CFG5BlockESt4pairIKS2_St14_List_iteratorIS2_EESt10_Select1stIS7_ESt4lessIS2_ESaIS7_EE5eraseERS4_
_ZSt18_Rb_tree_incrementPKSt18_Rb_tree_node_base
_ZNSt8_Rb_treeIPN3CFG5BlockESt4pairIKS2_St14_List_iteratorIS3_IS2_NS0_16InsertOrderedSetIS2_EEEEESt10_Select1stISA_ESt4lessIS2_ESaISA_EE4findERS4_
_ZN3CFG16InsertOrderedMapIPNS_5BlockENS_16InsertOrderedSetIS2_EEE5eraseERKS2_
_ZNSt8_Rb_treeIPN3CFG5BlockESt4pairIKS2_St14_List_iteratorIS3_IS2_NS0_16InsertOrderedSetIS2_EEEEESt10_Select1stISA_ESt4lessIS2_ESaISA_EE16_M_insert_uniqueIS3_IS2_S9_EEES3_ISt17_Rb_tree_iteratorISA_EbEOT_
_ZN3CFG16InsertOrderedMapIPNS_5BlockENS_16InsertOrderedSetIS2_EEEixERKS2_
_ZNKSt8_Rb_treeIPN3CFG5BlockESt4pairIKS2_St14_List_iteratorIS2_EESt10_Select1stIS7_ESt4lessIS2_ESaIS7_EE4findERS4_
_ZN3CFG15RelooperBuilder17getBlockBreakNameEi
_ZN3CFG13MultipleShape6RenderERNS_15RelooperBuilderEb
_ZN3CFG15RelooperBuilder20getShapeContinueNameEi
_ZN3CFG6Branch6RenderERNS_15RelooperBuilderEPNS_5BlockEb
_ZN3CFG9LoopShape6RenderERNS_15RelooperBuilderEb
_ZN3CFG5Block6RenderERNS_15RelooperBuilderEb
_ZN3CFG11SimpleShape6RenderERNS_15RelooperBuilderEb
_ZNSt8_Rb_treeIN4wasm4NameESt4pairIKS1_St6vectorIS1_SaIS1_EEESt10_Select1stIS7_ESt4lessIS1_ESaIS7_EE24_M_get_insert_unique_posERS3_
_ZNSt8_Rb_treeIN4wasm4NameESt4pairIKS1_St6vectorIS1_SaIS1_EEESt10_Select1stIS7_ESt4lessIS1_ESaIS7_EE29_M_get_insert_hint_unique_posESt23_Rb_tree_const_iteratorIS7_ERS3_
_ZNSt8_Rb_treeIN4wasm4NameESt4pairIKS1_St6vectorIS1_SaIS1_EEESt10_Select1stIS7_ESt4lessIS1_ESaIS7_EE22_M_emplace_hint_uniqueIJRKSt21piecewise_construct_tSt5tupleIJRS3_EESI_IJEEEEESt17_Rb_tree_iteratorIS7_ESt23_Rb_tree_const_iteratorIS7_EDpOT_
_ZN4wasm16UniqueNameMapper14sourceToUniqueENS_4NameE
__cxa_free_exception
_ZN4wasm6WalkerIZNS_16UniqueNameMapper8uniquifyEPNS_10ExpressionEE6WalkerNS_7VisitorIS4_vEEE13doVisitSwitchEPS4_PS3_
_ZN4wasm6WalkerIZNS_16UniqueNameMapper8uniquifyEPNS_10ExpressionEE6WalkerNS_7VisitorIS4_vEEE12doVisitBreakEPS4_PS3_
_ZNSt8_Rb_treeIN4wasm4NameESt4pairIKS1_S1_ESt10_Select1stIS4_ESt4lessIS1_ESaIS4_EE24_M_get_insert_unique_posERS3_
_ZNSt8_Rb_treeIN4wasm4NameESt4pairIKS1_S1_ESt10_Select1stIS4_ESt4lessIS1_ESaIS4_EE29_M_get_insert_hint_unique_posESt23_Rb_tree_const_iteratorIS4_ERS3_
_ZNSt8_Rb_treeIN4wasm4NameESt4pairIKS1_S1_ESt10_Select1stIS4_ESt4lessIS1_ESaIS4_EE22_M_emplace_hint_uniqueIJRKSt21piecewise_construct_tSt5tupleIJRS3_EESF_IJEEEEESt17_Rb_tree_iteratorIS4_ESt23_Rb_tree_const_iteratorIS4_EDpOT_
_ZZN4wasm16UniqueNameMapper8uniquifyEPNS_10ExpressionEEN6Walker21doPreVisitControlFlowEPS3_PS2_
_ZZN4wasm16UniqueNameMapper8uniquifyEPNS_10ExpressionEEN6Walker22doPostVisitControlFlowEPS3_PS2_
_ZNSt6vectorIN4wasm6WalkerIZNS0_16UniqueNameMapper8uniquifyEPNS0_10ExpressionEE6WalkerNS0_7VisitorIS5_vEEE4TaskESaIS9_EE17_M_realloc_insertIJRPFvPS5_PS4_ERSE_EEEvN9__gnu_cxx17__normal_iteratorIPS9_SB_EEDpOT_
_ZNSt6vectorIN4wasm6WalkerIZNS0_16UniqueNameMapper8uniquifyEPNS0_10ExpressionEE6WalkerNS0_7VisitorIS5_vEEE4TaskESaIS9_EE12emplace_backIJRPFvPS5_PS4_ERSE_EEEvDpOT_
_ZN4wasm6WalkerIZNS_16UniqueNameMapper8uniquifyEPNS_10ExpressionEE6WalkerNS_7VisitorIS4_vEEE8pushTaskEPFvPS4_PS3_ES9_
_ZN4wasm17ControlFlowWalkerIZNS_16UniqueNameMapper8uniquifyEPNS_10ExpressionEE6WalkerNS_7VisitorIS4_vEEE4scanEPS4_PS3_
_ZN4wasm10PostWalkerIZNS_16UniqueNameMapper8uniquifyEPNS_10ExpressionEE6WalkerNS_7VisitorIS4_vEEE4scanEPS4_PS3_
_ZNKSt8_Rb_treeIPN3CFG5BlockESt4pairIKS2_St14_List_iteratorIS3_IS2_PNS0_6BranchEEEESt10_Select1stISA_ESt4lessIS2_ESaISA_EE4findERS4_
_ZNSt8_Rb_treeIPN3CFG5BlockESt4pairIKS2_S2_ESt10_Select1stIS5_ESt4lessIS2_ESaIS5_EE24_M_get_insert_unique_posERS4_
_ZNSt8_Rb_treeIPN3CFG5BlockESt4pairIKS2_S2_ESt10_Select1stIS5_ESt4lessIS2_ESaIS5_EE29_M_get_insert_hint_unique_posESt23_Rb_tree_const_iteratorIS5_ERS4_
_ZNSt8_Rb_treeIPN3CFG5BlockESt4pairIKS2_S2_ESt10_Select1stIS5_ESt4lessIS2_ESaIS5_EE22_M_emplace_hint_uniqueIJRKSt21piecewise_construct_tSt5tupleIJRS4_EESG_IJEEEEESt17_Rb_tree_iteratorIS5_ESt23_Rb_tree_const_iteratorIS5_EDpOT_
_ZNSt3mapIPN3CFG5BlockES2_St4lessIS2_ESaISt4pairIKS2_S2_EEEixERS6_
_ZNKSt8_Rb_treeIPN3CFG5BlockESt4pairIKS2_St14_List_iteratorIS3_IS2_NS0_16InsertOrderedSetIS2_EEEEESt10_Select1stISA_ESt4lessIS2_ESaISA_EE4findERS4_
_ZNSt8_Rb_treeIiSt4pairIKiPN3CFG5ShapeEESt10_Select1stIS5_ESt4lessIiESaIS5_EE24_M_get_insert_unique_posERS1_
_ZNSt8_Rb_treeIiSt4pairIKiPN3CFG5ShapeEESt10_Select1stIS5_ESt4lessIiESaIS5_EE29_M_get_insert_hint_unique_posESt23_Rb_tree_const_iteratorIS5_ERS1_
_ZTVN3CFG11SimpleShapeE
_ZTSN3CFG5ShapeE
_ZTIN3CFG5ShapeE
_ZTSN3CFG11SimpleShapeE
_ZTIN3CFG11SimpleShapeE
_ZTSN3CFG13MultipleShapeE
_ZTIN3CFG13MultipleShapeE
_ZTSN3CFG9LoopShapeE
_ZTIN3CFG9LoopShapeE
_ZN6cashew5Value9stringifyERSob
_Z8parseIntPKc
_Z9parseHeapPKc
_Z10detectSignN6cashew3RefENS_7IStringE
_ZN4wasm12isSInteger32Ed
SIMD_INT16X8_CHECK
SIMD_INT32X4_CHECK
SIMD_FLOAT32X4_CHECK
SIMD_FLOAT64X2_CHECK
SIMD_INT8X16_CHECK
_ZN6cashew12SIMD_INT16X8E
_ZN6cashew12SIMD_INT32X4E
ASM_FLOAT_ZERO
_ZN6cashew14SIMD_FLOAT64X2E
_ZN6cashew12SIMD_INT8X16E
_ZN6cashew14SIMD_FLOAT32X4E
_Z10detectTypeN6cashew3RefEP7AsmDatabNS_7IStringEb
_ZN4wasm9isIntegerEd
_ZN6cashew3INFE
_ZN6cashew3NaNE
_ZN6cashew5INT64E
_ZN6cashew11INT64_CONSTE
_ZN6cashew9TEMP_RET0E
_ZN6cashew15operatorClassesE
_ZN6cashew11isIdentInitEc
_ZNSt10_HashtableIN6cashew7IStringES1_SaIS1_ENSt8__detail9_IdentityESt8equal_toIS1_ESt4hashIS1_ENS3_18_Mod_range_hashingENS3_20_Default_ranged_hashENS3_20_Prime_rehash_policyENS3_17_Hashtable_traitsILb1ELb1ELb1EEEED2Ev
_ZNSt10_HashtableIN6cashew7IStringES1_SaIS1_ENSt8__detail9_IdentityESt8equal_toIS1_ESt4hashIS1_ENS3_18_Mod_range_hashingENS3_20_Default_ranged_hashENS3_20_Prime_rehash_policyENS3_17_Hashtable_traitsILb1ELb1ELb1EEEED1Ev
_ZN6cashew10IStringSetD2Ev
_ZN6cashew10IStringSetD1Ev
_ZNSt6vectorIN6cashew13OperatorClassESaIS1_EED2Ev
_ZNSt6vectorIN6cashew13OperatorClassESaIS1_EED1Ev
_ZNSt10_HashtableIN6cashew7IStringESt4pairIKS1_iESaIS4_ENSt8__detail10_Select1stESt8equal_toIS1_ESt4hashIS1_ENS6_18_Mod_range_hashingENS6_20_Default_ranged_hashENS6_20_Prime_rehash_policyENS6_17_Hashtable_traitsILb1ELb0ELb1EEEE9_M_rehashEmRKm
_ZNSt8__detail9_Map_baseIN6cashew7IStringESt4pairIKS2_iESaIS5_ENS_10_Select1stESt8equal_toIS2_ESt4hashIS2_ENS_18_Mod_range_hashingENS_20_Default_ranged_hashENS_20_Prime_rehash_policyENS_17_Hashtable_traitsILb1ELb0ELb1EEELb1EEixERS4_
_ZNSt10_HashtableIN6cashew7IStringES1_SaIS1_ENSt8__detail9_IdentityESt8equal_toIS1_ESt4hashIS1_ENS3_18_Mod_range_hashingENS3_20_Default_ranged_hashENS3_20_Prime_rehash_policyENS3_17_Hashtable_traitsILb1ELb1ELb1EEEE9_M_rehashEmRKm
_ZN6cashew10IStringSetC2EPKc
_ZN6cashew10IStringSetC1EPKc
_ZNSt10_HashtableIN6cashew7IStringESt4pairIKS1_iESaIS4_ENSt8__detail10_Select1stESt8equal_toIS1_ESt4hashIS1_ENS6_18_Mod_range_hashingENS6_20_Default_ranged_hashENS6_20_Prime_rehash_policyENS6_17_Hashtable_traitsILb1ELb0ELb1EEEED2Ev
_ZNSt10_HashtableIN6cashew7IStringESt4pairIKS1_iESaIS4_ENSt8__detail10_Select1stESt8equal_toIS1_ESt4hashIS1_ENS6_18_Mod_range_hashingENS6_20_Default_ranged_hashENS6_20_Prime_rehash_policyENS6_17_Hashtable_traitsILb1ELb0ELb1EEEED1Ev
_ZNSt6vectorISt13unordered_mapIN6cashew7IStringEiSt4hashIS2_ESt8equal_toIS2_ESaISt4pairIKS2_iEEESaISB_EED2Ev
_ZNSt6vectorISt13unordered_mapIN6cashew7IStringEiSt4hashIS2_ESt8equal_toIS2_ESaISt4pairIKS2_iEEESaISB_EED1Ev
_ZNSt6vectorISt13unordered_mapIN6cashew7IStringEiSt4hashIS2_ESt8equal_toIS2_ESaISt4pairIKS2_iEEESaISB_EE17_M_default_appendEm
_ZNSt10_HashtableIN6cashew7IStringES1_SaIS1_ENSt8__detail9_IdentityESt8equal_toIS1_ESt4hashIS1_ENS3_18_Mod_range_hashingENS3_20_Default_ranged_hashENS3_20_Prime_rehash_policyENS3_17_Hashtable_traitsILb1ELb1ELb1EEEEC2EOSE_
_ZNSt10_HashtableIN6cashew7IStringES1_SaIS1_ENSt8__detail9_IdentityESt8equal_toIS1_ESt4hashIS1_ENS3_18_Mod_range_hashingENS3_20_Default_ranged_hashENS3_20_Prime_rehash_policyENS3_17_Hashtable_traitsILb1ELb1ELb1EEEEC1EOSE_
_ZNSt6vectorIN6cashew13OperatorClassESaIS1_EE17_M_realloc_insertIJRA2_KcbNS1_4TypeEEEEvN9__gnu_cxx17__normal_iteratorIPS1_S3_EEDpOT_
_ZNSt6vectorIN6cashew13OperatorClassESaIS1_EE12emplace_backIJRA2_KcbNS1_4TypeEEEEvDpOT_
_ZNSt6vectorIN6cashew13OperatorClassESaIS1_EE17_M_realloc_insertIJRA4_KcbNS1_4TypeEEEEvN9__gnu_cxx17__normal_iteratorIPS1_S3_EEDpOT_
_ZNSt6vectorIN6cashew13OperatorClassESaIS1_EE12emplace_backIJRA4_KcbNS1_4TypeEEEEvDpOT_
_ZNSt6vectorIN6cashew13OperatorClassESaIS1_EE17_M_realloc_insertIJRA8_KcbNS1_4TypeEEEEvN9__gnu_cxx17__normal_iteratorIPS1_S3_EEDpOT_
_ZNSt6vectorIN6cashew13OperatorClassESaIS1_EE17_M_realloc_insertIJRA6_KcbNS1_4TypeEEEEvN9__gnu_cxx17__normal_iteratorIPS1_S3_EEDpOT_
_ZNSt6vectorIN6cashew13OperatorClassESaIS1_EE12emplace_backIJRA6_KcbNS1_4TypeEEEEvDpOT_
_ZNSt6vectorIN6cashew13OperatorClassESaIS1_EE17_M_realloc_insertIJRA10_KcbNS1_4TypeEEEEvN9__gnu_cxx17__normal_iteratorIPS1_S3_EEDpOT_
_ZNSt6vectorIN6cashew13OperatorClassESaIS1_EE12emplace_backIJRA10_KcbNS1_4TypeEEEEvDpOT_
_ZN6cashew4InitC2Ev
_ZN6cashew4InitC1Ev
_ZN6cashew5CONSTE
_ZN6cashew4ELSEE
_ZN6cashew3FORE
_ZN6cashew13GET_TEMP_RET0E
_ZN6cashew13LLVM_CTTZ_I32E
_ZN6cashew10UDIVMODDI4E
_ZN6cashew13UNARY_POSTFIXE
_ZN6cashew10MATH_CLZ32E
_ZN6cashew5B_NOTE
_ZN6cashew15TEMP_DOUBLE_PTRE
_ZN6cashew2F0E
_ZN6cashew5EMPTYE
_ZN6cashew8FUNCTIONE
_ZN6cashew10OPEN_PARENE
_ZN6cashew10OPEN_BRACEE
_ZN6cashew10OPEN_CURLYE
_ZN6cashew11CLOSE_CURLYE
_ZN6cashew5COLONE
_ZN6cashew4CASEE
_ZN6cashew7DEFAULTE
_ZN6cashew6PERIODE
_ZN6cashew5THROWE
_ZN6cashew8keywordsE
_ZN6cashew4initE
_ZN6cashew17MAX_OPERATOR_SIZEE
_ZN6cashew10SEPARATORSE
_ZN6cashew14OPERATOR_INITSE
_ZNKSt5ctypeIcE8do_widenEc
_ZN6cashew16GlobalMixedArenaD2Ev
_ZN6cashew16GlobalMixedArenaD1Ev
_ZN6cashew3RefeqEPKc
_ZN6cashew3RefneEPKc
_ZN6cashew3RefneERKNS_7IStringE
_ZNSo3putEc
_ZNSo5flushEv
_ZNKSt5ctypeIcE13_M_widen_initEv
_ZSt16__throw_bad_castv
_ZN6cashew4dumpEPKcNS_3RefEb
_ZN6cashew11traversePreENS_3RefESt8functionIFvS0_EE
_ZSt25__throw_bad_function_callv
_ZN6cashew15traversePrePostENS_3RefESt8functionIFvS0_EES3_
_ZN6cashew26traversePrePostConditionalENS_3RefESt8functionIFbS0_EES1_IFvS0_EE
_ZN6cashew17traverseFunctionsENS_3RefESt8functionIFvS0_EE
_ZNSt10_HashtableIN6cashew7IStringESt4pairIKS1_NS0_3RefEESaIS5_ENSt8__detail10_Select1stESt8equal_toIS1_ESt4hashIS1_ENS7_18_Mod_range_hashingENS7_20_Default_ranged_hashENS7_20_Prime_rehash_policyENS7_17_Hashtable_traitsILb1ELb0ELb1EEEE21_M_insert_unique_nodeEmmPNS7_10_Hash_nodeIS5_Lb1EEEm
_ZNSt8__detail9_Map_baseIN6cashew7IStringESt4pairIKS2_NS1_3RefEESaIS6_ENS_10_Select1stESt8equal_toIS2_ESt4hashIS2_ENS_18_Mod_range_hashingENS_20_Default_ranged_hashENS_20_Prime_rehash_policyENS_17_Hashtable_traitsILb1ELb0ELb1EEELb1EEixERS4_
_ZN6cashew3RefixENS_7IStringE
_ZNSt6vectorIPN4wasm10ExpressionESaIS2_EE12emplace_backIJS2_EEEvDpOT_
_ZNSt8_Rb_treeIN4wasm4NameESt4pairIKS1_St6vectorIjSaIjEEESt10_Select1stIS7_ESt4lessIS1_ESaIS7_EE8_M_eraseEPSt13_Rb_tree_nodeIS7_E
_ZNSt6vectorIjSaIjEE17_M_realloc_insertIJjEEEvN9__gnu_cxx17__normal_iteratorIPjS1_EEDpOT_
_ZN4wasm18ExpressionAnalyzer13flexibleEqualEPNS_10ExpressionES2_St8functionIFbS2_S2_EE
_ZNK4wasm7Literal12bitwiseEqualERKS0_
_ZN4wasm15isWasmTypeFloatENS_8WasmTypeE
_ZNSt8_Rb_treeIN4wasm4NameESt4pairIKS1_St6vectorIjSaIjEEESt10_Select1stIS7_ESt4lessIS1_ESaIS7_EE24_M_get_insert_unique_posERS3_
_ZNSt8_Rb_treeIN4wasm4NameESt4pairIKS1_St6vectorIjSaIjEEESt10_Select1stIS7_ESt4lessIS1_ESaIS7_EE29_M_get_insert_hint_unique_posESt23_Rb_tree_const_iteratorIS7_ERS3_
_ZNSt8_Rb_treeIN4wasm4NameESt4pairIKS1_St6vectorIjSaIjEEESt10_Select1stIS7_ESt4lessIS1_ESaIS7_EE22_M_emplace_hint_uniqueIJRKSt21piecewise_construct_tSt5tupleIJRS3_EESI_IJEEEEESt17_Rb_tree_iteratorIS7_ESt23_Rb_tree_const_iteratorIS7_EDpOT_
_ZN4wasm18ExpressionAnalyzer4hashEPNS_10ExpressionE
_ZNK4wasm7Literal7getBitsEv
_ZNSt8functionIFPN4wasm10ExpressionES2_EEC2ERKS4_
_ZNSt8functionIFPN4wasm10ExpressionES2_EEC1ERKS4_
_ZN4wasm2If8finalizeENS_8WasmTypeE
_ZN4wasm21ExpressionManipulator12flexibleCopyEPNS_10ExpressionERNS_6ModuleESt8functionIFS2_S2_EE
_ZN4wasm21ExpressionManipulator15spliceIntoBlockEPNS_5BlockEjPNS_10ExpressionE
_ZN4wasm6WalkerINS_10LocalGraphENS_7VisitorIS1_vEEE9doVisitIfEPS1_PPNS_10ExpressionE
_ZN4wasm6WalkerINS_10LocalGraphENS_7VisitorIS1_vEEE11doVisitCallEPS1_PPNS_10ExpressionE
_ZN4wasm6WalkerINS_10LocalGraphENS_7VisitorIS1_vEEE17doVisitCallImportEPS1_PPNS_10ExpressionE
_ZN4wasm6WalkerINS_10LocalGraphENS_7VisitorIS1_vEEE19doVisitCallIndirectEPS1_PPNS_10ExpressionE
_ZN4wasm6WalkerINS_10LocalGraphENS_7VisitorIS1_vEEE16doVisitGetGlobalEPS1_PPNS_10ExpressionE
_ZN4wasm6WalkerINS_10LocalGraphENS_7VisitorIS1_vEEE16doVisitSetGlobalEPS1_PPNS_10ExpressionE
_ZN4wasm6WalkerINS_10LocalGraphENS_7VisitorIS1_vEEE11doVisitLoadEPS1_PPNS_10ExpressionE
_ZN4wasm6WalkerINS_10LocalGraphENS_7VisitorIS1_vEEE12doVisitStoreEPS1_PPNS_10ExpressionE
_ZN4wasm6WalkerINS_10LocalGraphENS_7VisitorIS1_vEEE16doVisitAtomicRMWEPS1_PPNS_10ExpressionE
_ZN4wasm6WalkerINS_10LocalGraphENS_7VisitorIS1_vEEE20doVisitAtomicCmpxchgEPS1_PPNS_10ExpressionE
_ZN4wasm6WalkerINS_10LocalGraphENS_7VisitorIS1_vEEE17doVisitAtomicWaitEPS1_PPNS_10ExpressionE
_ZN4wasm6WalkerINS_10LocalGraphENS_7VisitorIS1_vEEE17doVisitAtomicWakeEPS1_PPNS_10ExpressionE
_ZN4wasm6WalkerINS_10LocalGraphENS_7VisitorIS1_vEEE12doVisitConstEPS1_PPNS_10ExpressionE
_ZN4wasm6WalkerINS_10LocalGraphENS_7VisitorIS1_vEEE12doVisitUnaryEPS1_PPNS_10ExpressionE
_ZN4wasm6WalkerINS_10LocalGraphENS_7VisitorIS1_vEEE13doVisitBinaryEPS1_PPNS_10ExpressionE
_ZN4wasm6WalkerINS_10LocalGraphENS_7VisitorIS1_vEEE13doVisitSelectEPS1_PPNS_10ExpressionE
_ZN4wasm6WalkerINS_10LocalGraphENS_7VisitorIS1_vEEE11doVisitDropEPS1_PPNS_10ExpressionE
_ZN4wasm6WalkerINS_10LocalGraphENS_7VisitorIS1_vEEE11doVisitHostEPS1_PPNS_10ExpressionE
_ZN4wasm6WalkerINS_10LocalGraphENS_7VisitorIS1_vEEE10doVisitNopEPS1_PPNS_10ExpressionE
_ZN4wasm6WalkerIZNS_7FindAllINS_8GetLocalEEC4EPNS_10ExpressionEE6FinderNS_24UnifiedExpressionVisitorIS6_vEEE18doVisitUnreachableEPS6_PS5_
_ZN4wasm6WalkerIZNS_7FindAllINS_8GetLocalEEC4EPNS_10ExpressionEE6FinderNS_24UnifiedExpressionVisitorIS6_vEEE10doVisitNopEPS6_PS5_
_ZN4wasm6WalkerIZNS_7FindAllINS_8GetLocalEEC4EPNS_10ExpressionEE6FinderNS_24UnifiedExpressionVisitorIS6_vEEE11doVisitHostEPS6_PS5_
_ZN4wasm6WalkerIZNS_7FindAllINS_8GetLocalEEC4EPNS_10ExpressionEE6FinderNS_24UnifiedExpressionVisitorIS6_vEEE13doVisitReturnEPS6_PS5_
_ZN4wasm6WalkerIZNS_7FindAllINS_8GetLocalEEC4EPNS_10ExpressionEE6FinderNS_24UnifiedExpressionVisitorIS6_vEEE11doVisitDropEPS6_PS5_
_ZN4wasm6WalkerIZNS_7FindAllINS_8GetLocalEEC4EPNS_10ExpressionEE6FinderNS_24UnifiedExpressionVisitorIS6_vEEE13doVisitSelectEPS6_PS5_
_ZN4wasm6WalkerIZNS_7FindAllINS_8GetLocalEEC4EPNS_10ExpressionEE6FinderNS_24UnifiedExpressionVisitorIS6_vEEE13doVisitBinaryEPS6_PS5_
_ZN4wasm6WalkerIZNS_7FindAllINS_8GetLocalEEC4EPNS_10ExpressionEE6FinderNS_24UnifiedExpressionVisitorIS6_vEEE12doVisitUnaryEPS6_PS5_
_ZN4wasm6WalkerIZNS_7FindAllINS_8GetLocalEEC4EPNS_10ExpressionEE6FinderNS_24UnifiedExpressionVisitorIS6_vEEE12doVisitConstEPS6_PS5_
_ZN4wasm6WalkerIZNS_7FindAllINS_8GetLocalEEC4EPNS_10ExpressionEE6FinderNS_24UnifiedExpressionVisitorIS6_vEEE17doVisitAtomicWakeEPS6_PS5_
_ZN4wasm6WalkerIZNS_7FindAllINS_8GetLocalEEC4EPNS_10ExpressionEE6FinderNS_24UnifiedExpressionVisitorIS6_vEEE17doVisitAtomicWaitEPS6_PS5_
_ZN4wasm6WalkerIZNS_7FindAllINS_8GetLocalEEC4EPNS_10ExpressionEE6FinderNS_24UnifiedExpressionVisitorIS6_vEEE20doVisitAtomicCmpxchgEPS6_PS5_
_ZN4wasm6WalkerIZNS_7FindAllINS_8GetLocalEEC4EPNS_10ExpressionEE6FinderNS_24UnifiedExpressionVisitorIS6_vEEE16doVisitAtomicRMWEPS6_PS5_
_ZN4wasm6WalkerIZNS_7FindAllINS_8GetLocalEEC4EPNS_10ExpressionEE6FinderNS_24UnifiedExpressionVisitorIS6_vEEE12doVisitStoreEPS6_PS5_
_ZN4wasm6WalkerIZNS_7FindAllINS_8GetLocalEEC4EPNS_10ExpressionEE6FinderNS_24UnifiedExpressionVisitorIS6_vEEE11doVisitLoadEPS6_PS5_
_ZN4wasm6WalkerIZNS_7FindAllINS_8GetLocalEEC4EPNS_10ExpressionEE6FinderNS_24UnifiedExpressionVisitorIS6_vEEE16doVisitSetGlobalEPS6_PS5_
_ZN4wasm6WalkerIZNS_7FindAllINS_8GetLocalEEC4EPNS_10ExpressionEE6FinderNS_24UnifiedExpressionVisitorIS6_vEEE16doVisitGetGlobalEPS6_PS5_
_ZN4wasm6WalkerIZNS_7FindAllINS_8GetLocalEEC4EPNS_10ExpressionEE6FinderNS_24UnifiedExpressionVisitorIS6_vEEE15doVisitSetLocalEPS6_PS5_
_ZN4wasm6WalkerIZNS_7FindAllINS_8GetLocalEEC4EPNS_10ExpressionEE6FinderNS_24UnifiedExpressionVisitorIS6_vEEE19doVisitCallIndirectEPS6_PS5_
_ZN4wasm6WalkerIZNS_7FindAllINS_8GetLocalEEC4EPNS_10ExpressionEE6FinderNS_24UnifiedExpressionVisitorIS6_vEEE17doVisitCallImportEPS6_PS5_
_ZN4wasm6WalkerIZNS_7FindAllINS_8GetLocalEEC4EPNS_10ExpressionEE6FinderNS_24UnifiedExpressionVisitorIS6_vEEE11doVisitCallEPS6_PS5_
_ZN4wasm6WalkerIZNS_7FindAllINS_8GetLocalEEC4EPNS_10ExpressionEE6FinderNS_24UnifiedExpressionVisitorIS6_vEEE13doVisitSwitchEPS6_PS5_
_ZN4wasm6WalkerIZNS_7FindAllINS_8GetLocalEEC4EPNS_10ExpressionEE6FinderNS_24UnifiedExpressionVisitorIS6_vEEE12doVisitBreakEPS6_PS5_
_ZN4wasm6WalkerIZNS_7FindAllINS_8GetLocalEEC4EPNS_10ExpressionEE6FinderNS_24UnifiedExpressionVisitorIS6_vEEE11doVisitLoopEPS6_PS5_
_ZN4wasm6WalkerIZNS_7FindAllINS_8GetLocalEEC4EPNS_10ExpressionEE6FinderNS_24UnifiedExpressionVisitorIS6_vEEE9doVisitIfEPS6_PS5_
_ZN4wasm6WalkerIZNS_7FindAllINS_8GetLocalEEC4EPNS_10ExpressionEE6FinderNS_24UnifiedExpressionVisitorIS6_vEEE12doVisitBlockEPS6_PS5_
_ZN4wasm6WalkerIZNS_7FindAllINS_8GetLocalEEC4EPNS_10ExpressionEE6FinderNS_24UnifiedExpressionVisitorIS6_vEEE15doVisitGetLocalEPS6_PS5_
_ZN4wasm10LocalGraph13isUnreachableERSt6vectorISt3setIPNS_8SetLocalESt4lessIS4_ESaIS4_EESaIS8_EE
_ZNSt8_Rb_treeIPN4wasm10ExpressionESt4pairIKS2_PS2_ESt10_Select1stIS6_ESt4lessIS2_ESaIS6_EE8_M_eraseEPSt13_Rb_tree_nodeIS6_E
_ZNSt8_Rb_treeIN4wasm4NameESt4pairIKS1_St6vectorIS4_ISt3setIPNS0_8SetLocalESt4lessIS7_ESaIS7_EESaISB_EESaISD_EEESt10_Select1stISG_ES8_IS1_ESaISG_EE4findERS3_
_ZNSt8_Rb_treeIN4wasm4NameES1_St9_IdentityIS1_ESt4lessIS1_ESaIS1_EE8_M_eraseEPSt13_Rb_tree_nodeIS1_E
_ZNSt8_Rb_treeIN4wasm4NameES1_St9_IdentityIS1_ESt4lessIS1_ESaIS1_EE16_M_insert_uniqueIRKS1_EESt4pairISt17_Rb_tree_iteratorIS1_EbEOT_
_ZNSt8_Rb_treeIN4wasm4NameESt4pairIKS1_St6vectorIS4_ISt3setIPNS0_8SetLocalESt4lessIS7_ESaIS7_EESaISB_EESaISD_EEESt10_Select1stISG_ES8_IS1_ESaISG_EE11equal_rangeERS3_
_ZNSt6vectorIS_IPN4wasm8GetLocalESaIS2_EESaIS4_EE17_M_realloc_insertIJS4_EEEvN9__gnu_cxx17__normal_iteratorIPS4_S6_EEDpOT_
_ZNSt8_Rb_treeIPN4wasm8SetLocalES2_St9_IdentityIS2_ESt4lessIS2_ESaIS2_EE24_M_get_insert_unique_posERKS2_
_ZNSt8_Rb_treeIPN4wasm8SetLocalES2_St9_IdentityIS2_ESt4lessIS2_ESaIS2_EE16_M_insert_uniqueIRKS2_EESt4pairISt17_Rb_tree_iteratorIS2_EbEOT_
_ZN4wasm10LocalGraph5mergeERSt6vectorIS1_ISt3setIPNS_8SetLocalESt4lessIS4_ESaIS4_EESaIS8_EESaISA_EE
_ZNSt8_Rb_treeIPN4wasm8SetLocalES2_St9_IdentityIS2_ESt4lessIS2_ESaIS2_EE8_M_eraseEPSt13_Rb_tree_nodeIS2_E
_ZNSt6vectorISt3setIPN4wasm8SetLocalESt4lessIS3_ESaIS3_EESaIS7_EED2Ev
_ZNSt6vectorISt3setIPN4wasm8SetLocalESt4lessIS3_ESaIS3_EESaIS7_EED1Ev
_ZNSt8_Rb_treeIPN4wasm8GetLocalESt4pairIKS2_St3setIPNS0_8SetLocalESt4lessIS7_ESaIS7_EEESt10_Select1stISC_ES8_IS2_ESaISC_EE8_M_eraseEPSt13_Rb_tree_nodeISC_E
_ZNSt6vectorISt3setIPN4wasm8SetLocalESt4lessIS3_ESaIS3_EESaIS7_EE17_M_default_appendEm
_ZN4wasm10LocalGraph14setUnreachableERSt6vectorISt3setIPNS_8SetLocalESt4lessIS4_ESaIS4_EESaIS8_EE
_ZN4wasm10LocalGraph11visitReturnEPNS_6ReturnE
_ZN4wasm6WalkerINS_10LocalGraphENS_7VisitorIS1_vEEE13doVisitReturnEPS1_PPNS_10ExpressionE
_ZN4wasm10LocalGraph16visitUnreachableEPNS_11UnreachableE
_ZN4wasm6WalkerINS_10LocalGraphENS_7VisitorIS1_vEEE18doVisitUnreachableEPS1_PPNS_10ExpressionE
_ZNSt6vectorIS_ISt3setIPN4wasm8SetLocalESt4lessIS3_ESaIS3_EESaIS7_EESaIS9_EED2Ev
_ZNSt6vectorIS_ISt3setIPN4wasm8SetLocalESt4lessIS3_ESaIS3_EESaIS7_EESaIS9_EED1Ev
_ZNSt8_Rb_treeIN4wasm4NameESt4pairIKS1_St6vectorIS4_ISt3setIPNS0_8SetLocalESt4lessIS7_ESaIS7_EESaISB_EESaISD_EEESt10_Select1stISG_ES8_IS1_ESaISG_EE8_M_eraseEPSt13_Rb_tree_nodeISG_E
_ZNSt8_Rb_treeIN4wasm4NameESt4pairIKS1_St6vectorIS4_ISt3setIPNS0_8SetLocalESt4lessIS7_ESaIS7_EESaISB_EESaISD_EEESt10_Select1stISG_ES8_IS1_ESaISG_EE5eraseERS3_
_ZNSt6vectorIS_ISt3setIPN4wasm8SetLocalESt4lessIS3_ESaIS3_EESaIS7_EESaIS9_EE17_M_realloc_insertIJS9_EEEvN9__gnu_cxx17__normal_iteratorIPS9_SB_EEDpOT_
_ZNSt6vectorIS_ISt3setIPN4wasm8SetLocalESt4lessIS3_ESaIS3_EESaIS7_EESaIS9_EE12emplace_backIJS9_EEEvDpOT_
_ZN4wasm10LocalGraph8finishIfEv
_ZN4wasm10LocalGraph11afterIfTrueEPS0_PPNS_10ExpressionE
_ZN4wasm10LocalGraph12afterIfFalseEPS0_PPNS_10ExpressionE
_ZNSt8_Rb_treeIPN4wasm8SetLocalES2_St9_IdentityIS2_ESt4lessIS2_ESaIS2_EE7_M_copyINS8_20_Reuse_or_alloc_nodeEEEPSt13_Rb_tree_nodeIS2_EPKSC_PSt18_Rb_tree_node_baseRT_
_ZNSt8_Rb_treeIPN4wasm8SetLocalES2_St9_IdentityIS2_ESt4lessIS2_ESaIS2_EEaSERKS8_
_ZNSt6vectorIN4wasm6WalkerINS0_10LocalGraphENS0_7VisitorIS2_vEEE4TaskESaIS6_EE17_M_realloc_insertIJRPFvPS2_PPNS0_10ExpressionEERSD_EEEvN9__gnu_cxx17__normal_iteratorIPS6_S8_EEDpOT_
_ZNSt6vectorIN4wasm6WalkerINS0_10LocalGraphENS0_7VisitorIS2_vEEE4TaskESaIS6_EE12emplace_backIJRPFvPS2_PPNS0_10ExpressionEERSD_EEEvDpOT_
_ZN4wasm10PostWalkerINS_10LocalGraphENS_7VisitorIS1_vEEE4scanEPS1_PPNS_10ExpressionE
_ZN4wasm10LocalGraph4scanEPS0_PPNS_10ExpressionE
_ZN4wasm6WalkerINS_10LocalGraphENS_7VisitorIS1_vEEE13doVisitSwitchEPS1_PPNS_10ExpressionE
_ZN4wasm6WalkerINS_10LocalGraphENS_7VisitorIS1_vEEE12doVisitBreakEPS1_PPNS_10ExpressionE
_ZN4wasm6WalkerINS_10LocalGraphENS_7VisitorIS1_vEEE11doVisitLoopEPS1_PPNS_10ExpressionE
_ZN4wasm6WalkerINS_10LocalGraphENS_7VisitorIS1_vEEE12doVisitBlockEPS1_PPNS_10ExpressionE
_ZN4wasm6WalkerINS_10LocalGraphENS_7VisitorIS1_vEEE15doVisitGetLocalEPS1_PPNS_10ExpressionE
_ZN4wasm6WalkerINS_10LocalGraphENS_7VisitorIS1_vEEE15doVisitSetLocalEPS1_PPNS_10ExpressionE
_ZN4wasm10LocalGraph16afterIfConditionEPS0_PPNS_10ExpressionE
_ZN4wasm10LocalGraph10beforeLoopEPS0_PPNS_10ExpressionE
_ZNSt10_HashtableIPN4wasm8GetLocalESt4pairIKS2_St13unordered_setIPNS0_8SetLocalESt4hashIS7_ESt8equal_toIS7_ESaIS7_EEESaISE_ENSt8__detail10_Select1stESA_IS2_ES8_IS2_ENSG_18_Mod_range_hashingENSG_20_Default_ranged_hashENSG_20_Prime_rehash_policyENSG_17_Hashtable_traitsILb0ELb0ELb1EEEE9_M_rehashEmRKm
_ZNSt8_Rb_treeIPN4wasm8GetLocalESt4pairIKS2_St3setIPNS0_8SetLocalESt4lessIS7_ESaIS7_EEESt10_Select1stISC_ES8_IS2_ESaISC_EE24_M_get_insert_unique_posERS4_
_ZNSt8_Rb_treeIPN4wasm8GetLocalESt4pairIKS2_St3setIPNS0_8SetLocalESt4lessIS7_ESaIS7_EEESt10_Select1stISC_ES8_IS2_ESaISC_EE29_M_get_insert_hint_unique_posESt23_Rb_tree_const_iteratorISC_ERS4_
_ZNSt8_Rb_treeIPN4wasm8GetLocalESt4pairIKS2_St3setIPNS0_8SetLocalESt4lessIS7_ESaIS7_EEESt10_Select1stISC_ES8_IS2_ESaISC_EE22_M_emplace_hint_uniqueIJRKSt21piecewise_construct_tSt5tupleIJRS4_EESM_IJEEEEESt17_Rb_tree_iteratorISC_ESt23_Rb_tree_const_iteratorISC_EDpOT_
_ZNSt10_HashtableIPN4wasm8SetLocalESt4pairIKS2_St13unordered_setIPNS0_8GetLocalESt4hashIS7_ESt8equal_toIS7_ESaIS7_EEESaISE_ENSt8__detail10_Select1stESA_IS2_ES8_IS2_ENSG_18_Mod_range_hashingENSG_20_Default_ranged_hashENSG_20_Prime_rehash_policyENSG_17_Hashtable_traitsILb0ELb0ELb1EEEE9_M_rehashEmRKm
_ZNSt8_Rb_treeIPN4wasm8SetLocalES2_St9_IdentityIS2_ESt4lessIS2_ESaIS2_EE29_M_get_insert_hint_unique_posESt23_Rb_tree_const_iteratorIS2_ERKS2_
_ZNSt8_Rb_treeIPN4wasm8SetLocalES2_St9_IdentityIS2_ESt4lessIS2_ESaIS2_EE16_M_assign_uniqueIPKS2_EEvT_SC_
_ZN4wasm10LocalGraph14doWalkFunctionEPNS_8FunctionE
_ZNSt8_Rb_treeIN4wasm4NameESt4pairIKS1_St6vectorIS4_ISt3setIPNS0_8SetLocalESt4lessIS7_ESaIS7_EESaISB_EESaISD_EEESt10_Select1stISG_ES8_IS1_ESaISG_EE24_M_get_insert_unique_posERS3_
_ZNSt8_Rb_treeIN4wasm4NameESt4pairIKS1_St6vectorIS4_ISt3setIPNS0_8SetLocalESt4lessIS7_ESaIS7_EESaISB_EESaISD_EEESt10_Select1stISG_ES8_IS1_ESaISG_EE29_M_get_insert_hint_unique_posESt23_Rb_tree_const_iteratorISG_ERS3_
_ZNSt8_Rb_treeIN4wasm4NameESt4pairIKS1_St6vectorIS4_ISt3setIPNS0_8SetLocalESt4lessIS7_ESaIS7_EESaISB_EESaISD_EEESt10_Select1stISG_ES8_IS1_ESaISG_EE22_M_emplace_hint_uniqueIJRKSt21piecewise_construct_tSt5tupleIJRS3_EESQ_IJEEEEESt17_Rb_tree_iteratorISG_ESt23_Rb_tree_const_iteratorISG_EDpOT_
_ZN4wasm10LocalGraph10visitBlockEPNS_5BlockE
_ZNSt8_Rb_treeIPN4wasm10ExpressionESt4pairIKS2_PS2_ESt10_Select1stIS6_ESt4lessIS2_ESaIS6_EE24_M_get_insert_unique_posERS4_
_ZNSt8_Rb_treeIPN4wasm10ExpressionESt4pairIKS2_PS2_ESt10_Select1stIS6_ESt4lessIS2_ESaIS6_EE29_M_get_insert_hint_unique_posESt23_Rb_tree_const_iteratorIS6_ERS4_
_ZNSt8_Rb_treeIPN4wasm10ExpressionESt4pairIKS2_PS2_ESt10_Select1stIS6_ESt4lessIS2_ESaIS6_EE22_M_emplace_hint_uniqueIJRKSt21piecewise_construct_tSt5tupleIJOS2_EESH_IJEEEEESt17_Rb_tree_iteratorIS6_ESt23_Rb_tree_const_iteratorIS6_EDpOT_
_ZN4wasm10LocalGraph13visitGetLocalEPNS_8GetLocalE
_ZN4wasm10LocalGraph13visitSetLocalEPNS_8SetLocalE
_ZNSt6vectorIN4wasm6WalkerIZNS0_7FindAllINS0_8GetLocalEEC4EPNS0_10ExpressionEE6FinderNS0_24UnifiedExpressionVisitorIS7_vEEE4TaskESaISB_EE17_M_realloc_insertIJRPFvPS7_PS6_ERSG_EEEvN9__gnu_cxx17__normal_iteratorIPSB_SD_EEDpOT_
_ZNSt6vectorIN4wasm6WalkerIZNS0_7FindAllINS0_8GetLocalEEC4EPNS0_10ExpressionEE6FinderNS0_24UnifiedExpressionVisitorIS7_vEEE4TaskESaISB_EE12emplace_backIJRPFvPS7_PS6_ERSG_EEEvDpOT_
_ZN4wasm10PostWalkerIZNS_7FindAllINS_8GetLocalEEC4EPNS_10ExpressionEE6FinderNS_24UnifiedExpressionVisitorIS6_vEEE4scanEPS6_PS5_
_ZNSt10_HashtableIPN4wasm8SetLocalES2_SaIS2_ENSt8__detail9_IdentityESt8equal_toIS2_ESt4hashIS2_ENS4_18_Mod_range_hashingENS4_20_Default_ranged_hashENS4_20_Prime_rehash_policyENS4_17_Hashtable_traitsILb0ELb1ELb1EEEE9_M_rehashEmRKm
_ZNSt10_HashtableIPN4wasm8GetLocalES2_SaIS2_ENSt8__detail9_IdentityESt8equal_toIS2_ESt4hashIS2_ENS4_18_Mod_range_hashingENS4_20_Default_ranged_hashENS4_20_Prime_rehash_policyENS4_17_Hashtable_traitsILb0ELb1ELb1EEEE9_M_rehashEmRKm
_ZNSt6vectorIPN4wasm8SetLocalESaIS2_EE17_M_realloc_insertIJRKS2_EEEvN9__gnu_cxx17__normal_iteratorIPS2_S4_EEDpOT_
_ZSt18__set_intersectionISt23_Rb_tree_const_iteratorIPN4wasm8SetLocalEES4_St20back_insert_iteratorISt6vectorIS3_SaIS3_EEEN9__gnu_cxx5__ops15_Iter_less_iterEET1_T_SE_T0_SF_SD_T2_
_ZNSt10_HashtableIPN4wasm8SetLocalES2_SaIS2_ENSt8__detail9_IdentityESt8equal_toIS2_ESt4hashIS2_ENS4_18_Mod_range_hashingENS4_20_Default_ranged_hashENS4_20_Prime_rehash_policyENS4_17_Hashtable_traitsILb0ELb1ELb1EEEED2Ev
_ZNSt10_HashtableIPN4wasm8SetLocalES2_SaIS2_ENSt8__detail9_IdentityESt8equal_toIS2_ESt4hashIS2_ENS4_18_Mod_range_hashingENS4_20_Default_ranged_hashENS4_20_Prime_rehash_policyENS4_17_Hashtable_traitsILb0ELb1ELb1EEEED1Ev
_ZNSt8__detail9_Map_baseIPN4wasm8GetLocalESt4pairIKS3_St13unordered_setIPNS1_8SetLocalESt4hashIS8_ESt8equal_toIS8_ESaIS8_EEESaISF_ENS_10_Select1stESB_IS3_ES9_IS3_ENS_18_Mod_range_hashingENS_20_Default_ranged_hashENS_20_Prime_rehash_policyENS_17_Hashtable_traitsILb0ELb0ELb1EEELb1EEixERS5_
_ZNSt10_HashtableIPN4wasm8GetLocalES2_SaIS2_ENSt8__detail9_IdentityESt8equal_toIS2_ESt4hashIS2_ENS4_18_Mod_range_hashingENS4_20_Default_ranged_hashENS4_20_Prime_rehash_policyENS4_17_Hashtable_traitsILb0ELb1ELb1EEEED2Ev
_ZNSt10_HashtableIPN4wasm8GetLocalES2_SaIS2_ENSt8__detail9_IdentityESt8equal_toIS2_ESt4hashIS2_ENS4_18_Mod_range_hashingENS4_20_Default_ranged_hashENS4_20_Prime_rehash_policyENS4_17_Hashtable_traitsILb0ELb1ELb1EEEED1Ev
_ZN4wasm10LocalGraphC2EPNS_8FunctionEPNS_6ModuleE
_ZN4wasm10LocalGraphC1EPNS_8FunctionEPNS_6ModuleE
_ZNSt8__detail9_Map_baseIPN4wasm8SetLocalESt4pairIKS3_St13unordered_setIPNS1_8GetLocalESt4hashIS8_ESt8equal_toIS8_ESaIS8_EEESaISF_ENS_10_Select1stESB_IS3_ES9_IS3_ENS_18_Mod_range_hashingENS_20_Default_ranged_hashENS_20_Prime_rehash_policyENS_17_Hashtable_traitsILb0ELb0ELb1EEELb1EEixERS5_
_ZN4wasm10LocalGraph17computeInfluencesEv
_ZNSt8_Rb_treeIPN4wasm8SetLocalES2_St9_IdentityIS2_ESt4lessIS2_ESaIS2_EE7_M_copyINS8_11_Alloc_nodeEEEPSt13_Rb_tree_nodeIS2_EPKSC_PSt18_Rb_tree_node_baseRT_
_ZN4wasm10LocalGraph9visitLoopEPNS_4LoopE
_ZNSt6vectorIS_ISt3setIPN4wasm8SetLocalESt4lessIS3_ESaIS3_EESaIS7_EESaIS9_EE17_M_realloc_insertIJRKS9_EEEvN9__gnu_cxx17__normal_iteratorIPS9_SB_EEDpOT_
_ZNSt6vectorIS_ISt3setIPN4wasm8SetLocalESt4lessIS3_ESaIS3_EESaIS7_EESaIS9_EE17_M_realloc_insertIJRS9_EEEvN9__gnu_cxx17__normal_iteratorIPS9_SB_EEDpOT_
_ZNSt6vectorIS_ISt3setIPN4wasm8SetLocalESt4lessIS3_ESaIS3_EESaIS7_EESaIS9_EE12emplace_backIJRS9_EEEvDpOT_
_ZN4wasm10LocalGraph10visitBreakEPNS_5BreakE
_ZN4wasm10LocalGraph11visitSwitchEPNS_6SwitchE
_ZNSt17_Function_handlerIFPN4wasm4PassEvEPS3_E9_M_invokeERKSt9_Any_data
_ZNSt14_Function_base13_Base_managerIPFPN4wasm4PassEvEE10_M_managerERSt9_Any_dataRKS7_St18_Manager_operation
_ZTIPFPN4wasm4PassEvE
_ZN4wasm10PassRunnerD2Ev
_ZN4wasm10PassRunner17runPassOnFunctionEPNS_4PassEPNS_8FunctionE
_ZN4wasm10PassRunner11runFunctionEPNS_8FunctionE
_ZN4wasm10PassRunner12getPassDebugEv
strtol
_ZNSt8functionIFPN4wasm4PassEvEEC2ERKS4_
_ZNSt8functionIFPN4wasm4PassEvEEC1ERKS4_
_ZNSt7__cxx1115basic_stringbufIcSt11char_traitsIcESaIcEED2Ev
_ZNSt7__cxx1115basic_stringbufIcSt11char_traitsIcESaIcEED1Ev
_ZNSt7__cxx1115basic_stringbufIcSt11char_traitsIcESaIcEED0Ev
_ZNSt6vectorISt8functionIFN4wasm15ThreadWorkStateEvEESaIS4_EED2Ev
_ZNSt6vectorISt8functionIFN4wasm15ThreadWorkStateEvEESaIS4_EED1Ev
_ZNSt8_Rb_treeINSt7__cxx1112basic_stringIcSt11char_traitsIcESaIcEEESt4pairIKS5_N4wasm12PassRegistry8PassInfoEESt10_Select1stISB_ESt4lessIS5_ESaISB_EE8_M_eraseEPSt13_Rb_tree_nodeISB_E
_ZN4wasm12PassRegistryD2Ev
_ZN4wasm12PassRegistryD1Ev
_ZNSt8_Rb_treeINSt7__cxx1112basic_stringIcSt11char_traitsIcESaIcEEESt4pairIKS5_N4wasm12PassRegistry8PassInfoEESt10_Select1stISB_ESt4lessIS5_ESaISB_EE4findERS7_
_ZNSt6vectorIPN4wasm4PassESaIS2_EE17_M_realloc_insertIJRKS2_EEEvN9__gnu_cxx17__normal_iteratorIPS2_S4_EEDpOT_
_ZNSt8_Rb_treeINSt7__cxx1112basic_stringIcSt11char_traitsIcESaIcEEESt4pairIKS5_N4wasm12PassRegistry8PassInfoEESt10_Select1stISB_ESt4lessIS5_ESaISB_EE14_M_insert_nodeEPSt18_Rb_tree_node_baseSJ_PSt13_Rb_tree_nodeISB_E
_ZNSt6vectorISt8functionIFN4wasm15ThreadWorkStateEvEESaIS4_EE17_M_realloc_insertIJS4_EEEvN9__gnu_cxx17__normal_iteratorIPS4_S6_EEDpOT_
_ZNSt6vectorINSt7__cxx1112basic_stringIcSt11char_traitsIcESaIcEEESaIS5_EE17_M_realloc_insertIJRKS5_EEEvN9__gnu_cxx17__normal_iteratorIPS5_S7_EEDpOT_
_ZN4wasm12PassRegistry18getRegisteredNamesB5cxx11Ev
_ZNSt6chrono3_V212steady_clock3nowEv
_ZN4wasm10ThreadPool3getEv
_ZN4wasm10ThreadPool4sizeEv
_ZN4wasm10ThreadPool4workERSt6vectorISt8functionIFNS_15ThreadWorkStateEvEESaIS5_EE
_ZN4wasm11WasmPrinter11printModuleEPNS_6ModuleE
__cxa_guard_abort
_ZN6Colors7disableEv
fopen
fputs
fclose
_ZNSt8_Rb_treeINSt7__cxx1112basic_stringIcSt11char_traitsIcESaIcEEESt4pairIKS5_N4wasm12PassRegistry8PassInfoEESt10_Select1stISB_ESt4lessIS5_ESaISB_EE24_M_get_insert_unique_posERS7_
_ZNSt8_Rb_treeINSt7__cxx1112basic_stringIcSt11char_traitsIcESaIcEEESt4pairIKS5_N4wasm12PassRegistry8PassInfoEESt10_Select1stISB_ESt4lessIS5_ESaISB_EE29_M_get_insert_hint_unique_posESt23_Rb_tree_const_iteratorISB_ERS7_
_ZN4wasm12PassRegistry12registerPassEPKcS2_St8functionIFPNS_4PassEvEE
_ZN4wasm12PassRegistry14registerPassesEv
_ZN4wasm24createCoalesceLocalsPassEv
_ZN4wasm36createCoalesceLocalsWithLearningPassEv
_ZN4wasm21createCodePushingPassEv
_ZN4wasm21createCodeFoldingPassEv
_ZN4wasm23createConstHoistingPassEv
_ZN4wasm29createDeadCodeEliminationPassEv
_ZN4wasm38createDuplicateFunctionEliminationPassEv
_ZN4wasm25createExtractFunctionPassEv
_ZN4wasm17createFlattenPassEv
_ZN4wasm18createInliningPassEv
_ZN4wasm28createInliningOptimizingPassEv
_ZN4wasm29createLegalizeJSInterfacePassEv
_ZN4wasm18createLocalCSEPassEv
_ZN4wasm22createLogExecutionPassEv
_ZN4wasm26createI64ToI32LoweringPassEv
_ZN4wasm26createInstrumentLocalsPassEv
_ZN4wasm26createInstrumentMemoryPassEv
_ZN4wasm23createMemoryPackingPassEv
_ZN4wasm21createMergeBlocksPassEv
_ZN4wasm17createMetricsPassEv
_ZN4wasm18createNameListPassEv
_ZN4wasm30createOptimizeInstructionsPassEv
_ZN4wasm23createPickLoadSignsPassEv
_ZN4wasm24createPostEmscriptenPassEv
_ZN4wasm20createPrecomputePassEv
_ZN4wasm29createPrecomputePropagatePassEv
_ZN4wasm17createPrinterPassEv
_ZN4wasm25createMinifiedPrinterPassEv
_ZN4wasm21createFullPrinterPassEv
_ZN4wasm24createPrintCallGraphPassEv
_ZN4wasm31createRelooperJumpThreadingPassEv
_ZN4wasm23createRemoveImportsPassEv
_ZN4wasm22createRemoveMemoryPassEv
_ZN4wasm25createRemoveUnusedBrsPassEv
_ZN4wasm36createRemoveUnusedModuleElementsPassEv
_ZN4wasm27createRemoveUnusedNamesPassEv
_ZN4wasm26createReorderFunctionsPassEv
_ZN4wasm23createReorderLocalsPassEv
_ZN4wasm18createReReloopPassEv
_ZN4wasm24createSimplifyLocalsPassEv
_ZN4wasm18createSafeHeapPassEv
_ZN4wasm29createSimplifyLocalsNoTeePassEv
_ZN4wasm35createSimplifyLocalsNoStructurePassEv
_ZN4wasm40createSimplifyLocalsNoTeeNoStructurePassEv
_ZN4wasm16createSSAifyPassEv
_ZN4wasm19createTrapModeClampEv
_ZN4wasm16createTrapModeJSEv
_ZN4wasm15createUnteePassEv
_ZN4wasm16createVacuumPassEv
_ZN4wasm12PassRegistryC2Ev
_ZN4wasm12PassRegistryC1Ev
_ZNSt8_Rb_treeINSt7__cxx1112basic_stringIcSt11char_traitsIcESaIcEEESt4pairIKS5_N4wasm12PassRegistry8PassInfoEESt10_Select1stISB_ESt4lessIS5_ESaISB_EE22_M_emplace_hint_uniqueIJRKSt21piecewise_construct_tSt5tupleIJRS7_EESM_IJEEEEESt17_Rb_tree_iteratorISB_ESt23_Rb_tree_const_iteratorISB_EDpOT_
_ZN4wasm10PassRunner37addDefaultGlobalOptimizationPrePassesEv
_ZN4wasm10PassRunner38addDefaultGlobalOptimizationPostPassesEv
_ZN4wasm10PassRunner36addDefaultFunctionOptimizationPassesEv
_ZN4wasm12PassRegistry18getPassDescriptionENSt7__cxx1112basic_stringIcSt11char_traitsIcESaIcEEE
_ZTSFPN4wasm4PassEvE
_ZTIFPN4wasm4PassEvE
_ZTVN10__cxxabiv120__function_type_infoE
_ZTSPFPN4wasm4PassEvE
_ZTVN10__cxxabiv119__pointer_type_infoE
_ZN4wasm14CoalesceLocals18isFunctionParallelEv
_ZN4wasm9CFGWalkerINS_14CoalesceLocalsENS_7VisitorIS1_vEENS_8LivenessEE23doStartUnreachableBlockEPS1_PPNS_10ExpressionE
_ZN4wasm6WalkerINS_14CoalesceLocalsENS_7VisitorIS1_vEEE12doVisitBlockEPS1_PPNS_10ExpressionE
_ZN4wasm6WalkerINS_14CoalesceLocalsENS_7VisitorIS1_vEEE9doVisitIfEPS1_PPNS_10ExpressionE
_ZN4wasm6WalkerINS_14CoalesceLocalsENS_7VisitorIS1_vEEE11doVisitLoopEPS1_PPNS_10ExpressionE
_ZN4wasm6WalkerINS_14CoalesceLocalsENS_7VisitorIS1_vEEE12doVisitBreakEPS1_PPNS_10ExpressionE
_ZN4wasm6WalkerINS_14CoalesceLocalsENS_7VisitorIS1_vEEE13doVisitSwitchEPS1_PPNS_10ExpressionE
_ZN4wasm6WalkerINS_14CoalesceLocalsENS_7VisitorIS1_vEEE11doVisitCallEPS1_PPNS_10ExpressionE
_ZN4wasm6WalkerINS_14CoalesceLocalsENS_7VisitorIS1_vEEE17doVisitCallImportEPS1_PPNS_10ExpressionE
_ZN4wasm6WalkerINS_14CoalesceLocalsENS_7VisitorIS1_vEEE19doVisitCallIndirectEPS1_PPNS_10ExpressionE
_ZN4wasm6WalkerINS_14CoalesceLocalsENS_7VisitorIS1_vEEE16doVisitGetGlobalEPS1_PPNS_10ExpressionE
_ZN4wasm6WalkerINS_14CoalesceLocalsENS_7VisitorIS1_vEEE16doVisitSetGlobalEPS1_PPNS_10ExpressionE
_ZN4wasm6WalkerINS_14CoalesceLocalsENS_7VisitorIS1_vEEE11doVisitLoadEPS1_PPNS_10ExpressionE
_ZN4wasm6WalkerINS_14CoalesceLocalsENS_7VisitorIS1_vEEE12doVisitStoreEPS1_PPNS_10ExpressionE
_ZN4wasm6WalkerINS_14CoalesceLocalsENS_7VisitorIS1_vEEE16doVisitAtomicRMWEPS1_PPNS_10ExpressionE
_ZN4wasm6WalkerINS_14CoalesceLocalsENS_7VisitorIS1_vEEE20doVisitAtomicCmpxchgEPS1_PPNS_10ExpressionE
_ZN4wasm6WalkerINS_14CoalesceLocalsENS_7VisitorIS1_vEEE17doVisitAtomicWaitEPS1_PPNS_10ExpressionE
_ZN4wasm6WalkerINS_14CoalesceLocalsENS_7VisitorIS1_vEEE17doVisitAtomicWakeEPS1_PPNS_10ExpressionE
_ZN4wasm6WalkerINS_14CoalesceLocalsENS_7VisitorIS1_vEEE12doVisitConstEPS1_PPNS_10ExpressionE
_ZN4wasm6WalkerINS_14CoalesceLocalsENS_7VisitorIS1_vEEE12doVisitUnaryEPS1_PPNS_10ExpressionE
_ZN4wasm6WalkerINS_14CoalesceLocalsENS_7VisitorIS1_vEEE13doVisitBinaryEPS1_PPNS_10ExpressionE
_ZN4wasm6WalkerINS_14CoalesceLocalsENS_7VisitorIS1_vEEE13doVisitSelectEPS1_PPNS_10ExpressionE
_ZN4wasm6WalkerINS_14CoalesceLocalsENS_7VisitorIS1_vEEE11doVisitDropEPS1_PPNS_10ExpressionE
_ZN4wasm6WalkerINS_14CoalesceLocalsENS_7VisitorIS1_vEEE13doVisitReturnEPS1_PPNS_10ExpressionE
_ZN4wasm6WalkerINS_14CoalesceLocalsENS_7VisitorIS1_vEEE11doVisitHostEPS1_PPNS_10ExpressionE
_ZN4wasm6WalkerINS_14CoalesceLocalsENS_7VisitorIS1_vEEE10doVisitNopEPS1_PPNS_10ExpressionE
_ZN4wasm6WalkerINS_14CoalesceLocalsENS_7VisitorIS1_vEEE18doVisitUnreachableEPS1_PPNS_10ExpressionE
_ZN4wasm14CoalesceLocals6createEv
_ZTVN4wasm14CoalesceLocalsE
_ZN4wasm26CoalesceLocalsWithLearning6createEv
_ZTVN4wasm26CoalesceLocalsWithLearningE
_ZN4wasm17ControlFlowWalkerINS_14CoalesceLocalsENS_7VisitorIS1_vEEE22doPostVisitControlFlowEPS1_PPNS_10ExpressionE
_ZN4wasm14CoalesceLocals26increaseBackEdgePrioritiesEv
_ZN4wasm14CoalesceLocals22calculateInterferencesERKNS_8LocalSetE
_ZNSt6vectorIjSaIjEEixEm
_ZNSt6vectorIN4wasm6ActionESaIS1_EE12emplace_backIJNS1_4WhatERjRPPNS0_10ExpressionEEEEvDpOT_
_ZNSt6vectorIjSaIjEEaSERKS1_
_ZN4wasm17ControlFlowWalkerINS_14CoalesceLocalsENS_7VisitorIS1_vEEE21doPreVisitControlFlowEPS1_PPNS_10ExpressionE
_ZNSt6vectorIjSaIjEE17_M_default_appendEm
_ZN4wasm8LocalSet6insertEj
_ZN4wasm23adjustOrderByPrioritiesERSt6vectorIjSaIjEES3_
_ZN4wasm14CoalesceLocals26scanLivenessThroughActionsERSt6vectorINS_6ActionESaIS2_EERNS_8LocalSetE
_ZN4wasm14CoalesceLocals25mergeStartsAndCheckChangeERSt6vectorIPNS_9CFGWalkerIS0_NS_7VisitorIS0_vEENS_8LivenessEE10BasicBlockESaIS8_EERNS_8LocalSetESD_
_ZNSt8_Rb_treeIPN4wasm10ExpressionESt4pairIKS2_St6vectorIPNS0_9CFGWalkerINS0_14CoalesceLocalsENS0_7VisitorIS7_vEENS0_8LivenessEE10BasicBlockESaISD_EEESt10_Select1stISG_ESt4lessIS2_ESaISG_EE8_M_eraseEPSt13_Rb_tree_nodeISG_E
_ZNSt8_Rb_treeIPN4wasm9CFGWalkerINS0_14CoalesceLocalsENS0_7VisitorIS2_vEENS0_8LivenessEE10BasicBlockESt4pairIKS8_mESt10_Select1stISB_ESt4lessIS8_ESaISB_EE8_M_eraseEPSt13_Rb_tree_nodeISB_E
_ZN4wasm10WalkerPassINS_9CFGWalkerINS_14CoalesceLocalsENS_7VisitorIS2_vEENS_8LivenessEEEED2Ev
_ZTVN4wasm10WalkerPassINS_9CFGWalkerINS_14CoalesceLocalsENS_7VisitorIS2_vEENS_8LivenessEEEEE
_ZN4wasm10WalkerPassINS_9CFGWalkerINS_14CoalesceLocalsENS_7VisitorIS2_vEENS_8LivenessEEEED1Ev
_ZN4wasm10WalkerPassINS_9CFGWalkerINS_14CoalesceLocalsENS_7VisitorIS2_vEENS_8LivenessEEEED0Ev
_ZNSt13_Bvector_baseISaIbEE13_M_deallocateEv
_ZNSt10_HashtableIPN4wasm9CFGWalkerINS0_14CoalesceLocalsENS0_7VisitorIS2_vEENS0_8LivenessEE10BasicBlockES8_SaIS8_ENSt8__detail9_IdentityESt8equal_toIS8_ESt4hashIS8_ENSA_18_Mod_range_hashingENSA_20_Default_ranged_hashENSA_20_Prime_rehash_policyENSA_17_Hashtable_traitsILb0ELb1ELb1EEEE5clearEv
_ZNSt10_HashtableIPN4wasm9CFGWalkerINS0_14CoalesceLocalsENS0_7VisitorIS2_vEENS0_8LivenessEE10BasicBlockES8_SaIS8_ENSt8__detail9_IdentityESt8equal_toIS8_ESt4hashIS8_ENSA_18_Mod_range_hashingENSA_20_Default_ranged_hashENSA_20_Prime_rehash_policyENSA_17_Hashtable_traitsILb0ELb1ELb1EEEED2Ev
_ZNSt10_HashtableIPN4wasm9CFGWalkerINS0_14CoalesceLocalsENS0_7VisitorIS2_vEENS0_8LivenessEE10BasicBlockES8_SaIS8_ENSt8__detail9_IdentityESt8equal_toIS8_ESt4hashIS8_ENSA_18_Mod_range_hashingENSA_20_Default_ranged_hashENSA_20_Prime_rehash_policyENSA_17_Hashtable_traitsILb0ELb1ELb1EEEED1Ev
_ZN4wasm14CoalesceLocalsD2Ev
_ZN4wasm14CoalesceLocalsD1Ev
_ZN4wasm26CoalesceLocalsWithLearningD2Ev
_ZN4wasm26CoalesceLocalsWithLearningD1Ev
_ZN4wasm26CoalesceLocalsWithLearningD0Ev
_ZN4wasm14CoalesceLocalsD0Ev
_ZNSt6vectorIhSaIhEE17_M_default_appendEm
_ZNSt10_HashtableIPN4wasm9CFGWalkerINS0_14CoalesceLocalsENS0_7VisitorIS2_vEENS0_8LivenessEE10BasicBlockES8_SaIS8_ENSt8__detail9_IdentityESt8equal_toIS8_ESt4hashIS8_ENSA_18_Mod_range_hashingENSA_20_Default_ranged_hashENSA_20_Prime_rehash_policyENSA_17_Hashtable_traitsILb0ELb1ELb1EEEE9_M_assignIZNSL_C4ERKSL_EUlPKNSA_10_Hash_nodeIS8_Lb0EEEE_EEvSO_RKT_
_ZNKSt10_HashtableIPN4wasm9CFGWalkerINS0_14CoalesceLocalsENS0_7VisitorIS2_vEENS0_8LivenessEE10BasicBlockES8_SaIS8_ENSt8__detail9_IdentityESt8equal_toIS8_ESt4hashIS8_ENSA_18_Mod_range_hashingENSA_20_Default_ranged_hashENSA_20_Prime_rehash_policyENSA_17_Hashtable_traitsILb0ELb1ELb1EEEE5countERKS8_
_ZN4wasm14CoalesceLocals22calculateInterferencesEv
_ZNSt6vectorIN4wasm8WasmTypeESaIS1_EE17_M_default_appendEm
_ZNSt6vectorIjSaIjEE12emplace_backIJjEEEvDpOT_
_ZN4wasm14CoalesceLocals15doVisitSetLocalEPS0_PPNS_10ExpressionE
_ZN4wasm14CoalesceLocals15doVisitGetLocalEPS0_PPNS_10ExpressionE
_ZN4wasm14CoalesceLocals12applyIndicesERSt6vectorIjSaIjEEPNS_10ExpressionE
_ZNSt10unique_ptrIN4wasm9CFGWalkerINS0_14CoalesceLocalsENS0_7VisitorIS2_vEENS0_8LivenessEE10BasicBlockESt14default_deleteIS7_EED2Ev
_ZNSt10unique_ptrIN4wasm9CFGWalkerINS0_14CoalesceLocalsENS0_7VisitorIS2_vEENS0_8LivenessEE10BasicBlockESt14default_deleteIS7_EED1Ev
_ZNSt6vectorIPN4wasm9CFGWalkerINS0_14CoalesceLocalsENS0_7VisitorIS2_vEENS0_8LivenessEE10BasicBlockESaIS8_EE8_M_eraseEN9__gnu_cxx17__normal_iteratorIPS8_SA_EESE_
_ZNSt6vectorIbSaIbEE14_M_fill_insertESt13_Bit_iteratormb
_ZN4wasm14CoalesceLocals20pickIndicesFromOrderERSt6vectorIjSaIjEES4_Rj
_ZN4wasm14CoalesceLocals20pickIndicesFromOrderERSt6vectorIjSaIjEES4_
_ZN4wasm14CoalesceLocals11pickIndicesERSt6vectorIjSaIjEE
_ZN4wasm8Function10getNumVarsEv
_ZNSt10_HashtableIPN4wasm9CFGWalkerINS0_14CoalesceLocalsENS0_7VisitorIS2_vEENS0_8LivenessEE10BasicBlockES8_SaIS8_ENSt8__detail9_IdentityESt8equal_toIS8_ESt4hashIS8_ENSA_18_Mod_range_hashingENSA_20_Default_ranged_hashENSA_20_Prime_rehash_policyENSA_17_Hashtable_traitsILb0ELb1ELb1EEEE5eraseENSA_20_Node_const_iteratorIS8_Lb1ELb0EEE
_ZNSt23mersenne_twister_engineImLm32ELm624ELm397ELm31ELm2567483615ELm11ELm4294967295ELm7ELm2636928640ELm15ELm4022730752ELm18ELm1812433253EEclEv
_ZNSt24uniform_int_distributionImEclISt23mersenne_twister_engineImLm32ELm624ELm397ELm31ELm2567483615ELm11ELm4294967295ELm7ELm2636928640ELm15ELm4022730752ELm18ELm1812433253EEEEmRT_RKNS0_10param_typeE
_ZSt7shuffleIN9__gnu_cxx17__normal_iteratorIPjSt6vectorIjSaIjEEEERSt23mersenne_twister_engineImLm32ELm624ELm397ELm31ELm2567483615ELm11ELm4294967295ELm7ELm2636928640ELm15ELm4022730752ELm18ELm1812433253EEEvT_SA_OT0_
_ZN4wasm26CoalesceLocalsWithLearning11pickIndicesERSt6vectorIjSaIjEE
_ZNSt6vectorISt10unique_ptrIN4wasm9CFGWalkerINS1_14CoalesceLocalsENS1_7VisitorIS3_vEENS1_8LivenessEE10BasicBlockESt14default_deleteIS8_EESaISB_EE17_M_realloc_insertIJSB_EEEvN9__gnu_cxx17__normal_iteratorIPSB_SD_EEDpOT_
_ZN4wasm9CFGWalkerINS_14CoalesceLocalsENS_7VisitorIS1_vEENS_8LivenessEE15startBasicBlockEv
_ZSt9__find_ifIN9__gnu_cxx17__normal_iteratorIPPN4wasm9CFGWalkerINS2_14CoalesceLocalsENS2_7VisitorIS4_vEENS2_8LivenessEE10BasicBlockESt6vectorISA_SaISA_EEEENS0_5__ops10_Iter_predIZNS8_16unlinkDeadBlocksESt13unordered_setISA_St4hashISA_ESt8equal_toISA_ESD_EEUlSA_E_EEET_SQ_SQ_T0_St26random_access_iterator_tag
_ZSt9__find_ifIN9__gnu_cxx17__normal_iteratorIPPN4wasm9CFGWalkerINS2_14CoalesceLocalsENS2_7VisitorIS4_vEENS2_8LivenessEE10BasicBlockESt6vectorISA_SaISA_EEEENS0_5__ops10_Iter_predIZNS8_16unlinkDeadBlocksESt13unordered_setISA_St4hashISA_ESt8equal_toISA_ESD_EEUlSA_E0_EEET_SQ_SQ_T0_St26random_access_iterator_tag
_ZNSt10_HashtableIPN4wasm9CFGWalkerINS0_14CoalesceLocalsENS0_7VisitorIS2_vEENS0_8LivenessEE10BasicBlockES8_SaIS8_ENSt8__detail9_IdentityESt8equal_toIS8_ESt4hashIS8_ENSA_18_Mod_range_hashingENSA_20_Default_ranged_hashENSA_20_Prime_rehash_policyENSA_17_Hashtable_traitsILb0ELb1ELb1EEEE9_M_rehashEmRKm
_ZNSt10_HashtableIPN4wasm9CFGWalkerINS0_14CoalesceLocalsENS0_7VisitorIS2_vEENS0_8LivenessEE10BasicBlockES8_SaIS8_ENSt8__detail9_IdentityESt8equal_toIS8_ESt4hashIS8_ENSA_18_Mod_range_hashingENSA_20_Default_ranged_hashENSA_20_Prime_rehash_policyENSA_17_Hashtable_traitsILb0ELb1ELb1EEEE21_M_insert_unique_nodeEmmPNSA_10_Hash_nodeIS8_Lb0EEEm
_ZNSt10_HashtableIPN4wasm9CFGWalkerINS0_14CoalesceLocalsENS0_7VisitorIS2_vEENS0_8LivenessEE10BasicBlockES8_SaIS8_ENSt8__detail9_IdentityESt8equal_toIS8_ESt4hashIS8_ENSA_18_Mod_range_hashingENSA_20_Default_ranged_hashENSA_20_Prime_rehash_policyENSA_17_Hashtable_traitsILb0ELb1ELb1EEEE9_M_insertIRKS8_NSA_10_AllocNodeISaINSA_10_Hash_nodeIS8_Lb0EEEEEEEESt4pairINSA_14_Node_iteratorIS8_Lb1ELb0EEEbEOT_RKT0_St17integral_constantIbLb1EEm
_ZN4wasm14CoalesceLocals12flowLivenessEv
_ZNSt6vectorIN4wasm6WalkerINS0_14CoalesceLocalsENS0_7VisitorIS2_vEEE4TaskESaIS6_EE17_M_realloc_insertIJRPFvPS2_PPNS0_10ExpressionEERSD_EEEvN9__gnu_cxx17__normal_iteratorIPS6_S8_EEDpOT_
_ZNSt6vectorIN4wasm6WalkerINS0_14CoalesceLocalsENS0_7VisitorIS2_vEEE4TaskESaIS6_EE12emplace_backIJRPFvPS2_PPNS0_10ExpressionEERSD_EEEvDpOT_
_ZN4wasm6WalkerINS_14CoalesceLocalsENS_7VisitorIS1_vEEE8pushTaskEPFvPS1_PPNS_10ExpressionEES8_
_ZN4wasm14CoalesceLocals14doWalkFunctionEPNS_8FunctionE
_ZN4wasm9CFGWalkerINS_14CoalesceLocalsENS_7VisitorIS1_vEENS_8LivenessEE4scanEPS1_PPNS_10ExpressionE
_ZN4wasm10WalkerPassINS_9CFGWalkerINS_14CoalesceLocalsENS_7VisitorIS2_vEENS_8LivenessEEEE11runFunctionEPNS_10PassRunnerEPNS_6ModuleEPNS_8FunctionE
_ZN4wasm10WalkerPassINS_9CFGWalkerINS_14CoalesceLocalsENS_7VisitorIS2_vEENS_8LivenessEEEE3runEPNS_10PassRunnerEPNS_6ModuleE
_ZN4wasm10PostWalkerINS_14CoalesceLocalsENS_7VisitorIS1_vEEE4scanEPS1_PPNS_10ExpressionE
_ZN4wasm9CFGWalkerINS_14CoalesceLocalsENS_7VisitorIS1_vEENS_8LivenessEE11doStartLoopEPS1_PPNS_10ExpressionE
_ZN4wasm9CFGWalkerINS_14CoalesceLocalsENS_7VisitorIS1_vEENS_8LivenessEE11doEndSwitchEPS1_PPNS_10ExpressionE
_ZN4wasm9CFGWalkerINS_14CoalesceLocalsENS_7VisitorIS1_vEENS_8LivenessEE10doEndBlockEPS1_PPNS_10ExpressionE
_ZN4wasm9CFGWalkerINS_14CoalesceLocalsENS_7VisitorIS1_vEENS_8LivenessEE7doEndIfEPS1_PPNS_10ExpressionE
_ZN4wasm9CFGWalkerINS_14CoalesceLocalsENS_7VisitorIS1_vEENS_8LivenessEE14doStartIfFalseEPS1_PPNS_10ExpressionE
_ZN4wasm9CFGWalkerINS_14CoalesceLocalsENS_7VisitorIS1_vEENS_8LivenessEE13doStartIfTrueEPS1_PPNS_10ExpressionE
_ZN4wasm9CFGWalkerINS_14CoalesceLocalsENS_7VisitorIS1_vEENS_8LivenessEE9doEndLoopEPS1_PPNS_10ExpressionE
_ZN4wasm9CFGWalkerINS_14CoalesceLocalsENS_7VisitorIS1_vEENS_8LivenessEE10doEndBreakEPS1_PPNS_10ExpressionE
_ZNSt8_Rb_treeIPN4wasm10ExpressionESt4pairIKS2_St6vectorIPNS0_9CFGWalkerINS0_14CoalesceLocalsENS0_7VisitorIS7_vEENS0_8LivenessEE10BasicBlockESaISD_EEESt10_Select1stISG_ESt4lessIS2_ESaISG_EE5eraseERS4_
_ZNSt6vectorIPN4wasm9CFGWalkerINS0_14CoalesceLocalsENS0_7VisitorIS2_vEENS0_8LivenessEE10BasicBlockESaIS8_EE17_M_realloc_insertIJRKS8_EEEvN9__gnu_cxx17__normal_iteratorIPS8_SA_EEDpOT_
_ZNKSt8_Rb_treeIN4wasm4NameES1_St9_IdentityIS1_ESt4lessIS1_ESaIS1_EE4findERKS1_
_ZNSt8_Rb_treeIPN4wasm10ExpressionESt4pairIKS2_St6vectorIPNS0_9CFGWalkerINS0_14CoalesceLocalsENS0_7VisitorIS7_vEENS0_8LivenessEE10BasicBlockESaISD_EEESt10_Select1stISG_ESt4lessIS2_ESaISG_EE24_M_get_insert_unique_posERS4_
_ZNSt8_Rb_treeIPN4wasm10ExpressionESt4pairIKS2_St6vectorIPNS0_9CFGWalkerINS0_14CoalesceLocalsENS0_7VisitorIS7_vEENS0_8LivenessEE10BasicBlockESaISD_EEESt10_Select1stISG_ESt4lessIS2_ESaISG_EE29_M_get_insert_hint_unique_posESt23_Rb_tree_const_iteratorISG_ERS4_
_ZNSt8_Rb_treeIPN4wasm10ExpressionESt4pairIKS2_St6vectorIPNS0_9CFGWalkerINS0_14CoalesceLocalsENS0_7VisitorIS7_vEENS0_8LivenessEE10BasicBlockESaISD_EEESt10_Select1stISG_ESt4lessIS2_ESaISG_EE22_M_emplace_hint_uniqueIJRKSt21piecewise_construct_tSt5tupleIJOS2_EESR_IJEEEEESt17_Rb_tree_iteratorISG_ESt23_Rb_tree_const_iteratorISG_EDpOT_
_ZTSN4wasm7VisitorINS_14CoalesceLocalsEvEE
_ZTIN4wasm7VisitorINS_14CoalesceLocalsEvEE
_ZTSN4wasm6WalkerINS_14CoalesceLocalsENS_7VisitorIS1_vEEEE
_ZTIN4wasm6WalkerINS_14CoalesceLocalsENS_7VisitorIS1_vEEEE
_ZTSN4wasm10PostWalkerINS_14CoalesceLocalsENS_7VisitorIS1_vEEEE
_ZTIN4wasm10PostWalkerINS_14CoalesceLocalsENS_7VisitorIS1_vEEEE
_ZTSN4wasm17ControlFlowWalkerINS_14CoalesceLocalsENS_7VisitorIS1_vEEEE
_ZTIN4wasm17ControlFlowWalkerINS_14CoalesceLocalsENS_7VisitorIS1_vEEEE
_ZTSN4wasm9CFGWalkerINS_14CoalesceLocalsENS_7VisitorIS1_vEENS_8LivenessEEE
_ZTIN4wasm9CFGWalkerINS_14CoalesceLocalsENS_7VisitorIS1_vEENS_8LivenessEEE
_ZTSN4wasm10WalkerPassINS_9CFGWalkerINS_14CoalesceLocalsENS_7VisitorIS2_vEENS_8LivenessEEEEE
_ZTIN4wasm10WalkerPassINS_9CFGWalkerINS_14CoalesceLocalsENS_7VisitorIS2_vEENS_8LivenessEEEEE
_ZTSN4wasm14CoalesceLocalsE
_ZTIN4wasm14CoalesceLocalsE
_ZTSN4wasm26CoalesceLocalsWithLearningE
_ZTIN4wasm26CoalesceLocalsWithLearningE
_ZN4wasm11CodePushing18isFunctionParallelEv
_ZN4wasm11CodePushing6createEv
_ZTVN4wasm11CodePushingE
_ZN4wasm10WalkerPassINS_10PostWalkerINS_11CodePushingENS_7VisitorIS2_vEEEEED2Ev
_ZTVN4wasm10WalkerPassINS_10PostWalkerINS_11CodePushingENS_7VisitorIS2_vEEEEEE
_ZN4wasm10WalkerPassINS_10PostWalkerINS_11CodePushingENS_7VisitorIS2_vEEEEED1Ev
_ZN4wasm6WalkerINS_14EffectAnalyzerENS_7VisitorIS1_vEEE9doVisitIfEPS1_PPNS_10ExpressionE
_ZN4wasm6WalkerINS_14EffectAnalyzerENS_7VisitorIS1_vEEE11doVisitCallEPS1_PPNS_10ExpressionE
_ZN4wasm6WalkerINS_14EffectAnalyzerENS_7VisitorIS1_vEEE17doVisitCallImportEPS1_PPNS_10ExpressionE
_ZN4wasm6WalkerINS_14EffectAnalyzerENS_7VisitorIS1_vEEE19doVisitCallIndirectEPS1_PPNS_10ExpressionE
_ZN4wasm6WalkerINS_14EffectAnalyzerENS_7VisitorIS1_vEEE11doVisitLoadEPS1_PPNS_10ExpressionE
_ZN4wasm6WalkerINS_14EffectAnalyzerENS_7VisitorIS1_vEEE12doVisitStoreEPS1_PPNS_10ExpressionE
_ZN4wasm6WalkerINS_14EffectAnalyzerENS_7VisitorIS1_vEEE16doVisitAtomicRMWEPS1_PPNS_10ExpressionE
_ZN4wasm6WalkerINS_14EffectAnalyzerENS_7VisitorIS1_vEEE20doVisitAtomicCmpxchgEPS1_PPNS_10ExpressionE
_ZN4wasm6WalkerINS_14EffectAnalyzerENS_7VisitorIS1_vEEE17doVisitAtomicWaitEPS1_PPNS_10ExpressionE
_ZN4wasm6WalkerINS_14EffectAnalyzerENS_7VisitorIS1_vEEE17doVisitAtomicWakeEPS1_PPNS_10ExpressionE
_ZN4wasm6WalkerINS_14EffectAnalyzerENS_7VisitorIS1_vEEE12doVisitUnaryEPS1_PPNS_10ExpressionE
_ZN4wasm6WalkerINS_14EffectAnalyzerENS_7VisitorIS1_vEEE13doVisitBinaryEPS1_PPNS_10ExpressionE
_ZN4wasm6WalkerINS_14EffectAnalyzerENS_7VisitorIS1_vEEE13doVisitSelectEPS1_PPNS_10ExpressionE
_ZN4wasm6WalkerINS_14EffectAnalyzerENS_7VisitorIS1_vEEE11doVisitDropEPS1_PPNS_10ExpressionE
_ZN4wasm6WalkerINS_14EffectAnalyzerENS_7VisitorIS1_vEEE13doVisitReturnEPS1_PPNS_10ExpressionE
_ZN4wasm6WalkerINS_14EffectAnalyzerENS_7VisitorIS1_vEEE11doVisitHostEPS1_PPNS_10ExpressionE
_ZN4wasm6WalkerINS_14EffectAnalyzerENS_7VisitorIS1_vEEE12doVisitConstEPS1_PPNS_10ExpressionE
_ZN4wasm6WalkerINS_14EffectAnalyzerENS_7VisitorIS1_vEEE10doVisitNopEPS1_PPNS_10ExpressionE
_ZN4wasm6WalkerINS_14EffectAnalyzerENS_7VisitorIS1_vEEE18doVisitUnreachableEPS1_PPNS_10ExpressionE
_ZN4wasm6WalkerINS_13LocalAnalyzerENS_7VisitorIS1_vEEE12doVisitBlockEPS1_PPNS_10ExpressionE
_ZN4wasm6WalkerINS_13LocalAnalyzerENS_7VisitorIS1_vEEE9doVisitIfEPS1_PPNS_10ExpressionE
_ZN4wasm6WalkerINS_13LocalAnalyzerENS_7VisitorIS1_vEEE11doVisitLoopEPS1_PPNS_10ExpressionE
_ZN4wasm6WalkerINS_13LocalAnalyzerENS_7VisitorIS1_vEEE12doVisitBreakEPS1_PPNS_10ExpressionE
_ZN4wasm6WalkerINS_13LocalAnalyzerENS_7VisitorIS1_vEEE13doVisitSwitchEPS1_PPNS_10ExpressionE
_ZN4wasm6WalkerINS_13LocalAnalyzerENS_7VisitorIS1_vEEE11doVisitCallEPS1_PPNS_10ExpressionE
_ZN4wasm6WalkerINS_13LocalAnalyzerENS_7VisitorIS1_vEEE17doVisitCallImportEPS1_PPNS_10ExpressionE
_ZN4wasm6WalkerINS_13LocalAnalyzerENS_7VisitorIS1_vEEE19doVisitCallIndirectEPS1_PPNS_10ExpressionE
_ZN4wasm6WalkerINS_13LocalAnalyzerENS_7VisitorIS1_vEEE16doVisitGetGlobalEPS1_PPNS_10ExpressionE
_ZN4wasm6WalkerINS_13LocalAnalyzerENS_7VisitorIS1_vEEE16doVisitSetGlobalEPS1_PPNS_10ExpressionE
_ZN4wasm6WalkerINS_13LocalAnalyzerENS_7VisitorIS1_vEEE11doVisitLoadEPS1_PPNS_10ExpressionE
_ZN4wasm6WalkerINS_13LocalAnalyzerENS_7VisitorIS1_vEEE12doVisitStoreEPS1_PPNS_10ExpressionE
_ZN4wasm6WalkerINS_13LocalAnalyzerENS_7VisitorIS1_vEEE16doVisitAtomicRMWEPS1_PPNS_10ExpressionE
_ZN4wasm6WalkerINS_13LocalAnalyzerENS_7VisitorIS1_vEEE20doVisitAtomicCmpxchgEPS1_PPNS_10ExpressionE
_ZN4wasm6WalkerINS_13LocalAnalyzerENS_7VisitorIS1_vEEE17doVisitAtomicWaitEPS1_PPNS_10ExpressionE
_ZN4wasm6WalkerINS_13LocalAnalyzerENS_7VisitorIS1_vEEE17doVisitAtomicWakeEPS1_PPNS_10ExpressionE
_ZN4wasm6WalkerINS_13LocalAnalyzerENS_7VisitorIS1_vEEE12doVisitConstEPS1_PPNS_10ExpressionE
_ZN4wasm6WalkerINS_13LocalAnalyzerENS_7VisitorIS1_vEEE12doVisitUnaryEPS1_PPNS_10ExpressionE
_ZN4wasm6WalkerINS_13LocalAnalyzerENS_7VisitorIS1_vEEE13doVisitBinaryEPS1_PPNS_10ExpressionE
_ZN4wasm6WalkerINS_13LocalAnalyzerENS_7VisitorIS1_vEEE13doVisitSelectEPS1_PPNS_10ExpressionE
_ZN4wasm6WalkerINS_13LocalAnalyzerENS_7VisitorIS1_vEEE11doVisitDropEPS1_PPNS_10ExpressionE
_ZN4wasm6WalkerINS_13LocalAnalyzerENS_7VisitorIS1_vEEE13doVisitReturnEPS1_PPNS_10ExpressionE
_ZN4wasm6WalkerINS_13LocalAnalyzerENS_7VisitorIS1_vEEE11doVisitHostEPS1_PPNS_10ExpressionE
_ZN4wasm6WalkerINS_13LocalAnalyzerENS_7VisitorIS1_vEEE10doVisitNopEPS1_PPNS_10ExpressionE
_ZN4wasm6WalkerINS_13LocalAnalyzerENS_7VisitorIS1_vEEE18doVisitUnreachableEPS1_PPNS_10ExpressionE
_ZN4wasm6WalkerINS_11CodePushingENS_7VisitorIS1_vEEE9doVisitIfEPS1_PPNS_10ExpressionE
_ZN4wasm6WalkerINS_11CodePushingENS_7VisitorIS1_vEEE11doVisitLoopEPS1_PPNS_10ExpressionE
_ZN4wasm6WalkerINS_11CodePushingENS_7VisitorIS1_vEEE12doVisitBreakEPS1_PPNS_10ExpressionE
_ZN4wasm6WalkerINS_11CodePushingENS_7VisitorIS1_vEEE13doVisitSwitchEPS1_PPNS_10ExpressionE
_ZN4wasm6WalkerINS_11CodePushingENS_7VisitorIS1_vEEE11doVisitCallEPS1_PPNS_10ExpressionE
_ZN4wasm6WalkerINS_11CodePushingENS_7VisitorIS1_vEEE17doVisitCallImportEPS1_PPNS_10ExpressionE
_ZN4wasm6WalkerINS_11CodePushingENS_7VisitorIS1_vEEE19doVisitCallIndirectEPS1_PPNS_10ExpressionE
_ZN4wasm6WalkerINS_11CodePushingENS_7VisitorIS1_vEEE15doVisitSetLocalEPS1_PPNS_10ExpressionE
_ZN4wasm6WalkerINS_11CodePushingENS_7VisitorIS1_vEEE16doVisitGetGlobalEPS1_PPNS_10ExpressionE
_ZN4wasm6WalkerINS_11CodePushingENS_7VisitorIS1_vEEE16doVisitSetGlobalEPS1_PPNS_10ExpressionE
_ZN4wasm6WalkerINS_11CodePushingENS_7VisitorIS1_vEEE11doVisitLoadEPS1_PPNS_10ExpressionE
_ZN4wasm6WalkerINS_11CodePushingENS_7VisitorIS1_vEEE12doVisitStoreEPS1_PPNS_10ExpressionE
_ZN4wasm6WalkerINS_11CodePushingENS_7VisitorIS1_vEEE16doVisitAtomicRMWEPS1_PPNS_10ExpressionE
_ZN4wasm6WalkerINS_11CodePushingENS_7VisitorIS1_vEEE20doVisitAtomicCmpxchgEPS1_PPNS_10ExpressionE
_ZN4wasm6WalkerINS_11CodePushingENS_7VisitorIS1_vEEE17doVisitAtomicWaitEPS1_PPNS_10ExpressionE
_ZN4wasm6WalkerINS_11CodePushingENS_7VisitorIS1_vEEE17doVisitAtomicWakeEPS1_PPNS_10ExpressionE
_ZN4wasm6WalkerINS_11CodePushingENS_7VisitorIS1_vEEE12doVisitConstEPS1_PPNS_10ExpressionE
_ZN4wasm6WalkerINS_11CodePushingENS_7VisitorIS1_vEEE12doVisitUnaryEPS1_PPNS_10ExpressionE
_ZN4wasm6WalkerINS_11CodePushingENS_7VisitorIS1_vEEE13doVisitBinaryEPS1_PPNS_10ExpressionE
_ZN4wasm6WalkerINS_11CodePushingENS_7VisitorIS1_vEEE13doVisitSelectEPS1_PPNS_10ExpressionE
_ZN4wasm6WalkerINS_11CodePushingENS_7VisitorIS1_vEEE11doVisitDropEPS1_PPNS_10ExpressionE
_ZN4wasm6WalkerINS_11CodePushingENS_7VisitorIS1_vEEE13doVisitReturnEPS1_PPNS_10ExpressionE
_ZN4wasm6WalkerINS_11CodePushingENS_7VisitorIS1_vEEE11doVisitHostEPS1_PPNS_10ExpressionE
_ZN4wasm6WalkerINS_11CodePushingENS_7VisitorIS1_vEEE10doVisitNopEPS1_PPNS_10ExpressionE
_ZN4wasm6WalkerINS_11CodePushingENS_7VisitorIS1_vEEE18doVisitUnreachableEPS1_PPNS_10ExpressionE
_ZN4wasm10WalkerPassINS_10PostWalkerINS_11CodePushingENS_7VisitorIS2_vEEEEED0Ev
_ZN4wasm11CodePushingD2Ev
_ZN4wasm11CodePushingD1Ev
_ZN4wasm11CodePushingD0Ev
_ZN4wasm6WalkerINS_11CodePushingENS_7VisitorIS1_vEEE15doVisitGetLocalEPS1_PPNS_10ExpressionE
_ZN4wasm6WalkerINS_13LocalAnalyzerENS_7VisitorIS1_vEEE15doVisitSetLocalEPS1_PPNS_10ExpressionE
_ZN4wasm6WalkerINS_13LocalAnalyzerENS_7VisitorIS1_vEEE15doVisitGetLocalEPS1_PPNS_10ExpressionE
_ZNSt8_Rb_treeIjjSt9_IdentityIjESt4lessIjESaIjEE8_M_eraseEPSt13_Rb_tree_nodeIjE
_ZN4wasm14EffectAnalyzerD2Ev
_ZN4wasm14EffectAnalyzerD1Ev
_ZNSt10_HashtableIPN4wasm8SetLocalESt4pairIKS2_NS0_14EffectAnalyzerEESaIS6_ENSt8__detail10_Select1stESt8equal_toIS2_ESt4hashIS2_ENS8_18_Mod_range_hashingENS8_20_Default_ranged_hashENS8_20_Prime_rehash_policyENS8_17_Hashtable_traitsILb0ELb0ELb1EEEED2Ev
_ZNSt10_HashtableIPN4wasm8SetLocalESt4pairIKS2_NS0_14EffectAnalyzerEESaIS6_ENSt8__detail10_Select1stESt8equal_toIS2_ESt4hashIS2_ENS8_18_Mod_range_hashingENS8_20_Default_ranged_hashENS8_20_Prime_rehash_policyENS8_17_Hashtable_traitsILb0ELb0ELb1EEEED1Ev
_ZNSt8_Rb_treeIjjSt9_IdentityIjESt4lessIjESaIjEE16_M_insert_uniqueIRKjEESt4pairISt17_Rb_tree_iteratorIjEbEOT_
_ZN4wasm6WalkerINS_14EffectAnalyzerENS_7VisitorIS1_vEEE15doVisitSetLocalEPS1_PPNS_10ExpressionE
_ZN4wasm6WalkerINS_14EffectAnalyzerENS_7VisitorIS1_vEEE15doVisitGetLocalEPS1_PPNS_10ExpressionE
_ZN4wasm6WalkerINS_14EffectAnalyzerENS_7VisitorIS1_vEEE16doVisitSetGlobalEPS1_PPNS_10ExpressionE
_ZN4wasm6WalkerINS_14EffectAnalyzerENS_7VisitorIS1_vEEE16doVisitGetGlobalEPS1_PPNS_10ExpressionE
_ZN4wasm6WalkerINS_14EffectAnalyzerENS_7VisitorIS1_vEEE13doVisitSwitchEPS1_PPNS_10ExpressionE
_ZN4wasm6WalkerINS_14EffectAnalyzerENS_7VisitorIS1_vEEE12doVisitBreakEPS1_PPNS_10ExpressionE
_ZNSt8_Rb_treeIN4wasm4NameES1_St9_IdentityIS1_ESt4lessIS1_ESaIS1_EE11equal_rangeERKS1_
_ZNSt8_Rb_treeIN4wasm4NameES1_St9_IdentityIS1_ESt4lessIS1_ESaIS1_EE5eraseERKS1_
_ZN4wasm6WalkerINS_14EffectAnalyzerENS_7VisitorIS1_vEEE11doVisitLoopEPS1_PPNS_10ExpressionE
_ZN4wasm6WalkerINS_14EffectAnalyzerENS_7VisitorIS1_vEEE12doVisitBlockEPS1_PPNS_10ExpressionE
_ZNSt6vectorIN4wasm6WalkerINS0_14EffectAnalyzerENS0_7VisitorIS2_vEEE4TaskESaIS6_EE17_M_realloc_insertIJRPFvPS2_PPNS0_10ExpressionEERSD_EEEvN9__gnu_cxx17__normal_iteratorIPS6_S8_EEDpOT_
_ZNSt6vectorIN4wasm6WalkerINS0_14EffectAnalyzerENS0_7VisitorIS2_vEEE4TaskESaIS6_EE12emplace_backIJRPFvPS2_PPNS0_10ExpressionEERSD_EEEvDpOT_
_ZN4wasm10PostWalkerINS_14EffectAnalyzerENS_7VisitorIS1_vEEE4scanEPS1_PPNS_10ExpressionE
_ZNSt6vectorIN4wasm6WalkerINS0_13LocalAnalyzerENS0_7VisitorIS2_vEEE4TaskESaIS6_EE17_M_realloc_insertIJRPFvPS2_PPNS0_10ExpressionEERSD_EEEvN9__gnu_cxx17__normal_iteratorIPS6_S8_EEDpOT_
_ZNSt6vectorIN4wasm6WalkerINS0_13LocalAnalyzerENS0_7VisitorIS2_vEEE4TaskESaIS6_EE12emplace_backIJRPFvPS2_PPNS0_10ExpressionEERSD_EEEvDpOT_
_ZN4wasm10PostWalkerINS_13LocalAnalyzerENS_7VisitorIS1_vEEE4scanEPS1_PPNS_10ExpressionE
_ZNSt10_HashtableIPN4wasm8SetLocalESt4pairIKS2_NS0_14EffectAnalyzerEESaIS6_ENSt8__detail10_Select1stESt8equal_toIS2_ESt4hashIS2_ENS8_18_Mod_range_hashingENS8_20_Default_ranged_hashENS8_20_Prime_rehash_policyENS8_17_Hashtable_traitsILb0ELb0ELb1EEEE21_M_insert_unique_nodeEmmPNS8_10_Hash_nodeIS6_Lb0EEEm
_ZNSt10_HashtableIPN4wasm8SetLocalESt4pairIKS2_NS0_14EffectAnalyzerEESaIS6_ENSt8__detail10_Select1stESt8equal_toIS2_ESt4hashIS2_ENS8_18_Mod_range_hashingENS8_20_Default_ranged_hashENS8_20_Prime_rehash_policyENS8_17_Hashtable_traitsILb0ELb0ELb1EEEE10_M_emplaceIJRKSt21piecewise_construct_tSt5tupleIJRS2_EESO_IJRNS0_11PassOptionsESP_EEEEES3_INS8_14_Node_iteratorIS6_Lb0ELb0EEEbESt17integral_constantIbLb1EEDpOT_
_ZN4wasm6Pusher15optimizeSegmentEjj
_ZN4wasm6WalkerINS_11CodePushingENS_7VisitorIS1_vEEE12doVisitBlockEPS1_PPNS_10ExpressionE
_ZNSt6vectorIN4wasm6WalkerINS0_11CodePushingENS0_7VisitorIS2_vEEE4TaskESaIS6_EE17_M_realloc_insertIJRPFvPS2_PPNS0_10ExpressionEERSD_EEEvN9__gnu_cxx17__normal_iteratorIPS6_S8_EEDpOT_
_ZNSt6vectorIN4wasm6WalkerINS0_11CodePushingENS0_7VisitorIS2_vEEE4TaskESaIS6_EE12emplace_backIJRPFvPS2_PPNS0_10ExpressionEERSD_EEEvDpOT_
_ZN4wasm10WalkerPassINS_10PostWalkerINS_11CodePushingENS_7VisitorIS2_vEEEEE11runFunctionEPNS_10PassRunnerEPNS_6ModuleEPNS_8FunctionE
_ZN4wasm10PostWalkerINS_11CodePushingENS_7VisitorIS1_vEEE4scanEPS1_PPNS_10ExpressionE
_ZN4wasm10WalkerPassINS_10PostWalkerINS_11CodePushingENS_7VisitorIS2_vEEEEE3runEPNS_10PassRunnerEPNS_6ModuleE
_ZTSN4wasm7VisitorINS_11CodePushingEvEE
_ZTIN4wasm7VisitorINS_11CodePushingEvEE
_ZTSN4wasm6WalkerINS_11CodePushingENS_7VisitorIS1_vEEEE
_ZTIN4wasm6WalkerINS_11CodePushingENS_7VisitorIS1_vEEEE
_ZTSN4wasm10PostWalkerINS_11CodePushingENS_7VisitorIS1_vEEEE
_ZTIN4wasm10PostWalkerINS_11CodePushingENS_7VisitorIS1_vEEEE
_ZTSN4wasm10WalkerPassINS_10PostWalkerINS_11CodePushingENS_7VisitorIS2_vEEEEEE
_ZTIN4wasm10WalkerPassINS_10PostWalkerINS_11CodePushingENS_7VisitorIS2_vEEEEEE
_ZTSN4wasm11CodePushingE
_ZTIN4wasm11CodePushingE
_ZN4wasm11CodeFolding18isFunctionParallelEv
_ZNSt17_Function_handlerIFbPN4wasm10ExpressionES2_EZNS0_18ExpressionAnalyzer5equalES2_S2_EUlS2_S2_E_E9_M_invokeERKSt9_Any_dataOS2_SA_
_ZNSt14_Function_base13_Base_managerIZN4wasm18ExpressionAnalyzer5equalEPNS1_10ExpressionES4_EUlS4_S4_E_E10_M_managerERSt9_Any_dataRKS7_St18_Manager_operation
_ZTIZN4wasm18ExpressionAnalyzer5equalEPNS_10ExpressionES2_EUlS2_S2_E_
_ZN4wasm10WalkerPassINS_17ControlFlowWalkerINS_11CodeFoldingENS_7VisitorIS2_vEEEEED2Ev
_ZTVN4wasm10WalkerPassINS_17ControlFlowWalkerINS_11CodeFoldingENS_7VisitorIS2_vEEEEEE
_ZN4wasm10WalkerPassINS_17ControlFlowWalkerINS_11CodeFoldingENS_7VisitorIS2_vEEEEED1Ev
_ZN4wasm6WalkerIZNS_11BranchUtils18getExitingBranchesEPNS_10ExpressionEE7ScannerNS_7VisitorIS4_vEEE9doVisitIfEPS4_PS3_
_ZN4wasm6WalkerIZNS_11BranchUtils18getExitingBranchesEPNS_10ExpressionEE7ScannerNS_7VisitorIS4_vEEE11doVisitCallEPS4_PS3_
_ZN4wasm6WalkerIZNS_11BranchUtils18getExitingBranchesEPNS_10ExpressionEE7ScannerNS_7VisitorIS4_vEEE17doVisitCallImportEPS4_PS3_
_ZN4wasm6WalkerIZNS_11BranchUtils18getExitingBranchesEPNS_10ExpressionEE7ScannerNS_7VisitorIS4_vEEE19doVisitCallIndirectEPS4_PS3_
_ZN4wasm6WalkerIZNS_11BranchUtils18getExitingBranchesEPNS_10ExpressionEE7ScannerNS_7VisitorIS4_vEEE15doVisitGetLocalEPS4_PS3_
_ZN4wasm6WalkerIZNS_11BranchUtils18getExitingBranchesEPNS_10ExpressionEE7ScannerNS_7VisitorIS4_vEEE15doVisitSetLocalEPS4_PS3_
_ZN4wasm6WalkerIZNS_11BranchUtils18getExitingBranchesEPNS_10ExpressionEE7ScannerNS_7VisitorIS4_vEEE16doVisitGetGlobalEPS4_PS3_
_ZN4wasm6WalkerIZNS_11BranchUtils18getExitingBranchesEPNS_10ExpressionEE7ScannerNS_7VisitorIS4_vEEE16doVisitSetGlobalEPS4_PS3_
_ZN4wasm6WalkerIZNS_11BranchUtils18getExitingBranchesEPNS_10ExpressionEE7ScannerNS_7VisitorIS4_vEEE11doVisitLoadEPS4_PS3_
_ZN4wasm6WalkerIZNS_11BranchUtils18getExitingBranchesEPNS_10ExpressionEE7ScannerNS_7VisitorIS4_vEEE12doVisitStoreEPS4_PS3_
_ZN4wasm6WalkerIZNS_11BranchUtils18getExitingBranchesEPNS_10ExpressionEE7ScannerNS_7VisitorIS4_vEEE16doVisitAtomicRMWEPS4_PS3_
_ZN4wasm6WalkerIZNS_11BranchUtils18getExitingBranchesEPNS_10ExpressionEE7ScannerNS_7VisitorIS4_vEEE20doVisitAtomicCmpxchgEPS4_PS3_
_ZN4wasm6WalkerIZNS_11BranchUtils18getExitingBranchesEPNS_10ExpressionEE7ScannerNS_7VisitorIS4_vEEE17doVisitAtomicWaitEPS4_PS3_
_ZN4wasm6WalkerIZNS_11BranchUtils18getExitingBranchesEPNS_10ExpressionEE7ScannerNS_7VisitorIS4_vEEE17doVisitAtomicWakeEPS4_PS3_
_ZN4wasm6WalkerIZNS_11BranchUtils18getExitingBranchesEPNS_10ExpressionEE7ScannerNS_7VisitorIS4_vEEE12doVisitConstEPS4_PS3_
_ZN4wasm6WalkerIZNS_11BranchUtils18getExitingBranchesEPNS_10ExpressionEE7ScannerNS_7VisitorIS4_vEEE12doVisitUnaryEPS4_PS3_
_ZN4wasm6WalkerIZNS_11BranchUtils18getExitingBranchesEPNS_10ExpressionEE7ScannerNS_7VisitorIS4_vEEE13doVisitBinaryEPS4_PS3_
_ZN4wasm6WalkerIZNS_11BranchUtils18getExitingBranchesEPNS_10ExpressionEE7ScannerNS_7VisitorIS4_vEEE13doVisitSelectEPS4_PS3_
_ZN4wasm6WalkerIZNS_11BranchUtils18getExitingBranchesEPNS_10ExpressionEE7ScannerNS_7VisitorIS4_vEEE11doVisitDropEPS4_PS3_
_ZN4wasm6WalkerIZNS_11BranchUtils18getExitingBranchesEPNS_10ExpressionEE7ScannerNS_7VisitorIS4_vEEE13doVisitReturnEPS4_PS3_
_ZN4wasm6WalkerIZNS_11BranchUtils18getExitingBranchesEPNS_10ExpressionEE7ScannerNS_7VisitorIS4_vEEE11doVisitHostEPS4_PS3_
_ZN4wasm6WalkerIZNS_11BranchUtils18getExitingBranchesEPNS_10ExpressionEE7ScannerNS_7VisitorIS4_vEEE10doVisitNopEPS4_PS3_
_ZN4wasm6WalkerIZNS_11BranchUtils18getExitingBranchesEPNS_10ExpressionEE7ScannerNS_7VisitorIS4_vEEE18doVisitUnreachableEPS4_PS3_
_ZN4wasm6WalkerIZNS_11BranchUtils16getBranchTargetsEPNS_10ExpressionEE7ScannerNS_7VisitorIS4_vEEE9doVisitIfEPS4_PS3_
_ZN4wasm6WalkerIZNS_11BranchUtils16getBranchTargetsEPNS_10ExpressionEE7ScannerNS_7VisitorIS4_vEEE12doVisitBreakEPS4_PS3_
_ZN4wasm6WalkerIZNS_11BranchUtils16getBranchTargetsEPNS_10ExpressionEE7ScannerNS_7VisitorIS4_vEEE13doVisitSwitchEPS4_PS3_
_ZN4wasm6WalkerIZNS_11BranchUtils16getBranchTargetsEPNS_10ExpressionEE7ScannerNS_7VisitorIS4_vEEE11doVisitCallEPS4_PS3_
_ZN4wasm6WalkerIZNS_11BranchUtils16getBranchTargetsEPNS_10ExpressionEE7ScannerNS_7VisitorIS4_vEEE17doVisitCallImportEPS4_PS3_
_ZN4wasm6WalkerIZNS_11BranchUtils16getBranchTargetsEPNS_10ExpressionEE7ScannerNS_7VisitorIS4_vEEE19doVisitCallIndirectEPS4_PS3_
_ZN4wasm6WalkerIZNS_11BranchUtils16getBranchTargetsEPNS_10ExpressionEE7ScannerNS_7VisitorIS4_vEEE15doVisitGetLocalEPS4_PS3_
_ZN4wasm6WalkerIZNS_11BranchUtils16getBranchTargetsEPNS_10ExpressionEE7ScannerNS_7VisitorIS4_vEEE15doVisitSetLocalEPS4_PS3_
_ZN4wasm6WalkerIZNS_11BranchUtils16getBranchTargetsEPNS_10ExpressionEE7ScannerNS_7VisitorIS4_vEEE16doVisitGetGlobalEPS4_PS3_
_ZN4wasm6WalkerIZNS_11BranchUtils16getBranchTargetsEPNS_10ExpressionEE7ScannerNS_7VisitorIS4_vEEE16doVisitSetGlobalEPS4_PS3_
_ZN4wasm6WalkerIZNS_11BranchUtils16getBranchTargetsEPNS_10ExpressionEE7ScannerNS_7VisitorIS4_vEEE11doVisitLoadEPS4_PS3_
_ZN4wasm6WalkerIZNS_11BranchUtils16getBranchTargetsEPNS_10ExpressionEE7ScannerNS_7VisitorIS4_vEEE12doVisitStoreEPS4_PS3_
_ZN4wasm6WalkerIZNS_11BranchUtils16getBranchTargetsEPNS_10ExpressionEE7ScannerNS_7VisitorIS4_vEEE16doVisitAtomicRMWEPS4_PS3_
_ZN4wasm6WalkerIZNS_11BranchUtils16getBranchTargetsEPNS_10ExpressionEE7ScannerNS_7VisitorIS4_vEEE20doVisitAtomicCmpxchgEPS4_PS3_
_ZN4wasm6WalkerIZNS_11BranchUtils16getBranchTargetsEPNS_10ExpressionEE7ScannerNS_7VisitorIS4_vEEE17doVisitAtomicWaitEPS4_PS3_
_ZN4wasm6WalkerIZNS_11BranchUtils16getBranchTargetsEPNS_10ExpressionEE7ScannerNS_7VisitorIS4_vEEE17doVisitAtomicWakeEPS4_PS3_
_ZN4wasm6WalkerIZNS_11BranchUtils16getBranchTargetsEPNS_10ExpressionEE7ScannerNS_7VisitorIS4_vEEE12doVisitConstEPS4_PS3_
_ZN4wasm6WalkerIZNS_11BranchUtils16getBranchTargetsEPNS_10ExpressionEE7ScannerNS_7VisitorIS4_vEEE12doVisitUnaryEPS4_PS3_
_ZN4wasm6WalkerIZNS_11BranchUtils16getBranchTargetsEPNS_10ExpressionEE7ScannerNS_7VisitorIS4_vEEE13doVisitBinaryEPS4_PS3_
_ZN4wasm6WalkerIZNS_11BranchUtils16getBranchTargetsEPNS_10ExpressionEE7ScannerNS_7VisitorIS4_vEEE13doVisitSelectEPS4_PS3_
_ZN4wasm6WalkerIZNS_11BranchUtils16getBranchTargetsEPNS_10ExpressionEE7ScannerNS_7VisitorIS4_vEEE11doVisitDropEPS4_PS3_
_ZN4wasm6WalkerIZNS_11BranchUtils16getBranchTargetsEPNS_10ExpressionEE7ScannerNS_7VisitorIS4_vEEE13doVisitReturnEPS4_PS3_
_ZN4wasm6WalkerIZNS_11BranchUtils16getBranchTargetsEPNS_10ExpressionEE7ScannerNS_7VisitorIS4_vEEE11doVisitHostEPS4_PS3_
_ZN4wasm6WalkerIZNS_11BranchUtils16getBranchTargetsEPNS_10ExpressionEE7ScannerNS_7VisitorIS4_vEEE10doVisitNopEPS4_PS3_
_ZN4wasm6WalkerIZNS_11BranchUtils16getBranchTargetsEPNS_10ExpressionEE7ScannerNS_7VisitorIS4_vEEE18doVisitUnreachableEPS4_PS3_
_ZN4wasm6WalkerINS_8MeasurerENS_24UnifiedExpressionVisitorIS1_vEEE12doVisitBlockEPS1_PPNS_10ExpressionE
_ZN4wasm6WalkerINS_8MeasurerENS_24UnifiedExpressionVisitorIS1_vEEE9doVisitIfEPS1_PPNS_10ExpressionE
_ZN4wasm6WalkerINS_8MeasurerENS_24UnifiedExpressionVisitorIS1_vEEE11doVisitLoopEPS1_PPNS_10ExpressionE
_ZN4wasm6WalkerINS_8MeasurerENS_24UnifiedExpressionVisitorIS1_vEEE12doVisitBreakEPS1_PPNS_10ExpressionE
_ZN4wasm6WalkerINS_8MeasurerENS_24UnifiedExpressionVisitorIS1_vEEE13doVisitSwitchEPS1_PPNS_10ExpressionE
_ZN4wasm6WalkerINS_8MeasurerENS_24UnifiedExpressionVisitorIS1_vEEE11doVisitCallEPS1_PPNS_10ExpressionE
_ZN4wasm6WalkerINS_8MeasurerENS_24UnifiedExpressionVisitorIS1_vEEE17doVisitCallImportEPS1_PPNS_10ExpressionE
_ZN4wasm6WalkerINS_8MeasurerENS_24UnifiedExpressionVisitorIS1_vEEE19doVisitCallIndirectEPS1_PPNS_10ExpressionE
_ZN4wasm6WalkerINS_8MeasurerENS_24UnifiedExpressionVisitorIS1_vEEE15doVisitGetLocalEPS1_PPNS_10ExpressionE
_ZN4wasm6WalkerINS_8MeasurerENS_24UnifiedExpressionVisitorIS1_vEEE15doVisitSetLocalEPS1_PPNS_10ExpressionE
_ZN4wasm6WalkerINS_8MeasurerENS_24UnifiedExpressionVisitorIS1_vEEE16doVisitGetGlobalEPS1_PPNS_10ExpressionE
_ZN4wasm6WalkerINS_8MeasurerENS_24UnifiedExpressionVisitorIS1_vEEE16doVisitSetGlobalEPS1_PPNS_10ExpressionE
_ZN4wasm6WalkerINS_8MeasurerENS_24UnifiedExpressionVisitorIS1_vEEE11doVisitLoadEPS1_PPNS_10ExpressionE
_ZN4wasm6WalkerINS_8MeasurerENS_24UnifiedExpressionVisitorIS1_vEEE12doVisitStoreEPS1_PPNS_10ExpressionE
_ZN4wasm6WalkerINS_8MeasurerENS_24UnifiedExpressionVisitorIS1_vEEE16doVisitAtomicRMWEPS1_PPNS_10ExpressionE
_ZN4wasm6WalkerINS_8MeasurerENS_24UnifiedExpressionVisitorIS1_vEEE20doVisitAtomicCmpxchgEPS1_PPNS_10ExpressionE
_ZN4wasm6WalkerINS_8MeasurerENS_24UnifiedExpressionVisitorIS1_vEEE17doVisitAtomicWaitEPS1_PPNS_10ExpressionE
_ZN4wasm6WalkerINS_8MeasurerENS_24UnifiedExpressionVisitorIS1_vEEE17doVisitAtomicWakeEPS1_PPNS_10ExpressionE
_ZN4wasm6WalkerINS_8MeasurerENS_24UnifiedExpressionVisitorIS1_vEEE12doVisitConstEPS1_PPNS_10ExpressionE
_ZN4wasm6WalkerINS_8MeasurerENS_24UnifiedExpressionVisitorIS1_vEEE12doVisitUnaryEPS1_PPNS_10ExpressionE
_ZN4wasm6WalkerINS_8MeasurerENS_24UnifiedExpressionVisitorIS1_vEEE13doVisitBinaryEPS1_PPNS_10ExpressionE
_ZN4wasm6WalkerINS_8MeasurerENS_24UnifiedExpressionVisitorIS1_vEEE13doVisitSelectEPS1_PPNS_10ExpressionE
_ZN4wasm6WalkerINS_8MeasurerENS_24UnifiedExpressionVisitorIS1_vEEE11doVisitDropEPS1_PPNS_10ExpressionE
_ZN4wasm6WalkerINS_8MeasurerENS_24UnifiedExpressionVisitorIS1_vEEE13doVisitReturnEPS1_PPNS_10ExpressionE
_ZN4wasm6WalkerINS_8MeasurerENS_24UnifiedExpressionVisitorIS1_vEEE11doVisitHostEPS1_PPNS_10ExpressionE
_ZN4wasm6WalkerINS_8MeasurerENS_24UnifiedExpressionVisitorIS1_vEEE10doVisitNopEPS1_PPNS_10ExpressionE
_ZN4wasm6WalkerINS_8MeasurerENS_24UnifiedExpressionVisitorIS1_vEEE18doVisitUnreachableEPS1_PPNS_10ExpressionE
_ZN4wasm6WalkerINS_10LabelUtils12LabelManagerENS_7VisitorIS2_vEEE9doVisitIfEPS2_PPNS_10ExpressionE
_ZN4wasm6WalkerINS_10LabelUtils12LabelManagerENS_7VisitorIS2_vEEE12doVisitBreakEPS2_PPNS_10ExpressionE
_ZN4wasm6WalkerINS_10LabelUtils12LabelManagerENS_7VisitorIS2_vEEE13doVisitSwitchEPS2_PPNS_10ExpressionE
_ZN4wasm6WalkerINS_10LabelUtils12LabelManagerENS_7VisitorIS2_vEEE11doVisitCallEPS2_PPNS_10ExpressionE
_ZN4wasm6WalkerINS_10LabelUtils12LabelManagerENS_7VisitorIS2_vEEE17doVisitCallImportEPS2_PPNS_10ExpressionE
_ZN4wasm6WalkerINS_10LabelUtils12LabelManagerENS_7VisitorIS2_vEEE19doVisitCallIndirectEPS2_PPNS_10ExpressionE
_ZN4wasm6WalkerINS_10LabelUtils12LabelManagerENS_7VisitorIS2_vEEE15doVisitGetLocalEPS2_PPNS_10ExpressionE
_ZN4wasm6WalkerINS_10LabelUtils12LabelManagerENS_7VisitorIS2_vEEE15doVisitSetLocalEPS2_PPNS_10ExpressionE
_ZN4wasm6WalkerINS_10LabelUtils12LabelManagerENS_7VisitorIS2_vEEE16doVisitGetGlobalEPS2_PPNS_10ExpressionE
_ZN4wasm6WalkerINS_10LabelUtils12LabelManagerENS_7VisitorIS2_vEEE16doVisitSetGlobalEPS2_PPNS_10ExpressionE
_ZN4wasm6WalkerINS_10LabelUtils12LabelManagerENS_7VisitorIS2_vEEE11doVisitLoadEPS2_PPNS_10ExpressionE
_ZN4wasm6WalkerINS_10LabelUtils12LabelManagerENS_7VisitorIS2_vEEE12doVisitStoreEPS2_PPNS_10ExpressionE
_ZN4wasm6WalkerINS_10LabelUtils12LabelManagerENS_7VisitorIS2_vEEE16doVisitAtomicRMWEPS2_PPNS_10ExpressionE
_ZN4wasm6WalkerINS_10LabelUtils12LabelManagerENS_7VisitorIS2_vEEE20doVisitAtomicCmpxchgEPS2_PPNS_10ExpressionE
_ZN4wasm6WalkerINS_10LabelUtils12LabelManagerENS_7VisitorIS2_vEEE17doVisitAtomicWaitEPS2_PPNS_10ExpressionE
_ZN4wasm6WalkerINS_10LabelUtils12LabelManagerENS_7VisitorIS2_vEEE17doVisitAtomicWakeEPS2_PPNS_10ExpressionE
_ZN4wasm6WalkerINS_10LabelUtils12LabelManagerENS_7VisitorIS2_vEEE12doVisitConstEPS2_PPNS_10ExpressionE
_ZN4wasm6WalkerINS_10LabelUtils12LabelManagerENS_7VisitorIS2_vEEE12doVisitUnaryEPS2_PPNS_10ExpressionE
_ZN4wasm6WalkerINS_10LabelUtils12LabelManagerENS_7VisitorIS2_vEEE13doVisitBinaryEPS2_PPNS_10ExpressionE
_ZN4wasm6WalkerINS_10LabelUtils12LabelManagerENS_7VisitorIS2_vEEE13doVisitSelectEPS2_PPNS_10ExpressionE
_ZN4wasm6WalkerINS_10LabelUtils12LabelManagerENS_7VisitorIS2_vEEE11doVisitDropEPS2_PPNS_10ExpressionE
_ZN4wasm6WalkerINS_10LabelUtils12LabelManagerENS_7VisitorIS2_vEEE13doVisitReturnEPS2_PPNS_10ExpressionE
_ZN4wasm6WalkerINS_10LabelUtils12LabelManagerENS_7VisitorIS2_vEEE11doVisitHostEPS2_PPNS_10ExpressionE
_ZN4wasm6WalkerINS_10LabelUtils12LabelManagerENS_7VisitorIS2_vEEE10doVisitNopEPS2_PPNS_10ExpressionE
_ZN4wasm6WalkerINS_10LabelUtils12LabelManagerENS_7VisitorIS2_vEEE18doVisitUnreachableEPS2_PPNS_10ExpressionE
_ZN4wasm6WalkerINS_11CodeFoldingENS_7VisitorIS1_vEEE11doVisitLoopEPS1_PPNS_10ExpressionE
_ZN4wasm6WalkerINS_11CodeFoldingENS_7VisitorIS1_vEEE11doVisitCallEPS1_PPNS_10ExpressionE
_ZN4wasm6WalkerINS_11CodeFoldingENS_7VisitorIS1_vEEE17doVisitCallImportEPS1_PPNS_10ExpressionE
_ZN4wasm6WalkerINS_11CodeFoldingENS_7VisitorIS1_vEEE19doVisitCallIndirectEPS1_PPNS_10ExpressionE
_ZN4wasm6WalkerINS_11CodeFoldingENS_7VisitorIS1_vEEE15doVisitGetLocalEPS1_PPNS_10ExpressionE
_ZN4wasm6WalkerINS_11CodeFoldingENS_7VisitorIS1_vEEE15doVisitSetLocalEPS1_PPNS_10ExpressionE
_ZN4wasm6WalkerINS_11CodeFoldingENS_7VisitorIS1_vEEE16doVisitGetGlobalEPS1_PPNS_10ExpressionE
_ZN4wasm6WalkerINS_11CodeFoldingENS_7VisitorIS1_vEEE16doVisitSetGlobalEPS1_PPNS_10ExpressionE
_ZN4wasm6WalkerINS_11CodeFoldingENS_7VisitorIS1_vEEE11doVisitLoadEPS1_PPNS_10ExpressionE
_ZN4wasm6WalkerINS_11CodeFoldingENS_7VisitorIS1_vEEE12doVisitStoreEPS1_PPNS_10ExpressionE
_ZN4wasm6WalkerINS_11CodeFoldingENS_7VisitorIS1_vEEE16doVisitAtomicRMWEPS1_PPNS_10ExpressionE
_ZN4wasm6WalkerINS_11CodeFoldingENS_7VisitorIS1_vEEE20doVisitAtomicCmpxchgEPS1_PPNS_10ExpressionE
_ZN4wasm6WalkerINS_11CodeFoldingENS_7VisitorIS1_vEEE17doVisitAtomicWaitEPS1_PPNS_10ExpressionE
_ZN4wasm6WalkerINS_11CodeFoldingENS_7VisitorIS1_vEEE17doVisitAtomicWakeEPS1_PPNS_10ExpressionE
_ZN4wasm6WalkerINS_11CodeFoldingENS_7VisitorIS1_vEEE12doVisitConstEPS1_PPNS_10ExpressionE
_ZN4wasm6WalkerINS_11CodeFoldingENS_7VisitorIS1_vEEE12doVisitUnaryEPS1_PPNS_10ExpressionE
_ZN4wasm6WalkerINS_11CodeFoldingENS_7VisitorIS1_vEEE13doVisitBinaryEPS1_PPNS_10ExpressionE
_ZN4wasm6WalkerINS_11CodeFoldingENS_7VisitorIS1_vEEE13doVisitSelectEPS1_PPNS_10ExpressionE
_ZN4wasm6WalkerINS_11CodeFoldingENS_7VisitorIS1_vEEE11doVisitDropEPS1_PPNS_10ExpressionE
_ZN4wasm6WalkerINS_11CodeFoldingENS_7VisitorIS1_vEEE11doVisitHostEPS1_PPNS_10ExpressionE
_ZN4wasm6WalkerINS_11CodeFoldingENS_7VisitorIS1_vEEE10doVisitNopEPS1_PPNS_10ExpressionE
_ZN4wasm11CodeFolding6createEv
_ZTVN4wasm11CodeFoldingE
_ZN4wasm10WalkerPassINS_17ControlFlowWalkerINS_11CodeFoldingENS_7VisitorIS2_vEEEEED0Ev
_ZN4wasm17ControlFlowWalkerINS_11CodeFoldingENS_7VisitorIS1_vEEE22doPostVisitControlFlowEPS1_PPNS_10ExpressionE
_ZN4wasm6WalkerINS_11CodeFoldingENS_7VisitorIS1_vEEE13doVisitSwitchEPS1_PPNS_10ExpressionE
_ZN4wasm6WalkerIZNS_11BranchUtils16getBranchTargetsEPNS_10ExpressionEE7ScannerNS_7VisitorIS4_vEEE11doVisitLoopEPS4_PS3_
_ZN4wasm6WalkerIZNS_11BranchUtils16getBranchTargetsEPNS_10ExpressionEE7ScannerNS_7VisitorIS4_vEEE12doVisitBlockEPS4_PS3_
_ZN4wasm6WalkerIZNS_11BranchUtils18getExitingBranchesEPNS_10ExpressionEE7ScannerNS_7VisitorIS4_vEEE13doVisitSwitchEPS4_PS3_
_ZN4wasm6WalkerIZNS_11BranchUtils18getExitingBranchesEPNS_10ExpressionEE7ScannerNS_7VisitorIS4_vEEE12doVisitBreakEPS4_PS3_
_ZN4wasm6WalkerINS_10LabelUtils12LabelManagerENS_7VisitorIS2_vEEE11doVisitLoopEPS2_PPNS_10ExpressionE
_ZN4wasm6WalkerINS_10LabelUtils12LabelManagerENS_7VisitorIS2_vEEE12doVisitBlockEPS2_PPNS_10ExpressionE
_ZN4wasm17ControlFlowWalkerINS_11CodeFoldingENS_7VisitorIS1_vEEE21doPreVisitControlFlowEPS1_PPNS_10ExpressionE
_ZN4wasm6WalkerINS_16ExpressionMarkerENS_24UnifiedExpressionVisitorIS1_vEEE18doVisitUnreachableEPS1_PPNS_10ExpressionE
_ZN4wasm6WalkerINS_16ExpressionMarkerENS_24UnifiedExpressionVisitorIS1_vEEE10doVisitNopEPS1_PPNS_10ExpressionE
_ZN4wasm6WalkerINS_16ExpressionMarkerENS_24UnifiedExpressionVisitorIS1_vEEE11doVisitHostEPS1_PPNS_10ExpressionE
_ZN4wasm6WalkerINS_16ExpressionMarkerENS_24UnifiedExpressionVisitorIS1_vEEE13doVisitReturnEPS1_PPNS_10ExpressionE
_ZN4wasm6WalkerINS_16ExpressionMarkerENS_24UnifiedExpressionVisitorIS1_vEEE11doVisitDropEPS1_PPNS_10ExpressionE
_ZN4wasm6WalkerINS_16ExpressionMarkerENS_24UnifiedExpressionVisitorIS1_vEEE13doVisitSelectEPS1_PPNS_10ExpressionE
_ZN4wasm6WalkerINS_16ExpressionMarkerENS_24UnifiedExpressionVisitorIS1_vEEE13doVisitBinaryEPS1_PPNS_10ExpressionE
_ZN4wasm6WalkerINS_16ExpressionMarkerENS_24UnifiedExpressionVisitorIS1_vEEE12doVisitUnaryEPS1_PPNS_10ExpressionE
_ZN4wasm6WalkerINS_16ExpressionMarkerENS_24UnifiedExpressionVisitorIS1_vEEE12doVisitConstEPS1_PPNS_10ExpressionE
_ZN4wasm6WalkerINS_16ExpressionMarkerENS_24UnifiedExpressionVisitorIS1_vEEE17doVisitAtomicWakeEPS1_PPNS_10ExpressionE
_ZN4wasm6WalkerINS_16ExpressionMarkerENS_24UnifiedExpressionVisitorIS1_vEEE17doVisitAtomicWaitEPS1_PPNS_10ExpressionE
_ZN4wasm6WalkerINS_16ExpressionMarkerENS_24UnifiedExpressionVisitorIS1_vEEE20doVisitAtomicCmpxchgEPS1_PPNS_10ExpressionE
_ZN4wasm6WalkerINS_16ExpressionMarkerENS_24UnifiedExpressionVisitorIS1_vEEE16doVisitAtomicRMWEPS1_PPNS_10ExpressionE
_ZN4wasm6WalkerINS_16ExpressionMarkerENS_24UnifiedExpressionVisitorIS1_vEEE12doVisitStoreEPS1_PPNS_10ExpressionE
_ZN4wasm6WalkerINS_16ExpressionMarkerENS_24UnifiedExpressionVisitorIS1_vEEE11doVisitLoadEPS1_PPNS_10ExpressionE
_ZN4wasm6WalkerINS_16ExpressionMarkerENS_24UnifiedExpressionVisitorIS1_vEEE16doVisitSetGlobalEPS1_PPNS_10ExpressionE
_ZN4wasm6WalkerINS_16ExpressionMarkerENS_24UnifiedExpressionVisitorIS1_vEEE16doVisitGetGlobalEPS1_PPNS_10ExpressionE
_ZN4wasm6WalkerINS_16ExpressionMarkerENS_24UnifiedExpressionVisitorIS1_vEEE15doVisitSetLocalEPS1_PPNS_10ExpressionE
_ZN4wasm6WalkerINS_16ExpressionMarkerENS_24UnifiedExpressionVisitorIS1_vEEE15doVisitGetLocalEPS1_PPNS_10ExpressionE
_ZN4wasm6WalkerINS_16ExpressionMarkerENS_24UnifiedExpressionVisitorIS1_vEEE19doVisitCallIndirectEPS1_PPNS_10ExpressionE
_ZN4wasm6WalkerINS_16ExpressionMarkerENS_24UnifiedExpressionVisitorIS1_vEEE17doVisitCallImportEPS1_PPNS_10ExpressionE
_ZN4wasm6WalkerINS_16ExpressionMarkerENS_24UnifiedExpressionVisitorIS1_vEEE11doVisitCallEPS1_PPNS_10ExpressionE
_ZN4wasm6WalkerINS_16ExpressionMarkerENS_24UnifiedExpressionVisitorIS1_vEEE13doVisitSwitchEPS1_PPNS_10ExpressionE
_ZN4wasm6WalkerINS_16ExpressionMarkerENS_24UnifiedExpressionVisitorIS1_vEEE12doVisitBreakEPS1_PPNS_10ExpressionE
_ZN4wasm6WalkerINS_16ExpressionMarkerENS_24UnifiedExpressionVisitorIS1_vEEE11doVisitLoopEPS1_PPNS_10ExpressionE
_ZN4wasm6WalkerINS_16ExpressionMarkerENS_24UnifiedExpressionVisitorIS1_vEEE9doVisitIfEPS1_PPNS_10ExpressionE
_ZN4wasm6WalkerINS_16ExpressionMarkerENS_24UnifiedExpressionVisitorIS1_vEEE12doVisitBlockEPS1_PPNS_10ExpressionE
_ZNSt8_Rb_treeIN4wasm4NameESt4pairIKS1_St6vectorINS0_11CodeFolding4TailESaIS6_EEESt10_Select1stIS9_ESt4lessIS1_ESaIS9_EE8_M_eraseEPSt13_Rb_tree_nodeIS9_E
_ZN4wasm11CodeFoldingD2Ev
_ZN4wasm11CodeFoldingD1Ev
_ZN4wasm11CodeFoldingD0Ev
_ZNKSt8_Rb_treeIPN4wasm10ExpressionES2_St9_IdentityIS2_ESt4lessIS2_ESaIS2_EE4findERKS2_
_ZNSt6vectorIN4wasm11CodeFolding4TailESaIS2_EE8_M_eraseEN9__gnu_cxx17__normal_iteratorIPS2_S4_EES8_
_ZNSt8_Rb_treeIjSt4pairIKjSt6vectorIPN4wasm10ExpressionESaIS5_EEESt10_Select1stIS8_ESt4lessIjESaIS8_EE8_M_eraseEPSt13_Rb_tree_nodeIS8_E
_ZN4wasm6WalkerIZNS_11BranchUtils18getExitingBranchesEPNS_10ExpressionEE7ScannerNS_7VisitorIS4_vEEE11doVisitLoopEPS4_PS3_
_ZN4wasm6WalkerIZNS_11BranchUtils18getExitingBranchesEPNS_10ExpressionEE7ScannerNS_7VisitorIS4_vEEE12doVisitBlockEPS4_PS3_
_ZNSt6vectorIN4wasm11CodeFolding4TailESaIS2_EE17_M_realloc_insertIJS2_EEEvN9__gnu_cxx17__normal_iteratorIPS2_S4_EEDpOT_
_ZNSt6vectorIN4wasm11CodeFolding4TailESaIS2_EE12emplace_backIJS2_EEEvDpOT_
_ZN4wasm6WalkerINS_11CodeFoldingENS_7VisitorIS1_vEEE18doVisitUnreachableEPS1_PPNS_10ExpressionE
_ZN4wasm6WalkerINS_11CodeFoldingENS_7VisitorIS1_vEEE13doVisitReturnEPS1_PPNS_10ExpressionE
_ZNSt6vectorIN4wasm6WalkerIZNS0_11BranchUtils18getExitingBranchesEPNS0_10ExpressionEE7ScannerNS0_7VisitorIS5_vEEE4TaskESaIS9_EE17_M_realloc_insertIJRPFvPS5_PS4_ERSE_EEEvN9__gnu_cxx17__normal_iteratorIPS9_SB_EEDpOT_
_ZNSt6vectorIN4wasm6WalkerIZNS0_11BranchUtils18getExitingBranchesEPNS0_10ExpressionEE7ScannerNS0_7VisitorIS5_vEEE4TaskESaIS9_EE12emplace_backIJRPFvPS5_PS4_ERSE_EEEvDpOT_
_ZN4wasm6WalkerIZNS_11BranchUtils18getExitingBranchesEPNS_10ExpressionEE7ScannerNS_7VisitorIS4_vEEE8pushTaskEPFvPS4_PS3_ES9_
_ZN4wasm10PostWalkerIZNS_11BranchUtils18getExitingBranchesEPNS_10ExpressionEE7ScannerNS_7VisitorIS4_vEEE4scanEPS4_PS3_
_ZNSt8_Rb_treeIN4wasm4NameES1_St9_IdentityIS1_ESt4lessIS1_ESaIS1_EE7_M_copyINS7_11_Alloc_nodeEEEPSt13_Rb_tree_nodeIS1_EPKSB_PSt18_Rb_tree_node_baseRT_
_ZNSt6vectorIN4wasm6WalkerIZNS0_11BranchUtils16getBranchTargetsEPNS0_10ExpressionEE7ScannerNS0_7VisitorIS5_vEEE4TaskESaIS9_EE17_M_realloc_insertIJRPFvPS5_PS4_ERSE_EEEvN9__gnu_cxx17__normal_iteratorIPS9_SB_EEDpOT_
_ZNSt6vectorIN4wasm6WalkerIZNS0_11BranchUtils16getBranchTargetsEPNS0_10ExpressionEE7ScannerNS0_7VisitorIS5_vEEE4TaskESaIS9_EE12emplace_backIJRPFvPS5_PS4_ERSE_EEEvDpOT_
_ZN4wasm6WalkerIZNS_11BranchUtils16getBranchTargetsEPNS_10ExpressionEE7ScannerNS_7VisitorIS4_vEEE8pushTaskEPFvPS4_PS3_ES9_
_ZN4wasm10PostWalkerIZNS_11BranchUtils16getBranchTargetsEPNS_10ExpressionEE7ScannerNS_7VisitorIS4_vEEE4scanEPS4_PS3_
_ZNSt6vectorIN4wasm6WalkerINS0_8MeasurerENS0_24UnifiedExpressionVisitorIS2_vEEE4TaskESaIS6_EE17_M_realloc_insertIJRPFvPS2_PPNS0_10ExpressionEERSD_EEEvN9__gnu_cxx17__normal_iteratorIPS6_S8_EEDpOT_
_ZNSt6vectorIN4wasm6WalkerINS0_8MeasurerENS0_24UnifiedExpressionVisitorIS2_vEEE4TaskESaIS6_EE12emplace_backIJRPFvPS2_PPNS0_10ExpressionEERSD_EEEvDpOT_
_ZN4wasm6WalkerINS_8MeasurerENS_24UnifiedExpressionVisitorIS1_vEEE8pushTaskEPFvPS1_PPNS_10ExpressionEES8_
_ZN4wasm10PostWalkerINS_8MeasurerENS_24UnifiedExpressionVisitorIS1_vEEE4scanEPS1_PPNS_10ExpressionE
_ZN4wasm6WalkerINS_14EffectAnalyzerENS_7VisitorIS1_vEEE8pushTaskEPFvPS1_PPNS_10ExpressionEES8_
_ZZN4wasm11CodeFolding24optimizeTerminatingTailsERSt6vectorINS0_4TailESaIS2_EEjENKUlRS2_E4_clES6_
_ZNSt6vectorIN4wasm6WalkerINS0_16ExpressionMarkerENS0_24UnifiedExpressionVisitorIS2_vEEE4TaskESaIS6_EE17_M_realloc_insertIJRPFvPS2_PPNS0_10ExpressionEERSD_EEEvN9__gnu_cxx17__normal_iteratorIPS6_S8_EEDpOT_
_ZNSt6vectorIN4wasm6WalkerINS0_16ExpressionMarkerENS0_24UnifiedExpressionVisitorIS2_vEEE4TaskESaIS6_EE12emplace_backIJRPFvPS2_PPNS0_10ExpressionEERSD_EEEvDpOT_
_ZN4wasm6WalkerINS_16ExpressionMarkerENS_24UnifiedExpressionVisitorIS1_vEEE8pushTaskEPFvPS1_PPNS_10ExpressionEES8_
_ZN4wasm10PostWalkerINS_16ExpressionMarkerENS_24UnifiedExpressionVisitorIS1_vEEE4scanEPS1_PPNS_10ExpressionE
_ZNSt8_Rb_treeIN4wasm4NameESt4pairIKS1_St6vectorINS0_11CodeFolding4TailESaIS6_EEESt10_Select1stIS9_ESt4lessIS1_ESaIS9_EE24_M_get_insert_unique_posERS3_
_ZNSt8_Rb_treeIN4wasm4NameESt4pairIKS1_St6vectorINS0_11CodeFolding4TailESaIS6_EEESt10_Select1stIS9_ESt4lessIS1_ESaIS9_EE29_M_get_insert_hint_unique_posESt23_Rb_tree_const_iteratorIS9_ERS3_
_ZN4wasm6WalkerINS_11CodeFoldingENS_7VisitorIS1_vEEE12doVisitBreakEPS1_PPNS_10ExpressionE
_ZSt9__find_ifIN9__gnu_cxx17__normal_iteratorIPN4wasm11CodeFolding4TailESt6vectorIS4_SaIS4_EEEENS0_5__ops10_Iter_predIZNS3_24optimizeTerminatingTailsERS8_jEUlRS4_E_EEET_SG_SG_T0_St26random_access_iterator_tag
_ZSt9__find_ifIN9__gnu_cxx17__normal_iteratorIPN4wasm11CodeFolding4TailESt6vectorIS4_SaIS4_EEEENS0_5__ops10_Iter_predIZNS3_24optimizeTerminatingTailsERS8_jEUlRS4_E4_EEET_SG_SG_T0_St26random_access_iterator_tag
_ZNSt8_Rb_treeIjSt4pairIKjSt6vectorIPN4wasm10ExpressionESaIS5_EEESt10_Select1stIS8_ESt4lessIjESaIS8_EE24_M_get_insert_unique_posERS1_
_ZNSt8_Rb_treeIjSt4pairIKjSt6vectorIPN4wasm10ExpressionESaIS5_EEESt10_Select1stIS8_ESt4lessIjESaIS8_EE29_M_get_insert_hint_unique_posESt23_Rb_tree_const_iteratorIS8_ERS1_
_ZSt9__find_ifIN9__gnu_cxx17__normal_iteratorIPPN4wasm10ExpressionESt6vectorIS4_SaIS4_EEEENS0_5__ops10_Iter_predIZNS2_11CodeFolding24optimizeTerminatingTailsERS6_INSC_4TailESaISD_EEjEUlS4_E5_EEET_SJ_SJ_T0_St26random_access_iterator_tag
_ZSt9__find_ifIN9__gnu_cxx17__normal_iteratorIPN4wasm11CodeFolding4TailESt6vectorIS4_SaIS4_EEEENS0_5__ops10_Iter_predIZNS3_24optimizeTerminatingTailsERS8_jEUlRS4_E6_EEET_SG_SG_T0_St26random_access_iterator_tag
_ZNSt6vectorIN4wasm6WalkerINS0_11CodeFoldingENS0_7VisitorIS2_vEEE4TaskESaIS6_EE17_M_realloc_insertIJRPFvPS2_PPNS0_10ExpressionEERSD_EEEvN9__gnu_cxx17__normal_iteratorIPS6_S8_EEDpOT_
_ZNSt6vectorIN4wasm6WalkerINS0_11CodeFoldingENS0_7VisitorIS2_vEEE4TaskESaIS6_EE12emplace_backIJRPFvPS2_PPNS0_10ExpressionEERSD_EEEvDpOT_
_ZN4wasm6WalkerINS_11CodeFoldingENS_7VisitorIS1_vEEE8pushTaskEPFvPS1_PPNS_10ExpressionEES8_
_ZN4wasm10PostWalkerINS_11CodeFoldingENS_7VisitorIS1_vEEE4scanEPS1_PPNS_10ExpressionE
_ZN4wasm17ControlFlowWalkerINS_11CodeFoldingENS_7VisitorIS1_vEEE4scanEPS1_PPNS_10ExpressionE
_ZN4wasm6WalkerINS_11CodeFoldingENS_7VisitorIS1_vEEE9doVisitIfEPS1_PPNS_10ExpressionE
_ZN4wasm6WalkerINS_11CodeFoldingENS_7VisitorIS1_vEEE12doVisitBlockEPS1_PPNS_10ExpressionE
_ZN4wasm11CodeFolding7canMoveERKSt6vectorIPNS_10ExpressionESaIS3_EES3_
_ZN4wasm11CodeFolding23optimizeExpressionTailsINS_2IfEEEvRSt6vectorINS0_4TailESaIS4_EEPT_
_ZN4wasm11CodeFolding23optimizeExpressionTailsINS_5BlockEEEvRSt6vectorINS0_4TailESaIS4_EEPT_
_ZNSt6vectorIN4wasm6WalkerINS0_10LabelUtils12LabelManagerENS0_7VisitorIS3_vEEE4TaskESaIS7_EE17_M_realloc_insertIJRPFvPS3_PPNS0_10ExpressionEERSE_EEEvN9__gnu_cxx17__normal_iteratorIPS7_S9_EEDpOT_
_ZNSt6vectorIN4wasm6WalkerINS0_10LabelUtils12LabelManagerENS0_7VisitorIS3_vEEE4TaskESaIS7_EE12emplace_backIJRPFvPS3_PPNS0_10ExpressionEERSE_EEEvDpOT_
_ZN4wasm6WalkerINS_10LabelUtils12LabelManagerENS_7VisitorIS2_vEEE8pushTaskEPFvPS2_PPNS_10ExpressionEES9_
_ZN4wasm11CodeFolding24optimizeTerminatingTailsERSt6vectorINS0_4TailESaIS2_EEj
_ZN4wasm10PostWalkerINS_10LabelUtils12LabelManagerENS_7VisitorIS2_vEEE4scanEPS2_PPNS_10ExpressionE
_ZN4wasm11CodeFolding14doWalkFunctionEPNS_8FunctionE
_ZN4wasm10WalkerPassINS_17ControlFlowWalkerINS_11CodeFoldingENS_7VisitorIS2_vEEEEE11runFunctionEPNS_10PassRunnerEPNS_6ModuleEPNS_8FunctionE
_ZN4wasm10WalkerPassINS_17ControlFlowWalkerINS_11CodeFoldingENS_7VisitorIS2_vEEEEE3runEPNS_10PassRunnerEPNS_6ModuleE
_ZTSN4wasm7VisitorINS_11CodeFoldingEvEE
_ZTIN4wasm7VisitorINS_11CodeFoldingEvEE
_ZTSN4wasm6WalkerINS_11CodeFoldingENS_7VisitorIS1_vEEEE
_ZTIN4wasm6WalkerINS_11CodeFoldingENS_7VisitorIS1_vEEEE
_ZTSN4wasm10PostWalkerINS_11CodeFoldingENS_7VisitorIS1_vEEEE
_ZTIN4wasm10PostWalkerINS_11CodeFoldingENS_7VisitorIS1_vEEEE
_ZTSN4wasm17ControlFlowWalkerINS_11CodeFoldingENS_7VisitorIS1_vEEEE
_ZTIN4wasm17ControlFlowWalkerINS_11CodeFoldingENS_7VisitorIS1_vEEEE
_ZTSN4wasm10WalkerPassINS_17ControlFlowWalkerINS_11CodeFoldingENS_7VisitorIS2_vEEEEEE
_ZTIN4wasm10WalkerPassINS_17ControlFlowWalkerINS_11CodeFoldingENS_7VisitorIS2_vEEEEEE
_ZTSN4wasm11CodeFoldingE
_ZTIN4wasm11CodeFoldingE
_ZTSZN4wasm18ExpressionAnalyzer5equalEPNS_10ExpressionES2_EUlS2_S2_E_
_ZN4wasm13ConstHoisting18isFunctionParallelEv
_ZN4wasm13ConstHoisting6createEv
_ZTVN4wasm13ConstHoistingE
_ZN4wasm6WalkerINS_13ConstHoistingENS_7VisitorIS1_vEEE12doVisitBlockEPS1_PPNS_10ExpressionE
_ZN4wasm6WalkerINS_13ConstHoistingENS_7VisitorIS1_vEEE9doVisitIfEPS1_PPNS_10ExpressionE
_ZN4wasm6WalkerINS_13ConstHoistingENS_7VisitorIS1_vEEE11doVisitLoopEPS1_PPNS_10ExpressionE
_ZN4wasm6WalkerINS_13ConstHoistingENS_7VisitorIS1_vEEE12doVisitBreakEPS1_PPNS_10ExpressionE
_ZN4wasm6WalkerINS_13ConstHoistingENS_7VisitorIS1_vEEE13doVisitSwitchEPS1_PPNS_10ExpressionE
_ZN4wasm6WalkerINS_13ConstHoistingENS_7VisitorIS1_vEEE11doVisitCallEPS1_PPNS_10ExpressionE
_ZN4wasm6WalkerINS_13ConstHoistingENS_7VisitorIS1_vEEE17doVisitCallImportEPS1_PPNS_10ExpressionE
_ZN4wasm6WalkerINS_13ConstHoistingENS_7VisitorIS1_vEEE19doVisitCallIndirectEPS1_PPNS_10ExpressionE
_ZN4wasm6WalkerINS_13ConstHoistingENS_7VisitorIS1_vEEE15doVisitGetLocalEPS1_PPNS_10ExpressionE
_ZN4wasm6WalkerINS_13ConstHoistingENS_7VisitorIS1_vEEE15doVisitSetLocalEPS1_PPNS_10ExpressionE
_ZN4wasm6WalkerINS_13ConstHoistingENS_7VisitorIS1_vEEE16doVisitGetGlobalEPS1_PPNS_10ExpressionE
_ZN4wasm6WalkerINS_13ConstHoistingENS_7VisitorIS1_vEEE16doVisitSetGlobalEPS1_PPNS_10ExpressionE
_ZN4wasm6WalkerINS_13ConstHoistingENS_7VisitorIS1_vEEE11doVisitLoadEPS1_PPNS_10ExpressionE
_ZN4wasm6WalkerINS_13ConstHoistingENS_7VisitorIS1_vEEE12doVisitStoreEPS1_PPNS_10ExpressionE
_ZN4wasm6WalkerINS_13ConstHoistingENS_7VisitorIS1_vEEE16doVisitAtomicRMWEPS1_PPNS_10ExpressionE
_ZN4wasm6WalkerINS_13ConstHoistingENS_7VisitorIS1_vEEE20doVisitAtomicCmpxchgEPS1_PPNS_10ExpressionE
_ZN4wasm6WalkerINS_13ConstHoistingENS_7VisitorIS1_vEEE17doVisitAtomicWaitEPS1_PPNS_10ExpressionE
_ZN4wasm6WalkerINS_13ConstHoistingENS_7VisitorIS1_vEEE17doVisitAtomicWakeEPS1_PPNS_10ExpressionE
_ZN4wasm6WalkerINS_13ConstHoistingENS_7VisitorIS1_vEEE12doVisitUnaryEPS1_PPNS_10ExpressionE
_ZN4wasm6WalkerINS_13ConstHoistingENS_7VisitorIS1_vEEE13doVisitBinaryEPS1_PPNS_10ExpressionE
_ZN4wasm6WalkerINS_13ConstHoistingENS_7VisitorIS1_vEEE13doVisitSelectEPS1_PPNS_10ExpressionE
_ZN4wasm6WalkerINS_13ConstHoistingENS_7VisitorIS1_vEEE11doVisitDropEPS1_PPNS_10ExpressionE
_ZN4wasm6WalkerINS_13ConstHoistingENS_7VisitorIS1_vEEE13doVisitReturnEPS1_PPNS_10ExpressionE
_ZN4wasm6WalkerINS_13ConstHoistingENS_7VisitorIS1_vEEE11doVisitHostEPS1_PPNS_10ExpressionE
_ZN4wasm6WalkerINS_13ConstHoistingENS_7VisitorIS1_vEEE10doVisitNopEPS1_PPNS_10ExpressionE
_ZN4wasm6WalkerINS_13ConstHoistingENS_7VisitorIS1_vEEE18doVisitUnreachableEPS1_PPNS_10ExpressionE
_ZN4wasm10WalkerPassINS_10PostWalkerINS_13ConstHoistingENS_7VisitorIS2_vEEEEED2Ev
_ZTVN4wasm10WalkerPassINS_10PostWalkerINS_13ConstHoistingENS_7VisitorIS2_vEEEEEE
_ZN4wasm10WalkerPassINS_10PostWalkerINS_13ConstHoistingENS_7VisitorIS2_vEEEEED1Ev
_ZN4wasm10WalkerPassINS_10PostWalkerINS_13ConstHoistingENS_7VisitorIS2_vEEEEED0Ev
_ZNSt8_Rb_treeIN4wasm7LiteralESt4pairIKS1_St6vectorIPPNS0_10ExpressionESaIS7_EEESt10_Select1stISA_ESt4lessIS1_ESaISA_EE8_M_eraseEPSt13_Rb_tree_nodeISA_E
_ZN4wasm13ConstHoistingD2Ev
_ZN4wasm13ConstHoistingD1Ev
_ZN4wasm13ConstHoistingD0Ev
_ZNSt6vectorIhSaIhEE17_M_realloc_insertIJRKhEEEvN9__gnu_cxx17__normal_iteratorIPhS1_EEDpOT_
_ZNSt6vectorIPPN4wasm10ExpressionESaIS3_EE17_M_realloc_insertIJS3_EEEvN9__gnu_cxx17__normal_iteratorIPS3_S5_EEDpOT_
_ZNSt6vectorIPN4wasm10ExpressionESaIS2_EE17_M_realloc_insertIJS2_EEEvN9__gnu_cxx17__normal_iteratorIPS2_S4_EEDpOT_
_ZN4wasm13ConstHoisting13visitFunctionEPNS_8FunctionE
_ZNSt8_Rb_treeIN4wasm7LiteralESt4pairIKS1_St6vectorIPPNS0_10ExpressionESaIS7_EEESt10_Select1stISA_ESt4lessIS1_ESaISA_EE24_M_get_insert_unique_posERS3_
_ZNSt8_Rb_treeIN4wasm7LiteralESt4pairIKS1_St6vectorIPPNS0_10ExpressionESaIS7_EEESt10_Select1stISA_ESt4lessIS1_ESaISA_EE29_M_get_insert_hint_unique_posESt23_Rb_tree_const_iteratorISA_ERS3_
_ZNSt8_Rb_treeIN4wasm7LiteralESt4pairIKS1_St6vectorIPPNS0_10ExpressionESaIS7_EEESt10_Select1stISA_ESt4lessIS1_ESaISA_EE22_M_emplace_hint_uniqueIJRKSt21piecewise_construct_tSt5tupleIJRS3_EESL_IJEEEEESt17_Rb_tree_iteratorISA_ESt23_Rb_tree_const_iteratorISA_EDpOT_
_ZN4wasm6WalkerINS_13ConstHoistingENS_7VisitorIS1_vEEE12doVisitConstEPS1_PPNS_10ExpressionE
_ZNSt6vectorIN4wasm6WalkerINS0_13ConstHoistingENS0_7VisitorIS2_vEEE4TaskESaIS6_EE17_M_realloc_insertIJRPFvPS2_PPNS0_10ExpressionEERSD_EEEvN9__gnu_cxx17__normal_iteratorIPS6_S8_EEDpOT_
_ZNSt6vectorIN4wasm6WalkerINS0_13ConstHoistingENS0_7VisitorIS2_vEEE4TaskESaIS6_EE12emplace_backIJRPFvPS2_PPNS0_10ExpressionEERSD_EEEvDpOT_
_ZN4wasm10WalkerPassINS_10PostWalkerINS_13ConstHoistingENS_7VisitorIS2_vEEEEE11runFunctionEPNS_10PassRunnerEPNS_6ModuleEPNS_8FunctionE
_ZN4wasm10PostWalkerINS_13ConstHoistingENS_7VisitorIS1_vEEE4scanEPS1_PPNS_10ExpressionE
_ZN4wasm10WalkerPassINS_10PostWalkerINS_13ConstHoistingENS_7VisitorIS2_vEEEEE3runEPNS_10PassRunnerEPNS_6ModuleE
_ZTSN4wasm7VisitorINS_13ConstHoistingEvEE
_ZTIN4wasm7VisitorINS_13ConstHoistingEvEE
_ZTSN4wasm6WalkerINS_13ConstHoistingENS_7VisitorIS1_vEEEE
_ZTIN4wasm6WalkerINS_13ConstHoistingENS_7VisitorIS1_vEEEE
_ZTSN4wasm10PostWalkerINS_13ConstHoistingENS_7VisitorIS1_vEEEE
_ZTIN4wasm10PostWalkerINS_13ConstHoistingENS_7VisitorIS1_vEEEE
_ZTSN4wasm10WalkerPassINS_10PostWalkerINS_13ConstHoistingENS_7VisitorIS2_vEEEEEE
_ZTIN4wasm10WalkerPassINS_10PostWalkerINS_13ConstHoistingENS_7VisitorIS2_vEEEEEE
_ZTSN4wasm13ConstHoistingE
_ZTIN4wasm13ConstHoistingE
_ZN4wasm19DeadCodeElimination18isFunctionParallelEv
_ZN4wasm10WalkerPassINS_10PostWalkerINS_19DeadCodeEliminationENS_7VisitorIS2_vEEEEED2Ev
_ZTVN4wasm10WalkerPassINS_10PostWalkerINS_19DeadCodeEliminationENS_7VisitorIS2_vEEEEEE
_ZN4wasm10WalkerPassINS_10PostWalkerINS_19DeadCodeEliminationENS_7VisitorIS2_vEEEEED1Ev
_ZN4wasm6WalkerINS_19DeadCodeEliminationENS_7VisitorIS1_vEEE15doVisitGetLocalEPS1_PPNS_10ExpressionE
_ZN4wasm6WalkerINS_19DeadCodeEliminationENS_7VisitorIS1_vEEE16doVisitGetGlobalEPS1_PPNS_10ExpressionE
_ZN4wasm6WalkerINS_19DeadCodeEliminationENS_7VisitorIS1_vEEE17doVisitAtomicWaitEPS1_PPNS_10ExpressionE
_ZN4wasm6WalkerINS_19DeadCodeEliminationENS_7VisitorIS1_vEEE17doVisitAtomicWakeEPS1_PPNS_10ExpressionE
_ZN4wasm6WalkerINS_19DeadCodeEliminationENS_7VisitorIS1_vEEE12doVisitConstEPS1_PPNS_10ExpressionE
_ZN4wasm6WalkerINS_19DeadCodeEliminationENS_7VisitorIS1_vEEE10doVisitNopEPS1_PPNS_10ExpressionE
_ZN4wasm6WalkerINS_19DeadCodeEliminationENS_7VisitorIS1_vEEE18doVisitUnreachableEPS1_PPNS_10ExpressionE
_ZN4wasm6WalkerINS_11BranchUtils12BranchSeekerENS_7VisitorIS2_vEEE12doVisitBlockEPS2_PPNS_10ExpressionE
_ZN4wasm6WalkerINS_11BranchUtils12BranchSeekerENS_7VisitorIS2_vEEE9doVisitIfEPS2_PPNS_10ExpressionE
_ZN4wasm6WalkerINS_11BranchUtils12BranchSeekerENS_7VisitorIS2_vEEE11doVisitLoopEPS2_PPNS_10ExpressionE
_ZN4wasm6WalkerINS_11BranchUtils12BranchSeekerENS_7VisitorIS2_vEEE11doVisitCallEPS2_PPNS_10ExpressionE
_ZN4wasm6WalkerINS_11BranchUtils12BranchSeekerENS_7VisitorIS2_vEEE17doVisitCallImportEPS2_PPNS_10ExpressionE
_ZN4wasm6WalkerINS_11BranchUtils12BranchSeekerENS_7VisitorIS2_vEEE19doVisitCallIndirectEPS2_PPNS_10ExpressionE
_ZN4wasm6WalkerINS_11BranchUtils12BranchSeekerENS_7VisitorIS2_vEEE15doVisitGetLocalEPS2_PPNS_10ExpressionE
_ZN4wasm6WalkerINS_11BranchUtils12BranchSeekerENS_7VisitorIS2_vEEE15doVisitSetLocalEPS2_PPNS_10ExpressionE
_ZN4wasm6WalkerINS_11BranchUtils12BranchSeekerENS_7VisitorIS2_vEEE16doVisitGetGlobalEPS2_PPNS_10ExpressionE
_ZN4wasm6WalkerINS_11BranchUtils12BranchSeekerENS_7VisitorIS2_vEEE16doVisitSetGlobalEPS2_PPNS_10ExpressionE
_ZN4wasm6WalkerINS_11BranchUtils12BranchSeekerENS_7VisitorIS2_vEEE11doVisitLoadEPS2_PPNS_10ExpressionE
_ZN4wasm6WalkerINS_11BranchUtils12BranchSeekerENS_7VisitorIS2_vEEE12doVisitStoreEPS2_PPNS_10ExpressionE
_ZN4wasm6WalkerINS_11BranchUtils12BranchSeekerENS_7VisitorIS2_vEEE16doVisitAtomicRMWEPS2_PPNS_10ExpressionE
_ZN4wasm6WalkerINS_11BranchUtils12BranchSeekerENS_7VisitorIS2_vEEE20doVisitAtomicCmpxchgEPS2_PPNS_10ExpressionE
_ZN4wasm6WalkerINS_11BranchUtils12BranchSeekerENS_7VisitorIS2_vEEE17doVisitAtomicWaitEPS2_PPNS_10ExpressionE
_ZN4wasm6WalkerINS_11BranchUtils12BranchSeekerENS_7VisitorIS2_vEEE17doVisitAtomicWakeEPS2_PPNS_10ExpressionE
_ZN4wasm6WalkerINS_11BranchUtils12BranchSeekerENS_7VisitorIS2_vEEE12doVisitConstEPS2_PPNS_10ExpressionE
_ZN4wasm6WalkerINS_11BranchUtils12BranchSeekerENS_7VisitorIS2_vEEE12doVisitUnaryEPS2_PPNS_10ExpressionE
_ZN4wasm6WalkerINS_11BranchUtils12BranchSeekerENS_7VisitorIS2_vEEE13doVisitBinaryEPS2_PPNS_10ExpressionE
_ZN4wasm6WalkerINS_11BranchUtils12BranchSeekerENS_7VisitorIS2_vEEE13doVisitSelectEPS2_PPNS_10ExpressionE
_ZN4wasm6WalkerINS_11BranchUtils12BranchSeekerENS_7VisitorIS2_vEEE11doVisitDropEPS2_PPNS_10ExpressionE
_ZN4wasm6WalkerINS_11BranchUtils12BranchSeekerENS_7VisitorIS2_vEEE13doVisitReturnEPS2_PPNS_10ExpressionE
_ZN4wasm6WalkerINS_11BranchUtils12BranchSeekerENS_7VisitorIS2_vEEE11doVisitHostEPS2_PPNS_10ExpressionE
_ZN4wasm6WalkerINS_11BranchUtils12BranchSeekerENS_7VisitorIS2_vEEE10doVisitNopEPS2_PPNS_10ExpressionE
_ZN4wasm6WalkerINS_11BranchUtils12BranchSeekerENS_7VisitorIS2_vEEE18doVisitUnreachableEPS2_PPNS_10ExpressionE
_ZN4wasm6WalkerINS_11BranchUtils12BranchSeekerENS_7VisitorIS2_vEEE12doVisitBreakEPS2_PPNS_10ExpressionE
_ZN4wasm6WalkerINS_11BranchUtils12BranchSeekerENS_7VisitorIS2_vEEE13doVisitSwitchEPS2_PPNS_10ExpressionE
_ZN4wasm19DeadCodeElimination6createEv
_ZTVN4wasm19DeadCodeEliminationE
_ZN4wasm10WalkerPassINS_10PostWalkerINS_19DeadCodeEliminationENS_7VisitorIS2_vEEEEED0Ev
_ZN4wasm21ExpressionStackWalkerINS_11TypeUpdaterENS_24UnifiedExpressionVisitorIS1_vEEE11doPostVisitEPS1_PPNS_10ExpressionE
_ZNSt8_Rb_treeIPN4wasm10ExpressionESt4pairIKS2_S2_ESt10_Select1stIS5_ESt4lessIS2_ESaIS5_EE4findERS4_
_ZNSt8_Rb_treeIN4wasm4NameESt4pairIKS1_NS0_11TypeUpdater9BlockInfoEESt10_Select1stIS6_ESt4lessIS1_ESaIS6_EE8_M_eraseEPSt13_Rb_tree_nodeIS6_E
_ZNSt8_Rb_treeIPN4wasm10ExpressionESt4pairIKS2_S2_ESt10_Select1stIS5_ESt4lessIS2_ESaIS5_EE8_M_eraseEPSt13_Rb_tree_nodeIS5_E
_ZNSt8_Rb_treeIPN4wasm10ExpressionESt4pairIKS2_S2_ESt10_Select1stIS5_ESt4lessIS2_ESaIS5_EE5eraseERS4_
_ZN4wasm19DeadCodeEliminationD2Ev
_ZN4wasm19DeadCodeEliminationD1Ev
_ZN4wasm19DeadCodeEliminationD0Ev
_ZNSt6vectorIbSaIbEE13_M_insert_auxESt13_Bit_iteratorb
_ZN4wasm19DeadCodeElimination17doAfterIfElseTrueEPS0_PPNS_10ExpressionE
_ZN4wasm19DeadCodeElimination18doAfterIfConditionEPS0_PPNS_10ExpressionE
_ZNSt6vectorIN4wasm6WalkerINS0_19DeadCodeEliminationENS0_7VisitorIS2_vEEE4TaskESaIS6_EE17_M_realloc_insertIJRPFvPS2_PPNS0_10ExpressionEERSD_EEEvN9__gnu_cxx17__normal_iteratorIPS6_S8_EEDpOT_
_ZNSt6vectorIN4wasm6WalkerINS0_19DeadCodeEliminationENS0_7VisitorIS2_vEEE4TaskESaIS6_EE12emplace_backIJRPFvPS2_PPNS0_10ExpressionEERSD_EEEvDpOT_
_ZN4wasm6WalkerINS_19DeadCodeEliminationENS_7VisitorIS1_vEEE8pushTaskEPFvPS1_PPNS_10ExpressionEES8_
_ZN4wasm10PostWalkerINS_19DeadCodeEliminationENS_7VisitorIS1_vEEE4scanEPS1_PPNS_10ExpressionE
_ZN4wasm19DeadCodeElimination4scanEPS0_PPNS_10ExpressionE
_ZN4wasm6WalkerINS_19DeadCodeEliminationENS_7VisitorIS1_vEEE16doVisitAtomicRMWEPS1_PPNS_10ExpressionE
_ZN4wasm6WalkerINS_19DeadCodeEliminationENS_7VisitorIS1_vEEE20doVisitAtomicCmpxchgEPS1_PPNS_10ExpressionE
_ZN4wasm6WalkerINS_19DeadCodeEliminationENS_7VisitorIS1_vEEE11doVisitDropEPS1_PPNS_10ExpressionE
_ZN4wasm6WalkerINS_19DeadCodeEliminationENS_7VisitorIS1_vEEE13doVisitSelectEPS1_PPNS_10ExpressionE
_ZN4wasm6WalkerINS_19DeadCodeEliminationENS_7VisitorIS1_vEEE13doVisitBinaryEPS1_PPNS_10ExpressionE
_ZN4wasm6WalkerINS_19DeadCodeEliminationENS_7VisitorIS1_vEEE12doVisitUnaryEPS1_PPNS_10ExpressionE
_ZN4wasm6WalkerINS_19DeadCodeEliminationENS_7VisitorIS1_vEEE11doVisitHostEPS1_PPNS_10ExpressionE
_ZN4wasm6WalkerINS_19DeadCodeEliminationENS_7VisitorIS1_vEEE13doVisitReturnEPS1_PPNS_10ExpressionE
_ZN4wasm6WalkerINS_19DeadCodeEliminationENS_7VisitorIS1_vEEE17doVisitCallImportEPS1_PPNS_10ExpressionE
_ZN4wasm6WalkerINS_19DeadCodeEliminationENS_7VisitorIS1_vEEE11doVisitCallEPS1_PPNS_10ExpressionE
_ZN4wasm6WalkerINS_19DeadCodeEliminationENS_7VisitorIS1_vEEE13doVisitSwitchEPS1_PPNS_10ExpressionE
_ZN4wasm6WalkerINS_19DeadCodeEliminationENS_7VisitorIS1_vEEE11doVisitLoopEPS1_PPNS_10ExpressionE
_ZN4wasm6WalkerINS_19DeadCodeEliminationENS_7VisitorIS1_vEEE9doVisitIfEPS1_PPNS_10ExpressionE
_ZN4wasm6WalkerINS_19DeadCodeEliminationENS_7VisitorIS1_vEEE12doVisitBlockEPS1_PPNS_10ExpressionE
_ZN4wasm6WalkerINS_19DeadCodeEliminationENS_7VisitorIS1_vEEE12doVisitBreakEPS1_PPNS_10ExpressionE
_ZN4wasm6WalkerINS_19DeadCodeEliminationENS_7VisitorIS1_vEEE11doVisitLoadEPS1_PPNS_10ExpressionE
_ZN4wasm6WalkerINS_19DeadCodeEliminationENS_7VisitorIS1_vEEE16doVisitSetGlobalEPS1_PPNS_10ExpressionE
_ZN4wasm6WalkerINS_19DeadCodeEliminationENS_7VisitorIS1_vEEE19doVisitCallIndirectEPS1_PPNS_10ExpressionE
_ZN4wasm6WalkerINS_19DeadCodeEliminationENS_7VisitorIS1_vEEE15doVisitSetLocalEPS1_PPNS_10ExpressionE
_ZN4wasm6WalkerINS_19DeadCodeEliminationENS_7VisitorIS1_vEEE12doVisitStoreEPS1_PPNS_10ExpressionE
_ZNSt6vectorIN4wasm6WalkerINS0_11BranchUtils12BranchSeekerENS0_7VisitorIS3_vEEE4TaskESaIS7_EE17_M_realloc_insertIJRPFvPS3_PPNS0_10ExpressionEERSE_EEEvN9__gnu_cxx17__normal_iteratorIPS7_S9_EEDpOT_
_ZNSt6vectorIN4wasm6WalkerINS0_11BranchUtils12BranchSeekerENS0_7VisitorIS3_vEEE4TaskESaIS7_EE12emplace_backIJRPFvPS3_PPNS0_10ExpressionEERSE_EEEvDpOT_
_ZN4wasm6WalkerINS_11BranchUtils12BranchSeekerENS_7VisitorIS2_vEEE8pushTaskEPFvPS2_PPNS_10ExpressionEES9_
_ZN4wasm10PostWalkerINS_11BranchUtils12BranchSeekerENS_7VisitorIS2_vEEE4scanEPS2_PPNS_10ExpressionE
_ZN4wasm10BlockUtils18simplifyToContentsINS_19DeadCodeEliminationEEEPNS_10ExpressionEPNS_5BlockEPT_b
_ZNSt8_Rb_treeIPN4wasm10ExpressionESt4pairIKS2_S2_ESt10_Select1stIS5_ESt4lessIS2_ESaIS5_EE24_M_get_insert_unique_posERS4_
_ZNSt8_Rb_treeIPN4wasm10ExpressionESt4pairIKS2_S2_ESt10_Select1stIS5_ESt4lessIS2_ESaIS5_EE29_M_get_insert_hint_unique_posESt23_Rb_tree_const_iteratorIS5_ERS4_
_ZNSt8_Rb_treeIPN4wasm10ExpressionESt4pairIKS2_S2_ESt10_Select1stIS5_ESt4lessIS2_ESaIS5_EE22_M_emplace_hint_uniqueIJRKSt21piecewise_construct_tSt5tupleIJRS4_EESG_IJEEEEESt17_Rb_tree_iteratorIS5_ESt23_Rb_tree_const_iteratorIS5_EDpOT_
_ZNSt3mapIPN4wasm10ExpressionES2_St4lessIS2_ESaISt4pairIKS2_S2_EEEixERS6_
_ZNSt8_Rb_treeIN4wasm4NameESt4pairIKS1_NS0_11TypeUpdater9BlockInfoEESt10_Select1stIS6_ESt4lessIS1_ESaIS6_EE24_M_get_insert_unique_posERS3_
_ZNSt8_Rb_treeIN4wasm4NameESt4pairIKS1_NS0_11TypeUpdater9BlockInfoEESt10_Select1stIS6_ESt4lessIS1_ESaIS6_EE29_M_get_insert_hint_unique_posESt23_Rb_tree_const_iteratorIS6_ERS3_
_ZNSt8_Rb_treeIN4wasm4NameESt4pairIKS1_NS0_11TypeUpdater9BlockInfoEESt10_Select1stIS6_ESt4lessIS1_ESaIS6_EE22_M_emplace_hint_uniqueIJRKSt21piecewise_construct_tSt5tupleIJRS3_EESH_IJEEEEESt17_Rb_tree_iteratorIS6_ESt23_Rb_tree_const_iteratorIS6_EDpOT_
_ZN4wasm11TypeUpdater16propagateTypesUpEPNS_10ExpressionE
_ZN4wasm11TypeUpdater15noteBreakChangeENS_4NameEiPNS_10ExpressionE
_ZN4wasm11TypeUpdater12noteAdditionEPNS_10ExpressionES2_S2_
_ZN4wasm6WalkerIZNS_11TypeUpdater20noteRecursiveRemovalEPNS_10ExpressionEE8RecurserNS_24UnifiedExpressionVisitorIS4_vEEE18doVisitUnreachableEPS4_PS3_
_ZN4wasm6WalkerIZNS_11TypeUpdater20noteRecursiveRemovalEPNS_10ExpressionEE8RecurserNS_24UnifiedExpressionVisitorIS4_vEEE10doVisitNopEPS4_PS3_
_ZN4wasm6WalkerIZNS_11TypeUpdater20noteRecursiveRemovalEPNS_10ExpressionEE8RecurserNS_24UnifiedExpressionVisitorIS4_vEEE11doVisitHostEPS4_PS3_
_ZN4wasm6WalkerIZNS_11TypeUpdater20noteRecursiveRemovalEPNS_10ExpressionEE8RecurserNS_24UnifiedExpressionVisitorIS4_vEEE13doVisitReturnEPS4_PS3_
_ZN4wasm6WalkerIZNS_11TypeUpdater20noteRecursiveRemovalEPNS_10ExpressionEE8RecurserNS_24UnifiedExpressionVisitorIS4_vEEE11doVisitDropEPS4_PS3_
_ZN4wasm6WalkerIZNS_11TypeUpdater20noteRecursiveRemovalEPNS_10ExpressionEE8RecurserNS_24UnifiedExpressionVisitorIS4_vEEE13doVisitSelectEPS4_PS3_
_ZN4wasm6WalkerIZNS_11TypeUpdater20noteRecursiveRemovalEPNS_10ExpressionEE8RecurserNS_24UnifiedExpressionVisitorIS4_vEEE13doVisitBinaryEPS4_PS3_
_ZN4wasm6WalkerIZNS_11TypeUpdater20noteRecursiveRemovalEPNS_10ExpressionEE8RecurserNS_24UnifiedExpressionVisitorIS4_vEEE12doVisitUnaryEPS4_PS3_
_ZN4wasm6WalkerIZNS_11TypeUpdater20noteRecursiveRemovalEPNS_10ExpressionEE8RecurserNS_24UnifiedExpressionVisitorIS4_vEEE12doVisitConstEPS4_PS3_
_ZN4wasm6WalkerIZNS_11TypeUpdater20noteRecursiveRemovalEPNS_10ExpressionEE8RecurserNS_24UnifiedExpressionVisitorIS4_vEEE17doVisitAtomicWakeEPS4_PS3_
_ZN4wasm6WalkerIZNS_11TypeUpdater20noteRecursiveRemovalEPNS_10ExpressionEE8RecurserNS_24UnifiedExpressionVisitorIS4_vEEE17doVisitAtomicWaitEPS4_PS3_
_ZN4wasm6WalkerIZNS_11TypeUpdater20noteRecursiveRemovalEPNS_10ExpressionEE8RecurserNS_24UnifiedExpressionVisitorIS4_vEEE20doVisitAtomicCmpxchgEPS4_PS3_
_ZN4wasm6WalkerIZNS_11TypeUpdater20noteRecursiveRemovalEPNS_10ExpressionEE8RecurserNS_24UnifiedExpressionVisitorIS4_vEEE16doVisitAtomicRMWEPS4_PS3_
_ZN4wasm6WalkerIZNS_11TypeUpdater20noteRecursiveRemovalEPNS_10ExpressionEE8RecurserNS_24UnifiedExpressionVisitorIS4_vEEE12doVisitStoreEPS4_PS3_
_ZN4wasm6WalkerIZNS_11TypeUpdater20noteRecursiveRemovalEPNS_10ExpressionEE8RecurserNS_24UnifiedExpressionVisitorIS4_vEEE11doVisitLoadEPS4_PS3_
_ZN4wasm6WalkerIZNS_11TypeUpdater20noteRecursiveRemovalEPNS_10ExpressionEE8RecurserNS_24UnifiedExpressionVisitorIS4_vEEE16doVisitSetGlobalEPS4_PS3_
_ZN4wasm6WalkerIZNS_11TypeUpdater20noteRecursiveRemovalEPNS_10ExpressionEE8RecurserNS_24UnifiedExpressionVisitorIS4_vEEE16doVisitGetGlobalEPS4_PS3_
_ZN4wasm6WalkerIZNS_11TypeUpdater20noteRecursiveRemovalEPNS_10ExpressionEE8RecurserNS_24UnifiedExpressionVisitorIS4_vEEE15doVisitSetLocalEPS4_PS3_
_ZN4wasm6WalkerIZNS_11TypeUpdater20noteRecursiveRemovalEPNS_10ExpressionEE8RecurserNS_24UnifiedExpressionVisitorIS4_vEEE15doVisitGetLocalEPS4_PS3_
_ZN4wasm6WalkerIZNS_11TypeUpdater20noteRecursiveRemovalEPNS_10ExpressionEE8RecurserNS_24UnifiedExpressionVisitorIS4_vEEE19doVisitCallIndirectEPS4_PS3_
_ZN4wasm6WalkerIZNS_11TypeUpdater20noteRecursiveRemovalEPNS_10ExpressionEE8RecurserNS_24UnifiedExpressionVisitorIS4_vEEE17doVisitCallImportEPS4_PS3_
_ZN4wasm6WalkerIZNS_11TypeUpdater20noteRecursiveRemovalEPNS_10ExpressionEE8RecurserNS_24UnifiedExpressionVisitorIS4_vEEE11doVisitCallEPS4_PS3_
_ZN4wasm6WalkerIZNS_11TypeUpdater20noteRecursiveRemovalEPNS_10ExpressionEE8RecurserNS_24UnifiedExpressionVisitorIS4_vEEE13doVisitSwitchEPS4_PS3_
_ZN4wasm6WalkerIZNS_11TypeUpdater20noteRecursiveRemovalEPNS_10ExpressionEE8RecurserNS_24UnifiedExpressionVisitorIS4_vEEE12doVisitBreakEPS4_PS3_
_ZN4wasm6WalkerIZNS_11TypeUpdater20noteRecursiveRemovalEPNS_10ExpressionEE8RecurserNS_24UnifiedExpressionVisitorIS4_vEEE11doVisitLoopEPS4_PS3_
_ZN4wasm6WalkerIZNS_11TypeUpdater20noteRecursiveRemovalEPNS_10ExpressionEE8RecurserNS_24UnifiedExpressionVisitorIS4_vEEE9doVisitIfEPS4_PS3_
_ZN4wasm6WalkerIZNS_11TypeUpdater20noteRecursiveRemovalEPNS_10ExpressionEE8RecurserNS_24UnifiedExpressionVisitorIS4_vEEE12doVisitBlockEPS4_PS3_
_ZN4wasm11TypeUpdater15visitExpressionEPNS_10ExpressionE
_ZN4wasm6WalkerINS_11TypeUpdaterENS_24UnifiedExpressionVisitorIS1_vEEE18doVisitUnreachableEPS1_PPNS_10ExpressionE
_ZN4wasm6WalkerINS_11TypeUpdaterENS_24UnifiedExpressionVisitorIS1_vEEE10doVisitNopEPS1_PPNS_10ExpressionE
_ZN4wasm6WalkerINS_11TypeUpdaterENS_24UnifiedExpressionVisitorIS1_vEEE11doVisitHostEPS1_PPNS_10ExpressionE
_ZN4wasm6WalkerINS_11TypeUpdaterENS_24UnifiedExpressionVisitorIS1_vEEE13doVisitReturnEPS1_PPNS_10ExpressionE
_ZN4wasm6WalkerINS_11TypeUpdaterENS_24UnifiedExpressionVisitorIS1_vEEE11doVisitDropEPS1_PPNS_10ExpressionE
_ZN4wasm6WalkerINS_11TypeUpdaterENS_24UnifiedExpressionVisitorIS1_vEEE13doVisitSelectEPS1_PPNS_10ExpressionE
_ZN4wasm6WalkerINS_11TypeUpdaterENS_24UnifiedExpressionVisitorIS1_vEEE13doVisitBinaryEPS1_PPNS_10ExpressionE
_ZN4wasm6WalkerINS_11TypeUpdaterENS_24UnifiedExpressionVisitorIS1_vEEE12doVisitUnaryEPS1_PPNS_10ExpressionE
_ZN4wasm6WalkerINS_11TypeUpdaterENS_24UnifiedExpressionVisitorIS1_vEEE12doVisitConstEPS1_PPNS_10ExpressionE
_ZN4wasm6WalkerINS_11TypeUpdaterENS_24UnifiedExpressionVisitorIS1_vEEE17doVisitAtomicWakeEPS1_PPNS_10ExpressionE
_ZN4wasm6WalkerINS_11TypeUpdaterENS_24UnifiedExpressionVisitorIS1_vEEE17doVisitAtomicWaitEPS1_PPNS_10ExpressionE
_ZN4wasm6WalkerINS_11TypeUpdaterENS_24UnifiedExpressionVisitorIS1_vEEE20doVisitAtomicCmpxchgEPS1_PPNS_10ExpressionE
_ZN4wasm6WalkerINS_11TypeUpdaterENS_24UnifiedExpressionVisitorIS1_vEEE16doVisitAtomicRMWEPS1_PPNS_10ExpressionE
_ZN4wasm6WalkerINS_11TypeUpdaterENS_24UnifiedExpressionVisitorIS1_vEEE12doVisitStoreEPS1_PPNS_10ExpressionE
_ZN4wasm6WalkerINS_11TypeUpdaterENS_24UnifiedExpressionVisitorIS1_vEEE11doVisitLoadEPS1_PPNS_10ExpressionE
_ZN4wasm6WalkerINS_11TypeUpdaterENS_24UnifiedExpressionVisitorIS1_vEEE16doVisitSetGlobalEPS1_PPNS_10ExpressionE
_ZN4wasm6WalkerINS_11TypeUpdaterENS_24UnifiedExpressionVisitorIS1_vEEE16doVisitGetGlobalEPS1_PPNS_10ExpressionE
_ZN4wasm6WalkerINS_11TypeUpdaterENS_24UnifiedExpressionVisitorIS1_vEEE15doVisitSetLocalEPS1_PPNS_10ExpressionE
_ZN4wasm6WalkerINS_11TypeUpdaterENS_24UnifiedExpressionVisitorIS1_vEEE15doVisitGetLocalEPS1_PPNS_10ExpressionE
_ZN4wasm6WalkerINS_11TypeUpdaterENS_24UnifiedExpressionVisitorIS1_vEEE19doVisitCallIndirectEPS1_PPNS_10ExpressionE
_ZN4wasm6WalkerINS_11TypeUpdaterENS_24UnifiedExpressionVisitorIS1_vEEE17doVisitCallImportEPS1_PPNS_10ExpressionE
_ZN4wasm6WalkerINS_11TypeUpdaterENS_24UnifiedExpressionVisitorIS1_vEEE11doVisitCallEPS1_PPNS_10ExpressionE
_ZN4wasm6WalkerINS_11TypeUpdaterENS_24UnifiedExpressionVisitorIS1_vEEE13doVisitSwitchEPS1_PPNS_10ExpressionE
_ZN4wasm6WalkerINS_11TypeUpdaterENS_24UnifiedExpressionVisitorIS1_vEEE12doVisitBreakEPS1_PPNS_10ExpressionE
_ZN4wasm6WalkerINS_11TypeUpdaterENS_24UnifiedExpressionVisitorIS1_vEEE11doVisitLoopEPS1_PPNS_10ExpressionE
_ZN4wasm6WalkerINS_11TypeUpdaterENS_24UnifiedExpressionVisitorIS1_vEEE9doVisitIfEPS1_PPNS_10ExpressionE
_ZN4wasm6WalkerINS_11TypeUpdaterENS_24UnifiedExpressionVisitorIS1_vEEE12doVisitBlockEPS1_PPNS_10ExpressionE
_ZNSt6vectorIN4wasm6WalkerIZNS0_11TypeUpdater20noteRecursiveRemovalEPNS0_10ExpressionEE8RecurserNS0_24UnifiedExpressionVisitorIS5_vEEE4TaskESaIS9_EE17_M_realloc_insertIJRPFvPS5_PS4_ERSE_EEEvN9__gnu_cxx17__normal_iteratorIPS9_SB_EEDpOT_
_ZNSt6vectorIN4wasm6WalkerIZNS0_11TypeUpdater20noteRecursiveRemovalEPNS0_10ExpressionEE8RecurserNS0_24UnifiedExpressionVisitorIS5_vEEE4TaskESaIS9_EE12emplace_backIJRPFvPS5_PS4_ERSE_EEEvDpOT_
_ZN4wasm6WalkerIZNS_11TypeUpdater20noteRecursiveRemovalEPNS_10ExpressionEE8RecurserNS_24UnifiedExpressionVisitorIS4_vEEE8pushTaskEPFvPS4_PS3_ES9_
_ZN4wasm10PostWalkerIZNS_11TypeUpdater20noteRecursiveRemovalEPNS_10ExpressionEE8RecurserNS_24UnifiedExpressionVisitorIS4_vEEE4scanEPS4_PS3_
_ZN4wasm11TypeUpdater20noteRecursiveRemovalEPNS_10ExpressionE
_ZN4wasm11TypeUpdater15noteReplacementEPNS_10ExpressionES2_b
_ZN4wasm19DeadCodeElimination25blockifyReachableOperandsEOSt6vectorIPNS_10ExpressionESaIS3_EENS_8WasmTypeE
_ZNSt6vectorIN4wasm6WalkerINS0_11TypeUpdaterENS0_24UnifiedExpressionVisitorIS2_vEEE4TaskESaIS6_EE17_M_realloc_insertIJRPFvPS2_PPNS0_10ExpressionEERSD_EEEvN9__gnu_cxx17__normal_iteratorIPS6_S8_EEDpOT_
_ZNSt6vectorIN4wasm6WalkerINS0_11TypeUpdaterENS0_24UnifiedExpressionVisitorIS2_vEEE4TaskESaIS6_EE12emplace_backIJRPFvPS2_PPNS0_10ExpressionEERSD_EEEvDpOT_
_ZN4wasm6WalkerINS_11TypeUpdaterENS_24UnifiedExpressionVisitorIS1_vEEE8pushTaskEPFvPS1_PPNS_10ExpressionEES8_
_ZN4wasm10WalkerPassINS_10PostWalkerINS_19DeadCodeEliminationENS_7VisitorIS2_vEEEEE3runEPNS_10PassRunnerEPNS_6ModuleE
_ZN4wasm21ExpressionStackWalkerINS_11TypeUpdaterENS_24UnifiedExpressionVisitorIS1_vEEE4scanEPS1_PPNS_10ExpressionE
_ZN4wasm10PostWalkerINS_11TypeUpdaterENS_24UnifiedExpressionVisitorIS1_vEEE4scanEPS1_PPNS_10ExpressionE
_ZN4wasm21ExpressionStackWalkerINS_11TypeUpdaterENS_24UnifiedExpressionVisitorIS1_vEEE10doPreVisitEPS1_PPNS_10ExpressionE
_ZN4wasm10WalkerPassINS_10PostWalkerINS_19DeadCodeEliminationENS_7VisitorIS2_vEEEEE11runFunctionEPNS_10PassRunnerEPNS_6ModuleEPNS_8FunctionE
_ZTSN4wasm7VisitorINS_19DeadCodeEliminationEvEE
_ZTIN4wasm7VisitorINS_19DeadCodeEliminationEvEE
_ZTSN4wasm6WalkerINS_19DeadCodeEliminationENS_7VisitorIS1_vEEEE
_ZTIN4wasm6WalkerINS_19DeadCodeEliminationENS_7VisitorIS1_vEEEE
_ZTSN4wasm10PostWalkerINS_19DeadCodeEliminationENS_7VisitorIS1_vEEEE
_ZTIN4wasm10PostWalkerINS_19DeadCodeEliminationENS_7VisitorIS1_vEEEE
_ZTSN4wasm10WalkerPassINS_10PostWalkerINS_19DeadCodeEliminationENS_7VisitorIS2_vEEEEEE
_ZTIN4wasm10WalkerPassINS_10PostWalkerINS_19DeadCodeEliminationENS_7VisitorIS2_vEEEEEE
_ZTSN4wasm19DeadCodeEliminationE
_ZTIN4wasm19DeadCodeEliminationE
_ZN4wasm14FunctionHasher18isFunctionParallelEv
_ZN4wasm16FunctionReplacer18isFunctionParallelEv
_ZN4wasm14FunctionHasher6createEv
_ZTVN4wasm14FunctionHasherE
_ZN4wasm16FunctionReplacer6createEv
_ZTVN4wasm16FunctionReplacerE
_ZN4wasm10WalkerPassINS_10PostWalkerINS_14FunctionHasherENS_7VisitorIS2_vEEEEED2Ev
_ZTVN4wasm10WalkerPassINS_10PostWalkerINS_14FunctionHasherENS_7VisitorIS2_vEEEEEE
_ZN4wasm10WalkerPassINS_10PostWalkerINS_14FunctionHasherENS_7VisitorIS2_vEEEEED1Ev
_ZN4wasm10WalkerPassINS_10PostWalkerINS_16FunctionReplacerENS_7VisitorIS2_vEEEEED2Ev
_ZTVN4wasm10WalkerPassINS_10PostWalkerINS_16FunctionReplacerENS_7VisitorIS2_vEEEEEE
_ZN4wasm10WalkerPassINS_10PostWalkerINS_16FunctionReplacerENS_7VisitorIS2_vEEEEED1Ev
_ZN4wasm6WalkerINS_16FunctionReplacerENS_7VisitorIS1_vEEE12doVisitBlockEPS1_PPNS_10ExpressionE
_ZN4wasm6WalkerINS_16FunctionReplacerENS_7VisitorIS1_vEEE9doVisitIfEPS1_PPNS_10ExpressionE
_ZN4wasm6WalkerINS_16FunctionReplacerENS_7VisitorIS1_vEEE11doVisitLoopEPS1_PPNS_10ExpressionE
_ZN4wasm6WalkerINS_16FunctionReplacerENS_7VisitorIS1_vEEE12doVisitBreakEPS1_PPNS_10ExpressionE
_ZN4wasm6WalkerINS_16FunctionReplacerENS_7VisitorIS1_vEEE13doVisitSwitchEPS1_PPNS_10ExpressionE
_ZN4wasm6WalkerINS_16FunctionReplacerENS_7VisitorIS1_vEEE17doVisitCallImportEPS1_PPNS_10ExpressionE
_ZN4wasm6WalkerINS_16FunctionReplacerENS_7VisitorIS1_vEEE19doVisitCallIndirectEPS1_PPNS_10ExpressionE
_ZN4wasm6WalkerINS_16FunctionReplacerENS_7VisitorIS1_vEEE15doVisitGetLocalEPS1_PPNS_10ExpressionE
_ZN4wasm6WalkerINS_16FunctionReplacerENS_7VisitorIS1_vEEE15doVisitSetLocalEPS1_PPNS_10ExpressionE
_ZN4wasm6WalkerINS_16FunctionReplacerENS_7VisitorIS1_vEEE16doVisitGetGlobalEPS1_PPNS_10ExpressionE
_ZN4wasm6WalkerINS_16FunctionReplacerENS_7VisitorIS1_vEEE16doVisitSetGlobalEPS1_PPNS_10ExpressionE
_ZN4wasm6WalkerINS_16FunctionReplacerENS_7VisitorIS1_vEEE11doVisitLoadEPS1_PPNS_10ExpressionE
_ZN4wasm6WalkerINS_16FunctionReplacerENS_7VisitorIS1_vEEE12doVisitStoreEPS1_PPNS_10ExpressionE
_ZN4wasm6WalkerINS_16FunctionReplacerENS_7VisitorIS1_vEEE16doVisitAtomicRMWEPS1_PPNS_10ExpressionE
_ZN4wasm6WalkerINS_16FunctionReplacerENS_7VisitorIS1_vEEE20doVisitAtomicCmpxchgEPS1_PPNS_10ExpressionE
_ZN4wasm6WalkerINS_16FunctionReplacerENS_7VisitorIS1_vEEE17doVisitAtomicWaitEPS1_PPNS_10ExpressionE
_ZN4wasm6WalkerINS_16FunctionReplacerENS_7VisitorIS1_vEEE17doVisitAtomicWakeEPS1_PPNS_10ExpressionE
_ZN4wasm6WalkerINS_16FunctionReplacerENS_7VisitorIS1_vEEE12doVisitConstEPS1_PPNS_10ExpressionE
_ZN4wasm6WalkerINS_16FunctionReplacerENS_7VisitorIS1_vEEE12doVisitUnaryEPS1_PPNS_10ExpressionE
_ZN4wasm6WalkerINS_16FunctionReplacerENS_7VisitorIS1_vEEE13doVisitBinaryEPS1_PPNS_10ExpressionE
_ZN4wasm6WalkerINS_16FunctionReplacerENS_7VisitorIS1_vEEE13doVisitSelectEPS1_PPNS_10ExpressionE
_ZN4wasm6WalkerINS_16FunctionReplacerENS_7VisitorIS1_vEEE11doVisitDropEPS1_PPNS_10ExpressionE
_ZN4wasm6WalkerINS_16FunctionReplacerENS_7VisitorIS1_vEEE13doVisitReturnEPS1_PPNS_10ExpressionE
_ZN4wasm6WalkerINS_16FunctionReplacerENS_7VisitorIS1_vEEE11doVisitHostEPS1_PPNS_10ExpressionE
_ZN4wasm6WalkerINS_16FunctionReplacerENS_7VisitorIS1_vEEE10doVisitNopEPS1_PPNS_10ExpressionE
_ZN4wasm6WalkerINS_16FunctionReplacerENS_7VisitorIS1_vEEE18doVisitUnreachableEPS1_PPNS_10ExpressionE
_ZN4wasm6WalkerINS_14FunctionHasherENS_7VisitorIS1_vEEE12doVisitBlockEPS1_PPNS_10ExpressionE
_ZN4wasm6WalkerINS_14FunctionHasherENS_7VisitorIS1_vEEE9doVisitIfEPS1_PPNS_10ExpressionE
_ZN4wasm6WalkerINS_14FunctionHasherENS_7VisitorIS1_vEEE11doVisitLoopEPS1_PPNS_10ExpressionE
_ZN4wasm6WalkerINS_14FunctionHasherENS_7VisitorIS1_vEEE12doVisitBreakEPS1_PPNS_10ExpressionE
_ZN4wasm6WalkerINS_14FunctionHasherENS_7VisitorIS1_vEEE13doVisitSwitchEPS1_PPNS_10ExpressionE
_ZN4wasm6WalkerINS_14FunctionHasherENS_7VisitorIS1_vEEE11doVisitCallEPS1_PPNS_10ExpressionE
_ZN4wasm6WalkerINS_14FunctionHasherENS_7VisitorIS1_vEEE17doVisitCallImportEPS1_PPNS_10ExpressionE
_ZN4wasm6WalkerINS_14FunctionHasherENS_7VisitorIS1_vEEE19doVisitCallIndirectEPS1_PPNS_10ExpressionE
_ZN4wasm6WalkerINS_14FunctionHasherENS_7VisitorIS1_vEEE15doVisitGetLocalEPS1_PPNS_10ExpressionE
_ZN4wasm6WalkerINS_14FunctionHasherENS_7VisitorIS1_vEEE15doVisitSetLocalEPS1_PPNS_10ExpressionE
_ZN4wasm6WalkerINS_14FunctionHasherENS_7VisitorIS1_vEEE16doVisitGetGlobalEPS1_PPNS_10ExpressionE
_ZN4wasm6WalkerINS_14FunctionHasherENS_7VisitorIS1_vEEE16doVisitSetGlobalEPS1_PPNS_10ExpressionE
_ZN4wasm6WalkerINS_14FunctionHasherENS_7VisitorIS1_vEEE11doVisitLoadEPS1_PPNS_10ExpressionE
_ZN4wasm6WalkerINS_14FunctionHasherENS_7VisitorIS1_vEEE12doVisitStoreEPS1_PPNS_10ExpressionE
_ZN4wasm6WalkerINS_14FunctionHasherENS_7VisitorIS1_vEEE16doVisitAtomicRMWEPS1_PPNS_10ExpressionE
_ZN4wasm6WalkerINS_14FunctionHasherENS_7VisitorIS1_vEEE20doVisitAtomicCmpxchgEPS1_PPNS_10ExpressionE
_ZN4wasm6WalkerINS_14FunctionHasherENS_7VisitorIS1_vEEE17doVisitAtomicWaitEPS1_PPNS_10ExpressionE
_ZN4wasm6WalkerINS_14FunctionHasherENS_7VisitorIS1_vEEE17doVisitAtomicWakeEPS1_PPNS_10ExpressionE
_ZN4wasm6WalkerINS_14FunctionHasherENS_7VisitorIS1_vEEE12doVisitConstEPS1_PPNS_10ExpressionE
_ZN4wasm6WalkerINS_14FunctionHasherENS_7VisitorIS1_vEEE12doVisitUnaryEPS1_PPNS_10ExpressionE
_ZN4wasm6WalkerINS_14FunctionHasherENS_7VisitorIS1_vEEE13doVisitBinaryEPS1_PPNS_10ExpressionE
_ZN4wasm6WalkerINS_14FunctionHasherENS_7VisitorIS1_vEEE13doVisitSelectEPS1_PPNS_10ExpressionE
_ZN4wasm6WalkerINS_14FunctionHasherENS_7VisitorIS1_vEEE11doVisitDropEPS1_PPNS_10ExpressionE
_ZN4wasm6WalkerINS_14FunctionHasherENS_7VisitorIS1_vEEE13doVisitReturnEPS1_PPNS_10ExpressionE
_ZN4wasm6WalkerINS_14FunctionHasherENS_7VisitorIS1_vEEE11doVisitHostEPS1_PPNS_10ExpressionE
_ZN4wasm6WalkerINS_14FunctionHasherENS_7VisitorIS1_vEEE10doVisitNopEPS1_PPNS_10ExpressionE
_ZN4wasm6WalkerINS_14FunctionHasherENS_7VisitorIS1_vEEE18doVisitUnreachableEPS1_PPNS_10ExpressionE
_ZN4wasm16FunctionReplacerD2Ev
_ZN4wasm16FunctionReplacerD1Ev
_ZN4wasm14FunctionHasherD2Ev
_ZN4wasm14FunctionHasherD1Ev
_ZN4wasm14FunctionHasherD0Ev
_ZN4wasm16FunctionReplacerD0Ev
_ZN4wasm10WalkerPassINS_10PostWalkerINS_14FunctionHasherENS_7VisitorIS2_vEEEEED0Ev
_ZN4wasm10WalkerPassINS_10PostWalkerINS_16FunctionReplacerENS_7VisitorIS2_vEEEEED0Ev
_ZN4wasm10WalkerPassINS_10PostWalkerINS_14FunctionHasherENS_7VisitorIS2_vEEEEE11runFunctionEPNS_10PassRunnerEPNS_6ModuleEPNS_8FunctionE
_ZSt20__throw_out_of_rangePKc
_ZTVN4wasm28DuplicateFunctionEliminationE
_ZNSt10_HashtableIPN4wasm10ExpressionESt4pairIKS2_NS0_8Function13DebugLocationEESaIS7_ENSt8__detail10_Select1stESt8equal_toIS2_ESt4hashIS2_ENS9_18_Mod_range_hashingENS9_20_Default_ranged_hashENS9_20_Prime_rehash_policyENS9_17_Hashtable_traitsILb0ELb0ELb1EEEED2Ev
_ZNSt10_HashtableIPN4wasm10ExpressionESt4pairIKS2_NS0_8Function13DebugLocationEESaIS7_ENSt8__detail10_Select1stESt8equal_toIS2_ESt4hashIS2_ENS9_18_Mod_range_hashingENS9_20_Default_ranged_hashENS9_20_Prime_rehash_policyENS9_17_Hashtable_traitsILb0ELb0ELb1EEEED1Ev
_ZN4wasm6WalkerINS_16FunctionReplacerENS_7VisitorIS1_vEEE11doVisitCallEPS1_PPNS_10ExpressionE
_ZNSt8_Rb_treeIjSt4pairIKjSt6vectorIPN4wasm8FunctionESaIS5_EEESt10_Select1stIS8_ESt4lessIjESaIS8_EE8_M_eraseEPSt13_Rb_tree_nodeIS8_E
_ZNSt6vectorISt10unique_ptrIN4wasm8FunctionESt14default_deleteIS2_EESaIS5_EE8_M_eraseEN9__gnu_cxx17__normal_iteratorIPS5_S7_EESB_
_ZNSt8_Rb_treeIPN4wasm8FunctionESt4pairIKS2_jESt10_Select1stIS5_ESt4lessIS2_ESaIS5_EE8_M_eraseEPSt13_Rb_tree_nodeIS5_E
_ZN4wasm28DuplicateFunctionEliminationD2Ev
_ZN4wasm28DuplicateFunctionEliminationD1Ev
_ZN4wasm28DuplicateFunctionEliminationD0Ev
_ZNSt6vectorIPN4wasm8FunctionESaIS2_EE17_M_realloc_insertIJS2_EEEvN9__gnu_cxx17__normal_iteratorIPS2_S4_EEDpOT_
_ZNSt8_Rb_treeIPN4wasm8FunctionESt4pairIKS2_jESt10_Select1stIS5_ESt4lessIS2_ESaIS5_EE24_M_get_insert_unique_posERS4_
_ZNSt8_Rb_treeIPN4wasm8FunctionESt4pairIKS2_jESt10_Select1stIS5_ESt4lessIS2_ESaIS5_EE29_M_get_insert_hint_unique_posESt23_Rb_tree_const_iteratorIS5_ERS4_
_ZNSt8_Rb_treeIjSt4pairIKjSt6vectorIPN4wasm8FunctionESaIS5_EEESt10_Select1stIS8_ESt4lessIjESaIS8_EE24_M_get_insert_unique_posERS1_
_ZNSt8_Rb_treeIjSt4pairIKjSt6vectorIPN4wasm8FunctionESaIS5_EEESt10_Select1stIS8_ESt4lessIjESaIS8_EE29_M_get_insert_hint_unique_posESt23_Rb_tree_const_iteratorIS8_ERS1_
_ZSt9__find_ifIN9__gnu_cxx17__normal_iteratorIPSt10unique_ptrIN4wasm8FunctionESt14default_deleteIS4_EESt6vectorIS7_SaIS7_EEEENS0_5__ops10_Iter_predIZNS3_28DuplicateFunctionElimination3runEPNS3_10PassRunnerEPNS3_6ModuleEEUlRKS7_E_EEET_SO_SO_T0_St26random_access_iterator_tag
_ZSt11__remove_ifIN9__gnu_cxx17__normal_iteratorIPSt10unique_ptrIN4wasm8FunctionESt14default_deleteIS4_EESt6vectorIS7_SaIS7_EEEENS0_5__ops10_Iter_predIZNS3_28DuplicateFunctionElimination3runEPNS3_10PassRunnerEPNS3_6ModuleEEUlRKS7_E_EEET_SO_SO_T0_
_ZN4wasm28DuplicateFunctionElimination3runEPNS_10PassRunnerEPNS_6ModuleE
_ZN4wasm6Module10updateMapsEv
_ZNSt6vectorIN4wasm6WalkerINS0_16FunctionReplacerENS0_7VisitorIS2_vEEE4TaskESaIS6_EE17_M_realloc_insertIJRPFvPS2_PPNS0_10ExpressionEERSD_EEEvN9__gnu_cxx17__normal_iteratorIPS6_S8_EEDpOT_
_ZNSt6vectorIN4wasm6WalkerINS0_16FunctionReplacerENS0_7VisitorIS2_vEEE4TaskESaIS6_EE12emplace_backIJRPFvPS2_PPNS0_10ExpressionEERSD_EEEvDpOT_
_ZN4wasm10WalkerPassINS_10PostWalkerINS_16FunctionReplacerENS_7VisitorIS2_vEEEEE11runFunctionEPNS_10PassRunnerEPNS_6ModuleEPNS_8FunctionE
_ZN4wasm10PostWalkerINS_16FunctionReplacerENS_7VisitorIS1_vEEE4scanEPS1_PPNS_10ExpressionE
_ZN4wasm10WalkerPassINS_10PostWalkerINS_16FunctionReplacerENS_7VisitorIS2_vEEEEE3runEPNS_10PassRunnerEPNS_6ModuleE
_ZNSt6vectorIN4wasm6WalkerINS0_14FunctionHasherENS0_7VisitorIS2_vEEE4TaskESaIS6_EE17_M_realloc_insertIJRPFvPS2_PPNS0_10ExpressionEERSD_EEEvN9__gnu_cxx17__normal_iteratorIPS6_S8_EEDpOT_
_ZNSt6vectorIN4wasm6WalkerINS0_14FunctionHasherENS0_7VisitorIS2_vEEE4TaskESaIS6_EE12emplace_backIJRPFvPS2_PPNS0_10ExpressionEERSD_EEEvDpOT_
_ZN4wasm10WalkerPassINS_10PostWalkerINS_14FunctionHasherENS_7VisitorIS2_vEEEEE3runEPNS_10PassRunnerEPNS_6ModuleE
_ZN4wasm10PostWalkerINS_14FunctionHasherENS_7VisitorIS1_vEEE4scanEPS1_PPNS_10ExpressionE
_ZTSN4wasm7VisitorINS_14FunctionHasherEvEE
_ZTIN4wasm7VisitorINS_14FunctionHasherEvEE
_ZTSN4wasm7VisitorINS_16FunctionReplacerEvEE
_ZTIN4wasm7VisitorINS_16FunctionReplacerEvEE
_ZTSN4wasm6WalkerINS_14FunctionHasherENS_7VisitorIS1_vEEEE
_ZTIN4wasm6WalkerINS_14FunctionHasherENS_7VisitorIS1_vEEEE
_ZTSN4wasm6WalkerINS_16FunctionReplacerENS_7VisitorIS1_vEEEE
_ZTIN4wasm6WalkerINS_16FunctionReplacerENS_7VisitorIS1_vEEEE
_ZTSN4wasm10PostWalkerINS_14FunctionHasherENS_7VisitorIS1_vEEEE
_ZTIN4wasm10PostWalkerINS_14FunctionHasherENS_7VisitorIS1_vEEEE
_ZTSN4wasm10PostWalkerINS_16FunctionReplacerENS_7VisitorIS1_vEEEE
_ZTIN4wasm10PostWalkerINS_16FunctionReplacerENS_7VisitorIS1_vEEEE
_ZTSN4wasm10WalkerPassINS_10PostWalkerINS_14FunctionHasherENS_7VisitorIS2_vEEEEEE
_ZTIN4wasm10WalkerPassINS_10PostWalkerINS_14FunctionHasherENS_7VisitorIS2_vEEEEEE
_ZTSN4wasm14FunctionHasherE
_ZTIN4wasm14FunctionHasherE
_ZTSN4wasm10WalkerPassINS_10PostWalkerINS_16FunctionReplacerENS_7VisitorIS2_vEEEEEE
_ZTIN4wasm10WalkerPassINS_10PostWalkerINS_16FunctionReplacerENS_7VisitorIS2_vEEEEEE
_ZTSN4wasm16FunctionReplacerE
_ZTIN4wasm16FunctionReplacerE
_ZTSN4wasm28DuplicateFunctionEliminationE
_ZTIN4wasm28DuplicateFunctionEliminationE
_ZN4wasm15ExtractFunctionD2Ev
_ZN4wasm15ExtractFunctionD1Ev
_ZN4wasm15ExtractFunctionD0Ev
_ZTVN4wasm15ExtractFunctionE
_ZN4wasm15ExtractFunction3runEPNS_10PassRunnerEPNS_6ModuleE
_ZTSN4wasm15ExtractFunctionE
_ZTIN4wasm15ExtractFunctionE
_ZN4wasm7Flatten18isFunctionParallelEv
_ZN4wasm7Flatten6createEv
_ZTVN4wasm7FlattenE
_ZN4wasm10WalkerPassINS_21ExpressionStackWalkerINS_7FlattenENS_24UnifiedExpressionVisitorIS2_vEEEEED2Ev
_ZTVN4wasm10WalkerPassINS_21ExpressionStackWalkerINS_7FlattenENS_24UnifiedExpressionVisitorIS2_vEEEEEE
_ZN4wasm10WalkerPassINS_21ExpressionStackWalkerINS_7FlattenENS_24UnifiedExpressionVisitorIS2_vEEEEED1Ev
_ZN4wasm10WalkerPassINS_21ExpressionStackWalkerINS_7FlattenENS_24UnifiedExpressionVisitorIS2_vEEEEED0Ev
_ZN4wasm7FlattenD2Ev
_ZN4wasm7FlattenD1Ev
_ZN4wasm7FlattenD0Ev
_ZN4wasm21ExpressionStackWalkerINS_7FlattenENS_24UnifiedExpressionVisitorIS1_vEEE11doPostVisitEPS1_PPNS_10ExpressionE
_ZN4wasm21ExpressionStackWalkerINS_7FlattenENS_24UnifiedExpressionVisitorIS1_vEEE10doPreVisitEPS1_PPNS_10ExpressionE
_ZN4wasm7Builder6addVarEPNS_8FunctionENS_4NameENS_8WasmTypeE
_ZNKSt10_HashtableIN4wasm4NameESt4pairIKS1_jESaIS4_ENSt8__detail10_Select1stESt8equal_toIS1_ESt4hashIS1_ENS6_18_Mod_range_hashingENS6_20_Default_ranged_hashENS6_20_Prime_rehash_policyENS6_17_Hashtable_traitsILb1ELb0ELb1EEEE19_M_find_before_nodeEmRS3_m
_ZNSt10_HashtableIN4wasm4NameESt4pairIKS1_jESaIS4_ENSt8__detail10_Select1stESt8equal_toIS1_ESt4hashIS1_ENS6_18_Mod_range_hashingENS6_20_Default_ranged_hashENS6_20_Prime_rehash_policyENS6_17_Hashtable_traitsILb1ELb0ELb1EEEE4findERS3_
_ZNSt10_HashtableIPN4wasm10ExpressionESt4pairIKS2_St6vectorIS2_SaIS2_EEESaIS8_ENSt8__detail10_Select1stESt8equal_toIS2_ESt4hashIS2_ENSA_18_Mod_range_hashingENSA_20_Default_ranged_hashENSA_20_Prime_rehash_policyENSA_17_Hashtable_traitsILb0ELb0ELb1EEEE9_M_rehashEmRKm
_ZNSt10_HashtableIPN4wasm10ExpressionESt4pairIKS2_St6vectorIS2_SaIS2_EEESaIS8_ENSt8__detail10_Select1stESt8equal_toIS2_ESt4hashIS2_ENSA_18_Mod_range_hashingENSA_20_Default_ranged_hashENSA_20_Prime_rehash_policyENSA_17_Hashtable_traitsILb0ELb0ELb1EEEE21_M_insert_unique_nodeEmmPNSA_10_Hash_nodeIS8_Lb0EEEm
_ZNSt10_HashtableIN4wasm4NameESt4pairIKS1_jESaIS4_ENSt8__detail10_Select1stESt8equal_toIS1_ESt4hashIS1_ENS6_18_Mod_range_hashingENS6_20_Default_ranged_hashENS6_20_Prime_rehash_policyENS6_17_Hashtable_traitsILb1ELb0ELb1EEEE9_M_rehashEmRKm
_ZNSt8__detail9_Map_baseIN4wasm4NameESt4pairIKS2_jESaIS5_ENS_10_Select1stESt8equal_toIS2_ESt4hashIS2_ENS_18_Mod_range_hashingENS_20_Default_ranged_hashENS_20_Prime_rehash_policyENS_17_Hashtable_traitsILb1ELb0ELb1EEELb1EEixERS4_
_ZN4wasm7Flatten15visitExpressionEPNS_10ExpressionE
_ZN4wasm6WalkerINS_7FlattenENS_24UnifiedExpressionVisitorIS1_vEEE12doVisitBlockEPS1_PPNS_10ExpressionE
_ZN4wasm6WalkerINS_7FlattenENS_24UnifiedExpressionVisitorIS1_vEEE9doVisitIfEPS1_PPNS_10ExpressionE
_ZN4wasm6WalkerINS_7FlattenENS_24UnifiedExpressionVisitorIS1_vEEE11doVisitLoopEPS1_PPNS_10ExpressionE
_ZN4wasm6WalkerINS_7FlattenENS_24UnifiedExpressionVisitorIS1_vEEE12doVisitBreakEPS1_PPNS_10ExpressionE
_ZN4wasm6WalkerINS_7FlattenENS_24UnifiedExpressionVisitorIS1_vEEE13doVisitSwitchEPS1_PPNS_10ExpressionE
_ZN4wasm6WalkerINS_7FlattenENS_24UnifiedExpressionVisitorIS1_vEEE11doVisitCallEPS1_PPNS_10ExpressionE
_ZN4wasm6WalkerINS_7FlattenENS_24UnifiedExpressionVisitorIS1_vEEE17doVisitCallImportEPS1_PPNS_10ExpressionE
_ZN4wasm6WalkerINS_7FlattenENS_24UnifiedExpressionVisitorIS1_vEEE19doVisitCallIndirectEPS1_PPNS_10ExpressionE
_ZN4wasm6WalkerINS_7FlattenENS_24UnifiedExpressionVisitorIS1_vEEE15doVisitGetLocalEPS1_PPNS_10ExpressionE
_ZN4wasm6WalkerINS_7FlattenENS_24UnifiedExpressionVisitorIS1_vEEE15doVisitSetLocalEPS1_PPNS_10ExpressionE
_ZN4wasm6WalkerINS_7FlattenENS_24UnifiedExpressionVisitorIS1_vEEE16doVisitGetGlobalEPS1_PPNS_10ExpressionE
_ZN4wasm6WalkerINS_7FlattenENS_24UnifiedExpressionVisitorIS1_vEEE16doVisitSetGlobalEPS1_PPNS_10ExpressionE
_ZN4wasm6WalkerINS_7FlattenENS_24UnifiedExpressionVisitorIS1_vEEE11doVisitLoadEPS1_PPNS_10ExpressionE
_ZN4wasm6WalkerINS_7FlattenENS_24UnifiedExpressionVisitorIS1_vEEE12doVisitStoreEPS1_PPNS_10ExpressionE
_ZN4wasm6WalkerINS_7FlattenENS_24UnifiedExpressionVisitorIS1_vEEE16doVisitAtomicRMWEPS1_PPNS_10ExpressionE
_ZN4wasm6WalkerINS_7FlattenENS_24UnifiedExpressionVisitorIS1_vEEE20doVisitAtomicCmpxchgEPS1_PPNS_10ExpressionE
_ZN4wasm6WalkerINS_7FlattenENS_24UnifiedExpressionVisitorIS1_vEEE17doVisitAtomicWaitEPS1_PPNS_10ExpressionE
_ZN4wasm6WalkerINS_7FlattenENS_24UnifiedExpressionVisitorIS1_vEEE17doVisitAtomicWakeEPS1_PPNS_10ExpressionE
_ZN4wasm6WalkerINS_7FlattenENS_24UnifiedExpressionVisitorIS1_vEEE12doVisitConstEPS1_PPNS_10ExpressionE
_ZN4wasm6WalkerINS_7FlattenENS_24UnifiedExpressionVisitorIS1_vEEE12doVisitUnaryEPS1_PPNS_10ExpressionE
_ZN4wasm6WalkerINS_7FlattenENS_24UnifiedExpressionVisitorIS1_vEEE13doVisitBinaryEPS1_PPNS_10ExpressionE
_ZN4wasm6WalkerINS_7FlattenENS_24UnifiedExpressionVisitorIS1_vEEE13doVisitSelectEPS1_PPNS_10ExpressionE
_ZN4wasm6WalkerINS_7FlattenENS_24UnifiedExpressionVisitorIS1_vEEE11doVisitDropEPS1_PPNS_10ExpressionE
_ZN4wasm6WalkerINS_7FlattenENS_24UnifiedExpressionVisitorIS1_vEEE13doVisitReturnEPS1_PPNS_10ExpressionE
_ZN4wasm6WalkerINS_7FlattenENS_24UnifiedExpressionVisitorIS1_vEEE11doVisitHostEPS1_PPNS_10ExpressionE
_ZN4wasm6WalkerINS_7FlattenENS_24UnifiedExpressionVisitorIS1_vEEE10doVisitNopEPS1_PPNS_10ExpressionE
_ZN4wasm6WalkerINS_7FlattenENS_24UnifiedExpressionVisitorIS1_vEEE18doVisitUnreachableEPS1_PPNS_10ExpressionE
_ZNSt6vectorIN4wasm6WalkerINS0_7FlattenENS0_24UnifiedExpressionVisitorIS2_vEEE4TaskESaIS6_EE17_M_realloc_insertIJRPFvPS2_PPNS0_10ExpressionEERSD_EEEvN9__gnu_cxx17__normal_iteratorIPS6_S8_EEDpOT_
_ZNSt6vectorIN4wasm6WalkerINS0_7FlattenENS0_24UnifiedExpressionVisitorIS2_vEEE4TaskESaIS6_EE12emplace_backIJRPFvPS2_PPNS0_10ExpressionEERSD_EEEvDpOT_
_ZN4wasm10WalkerPassINS_21ExpressionStackWalkerINS_7FlattenENS_24UnifiedExpressionVisitorIS2_vEEEEE11runFunctionEPNS_10PassRunnerEPNS_6ModuleEPNS_8FunctionE
_ZN4wasm21ExpressionStackWalkerINS_7FlattenENS_24UnifiedExpressionVisitorIS1_vEEE4scanEPS1_PPNS_10ExpressionE
_ZN4wasm10WalkerPassINS_21ExpressionStackWalkerINS_7FlattenENS_24UnifiedExpressionVisitorIS2_vEEEEE3runEPNS_10PassRunnerEPNS_6ModuleE
_ZN4wasm10PostWalkerINS_7FlattenENS_24UnifiedExpressionVisitorIS1_vEEE4scanEPS1_PPNS_10ExpressionE
_ZTSN4wasm7VisitorINS_7FlattenEvEE
_ZTIN4wasm7VisitorINS_7FlattenEvEE
_ZTSN4wasm24UnifiedExpressionVisitorINS_7FlattenEvEE
_ZTIN4wasm24UnifiedExpressionVisitorINS_7FlattenEvEE
_ZTSN4wasm6WalkerINS_7FlattenENS_24UnifiedExpressionVisitorIS1_vEEEE
_ZTIN4wasm6WalkerINS_7FlattenENS_24UnifiedExpressionVisitorIS1_vEEEE
_ZTSN4wasm10PostWalkerINS_7FlattenENS_24UnifiedExpressionVisitorIS1_vEEEE
_ZTIN4wasm10PostWalkerINS_7FlattenENS_24UnifiedExpressionVisitorIS1_vEEEE
_ZTSN4wasm21ExpressionStackWalkerINS_7FlattenENS_24UnifiedExpressionVisitorIS1_vEEEE
_ZTIN4wasm21ExpressionStackWalkerINS_7FlattenENS_24UnifiedExpressionVisitorIS1_vEEEE
_ZTSN4wasm10WalkerPassINS_21ExpressionStackWalkerINS_7FlattenENS_24UnifiedExpressionVisitorIS2_vEEEEEE
_ZTIN4wasm10WalkerPassINS_21ExpressionStackWalkerINS_7FlattenENS_24UnifiedExpressionVisitorIS2_vEEEEEE
_ZTSN4wasm7FlattenE
_ZTIN4wasm7FlattenE
_ZN4wasm19FunctionInfoScanner18isFunctionParallelEv
_ZN4wasm7Planner18isFunctionParallelEv
_ZNSt17_Function_handlerIFPN4wasm10ExpressionES2_EZNS0_21ExpressionManipulator4copyES2_RNS0_6ModuleEEUlS2_E_E9_M_invokeERKSt9_Any_dataOS2_
_ZNSt14_Function_base13_Base_managerIZN4wasm21ExpressionManipulator4copyEPNS1_10ExpressionERNS1_6ModuleEEUlS4_E_E10_M_managerERSt9_Any_dataRKS9_St18_Manager_operation
_ZTIZN4wasm21ExpressionManipulator4copyEPNS_10ExpressionERNS_6ModuleEEUlS2_E_
_ZN4wasm19FunctionInfoScanner6createEv
_ZTVN4wasm19FunctionInfoScannerE
_ZN4wasm7Planner6createEv
_ZTVN4wasm7PlannerE
_ZN4wasm10WalkerPassINS_10PostWalkerINS_19FunctionInfoScannerENS_7VisitorIS2_vEEEEED2Ev
_ZTVN4wasm10WalkerPassINS_10PostWalkerINS_19FunctionInfoScannerENS_7VisitorIS2_vEEEEEE
_ZN4wasm10WalkerPassINS_10PostWalkerINS_19FunctionInfoScannerENS_7VisitorIS2_vEEEEED1Ev
_ZN4wasm10WalkerPassINS_10PostWalkerINS_7PlannerENS_7VisitorIS2_vEEEEED2Ev
_ZTVN4wasm10WalkerPassINS_10PostWalkerINS_7PlannerENS_7VisitorIS2_vEEEEEE
_ZN4wasm10WalkerPassINS_10PostWalkerINS_7PlannerENS_7VisitorIS2_vEEEEED1Ev
_ZN4wasm6WalkerINS_7PlannerENS_7VisitorIS1_vEEE12doVisitBlockEPS1_PPNS_10ExpressionE
_ZN4wasm6WalkerINS_7PlannerENS_7VisitorIS1_vEEE9doVisitIfEPS1_PPNS_10ExpressionE
_ZN4wasm6WalkerINS_7PlannerENS_7VisitorIS1_vEEE11doVisitLoopEPS1_PPNS_10ExpressionE
_ZN4wasm6WalkerINS_7PlannerENS_7VisitorIS1_vEEE12doVisitBreakEPS1_PPNS_10ExpressionE
_ZN4wasm6WalkerINS_7PlannerENS_7VisitorIS1_vEEE13doVisitSwitchEPS1_PPNS_10ExpressionE
_ZN4wasm6WalkerINS_7PlannerENS_7VisitorIS1_vEEE17doVisitCallImportEPS1_PPNS_10ExpressionE
_ZN4wasm6WalkerINS_7PlannerENS_7VisitorIS1_vEEE19doVisitCallIndirectEPS1_PPNS_10ExpressionE
_ZN4wasm6WalkerINS_7PlannerENS_7VisitorIS1_vEEE15doVisitGetLocalEPS1_PPNS_10ExpressionE
_ZN4wasm6WalkerINS_7PlannerENS_7VisitorIS1_vEEE15doVisitSetLocalEPS1_PPNS_10ExpressionE
_ZN4wasm6WalkerINS_7PlannerENS_7VisitorIS1_vEEE16doVisitGetGlobalEPS1_PPNS_10ExpressionE
_ZN4wasm6WalkerINS_7PlannerENS_7VisitorIS1_vEEE16doVisitSetGlobalEPS1_PPNS_10ExpressionE
_ZN4wasm6WalkerINS_7PlannerENS_7VisitorIS1_vEEE11doVisitLoadEPS1_PPNS_10ExpressionE
_ZN4wasm6WalkerINS_7PlannerENS_7VisitorIS1_vEEE12doVisitStoreEPS1_PPNS_10ExpressionE
_ZN4wasm6WalkerINS_7PlannerENS_7VisitorIS1_vEEE16doVisitAtomicRMWEPS1_PPNS_10ExpressionE
_ZN4wasm6WalkerINS_7PlannerENS_7VisitorIS1_vEEE20doVisitAtomicCmpxchgEPS1_PPNS_10ExpressionE
_ZN4wasm6WalkerINS_7PlannerENS_7VisitorIS1_vEEE17doVisitAtomicWaitEPS1_PPNS_10ExpressionE
_ZN4wasm6WalkerINS_7PlannerENS_7VisitorIS1_vEEE17doVisitAtomicWakeEPS1_PPNS_10ExpressionE
_ZN4wasm6WalkerINS_7PlannerENS_7VisitorIS1_vEEE12doVisitConstEPS1_PPNS_10ExpressionE
_ZN4wasm6WalkerINS_7PlannerENS_7VisitorIS1_vEEE12doVisitUnaryEPS1_PPNS_10ExpressionE
_ZN4wasm6WalkerINS_7PlannerENS_7VisitorIS1_vEEE13doVisitBinaryEPS1_PPNS_10ExpressionE
_ZN4wasm6WalkerINS_7PlannerENS_7VisitorIS1_vEEE13doVisitSelectEPS1_PPNS_10ExpressionE
_ZN4wasm6WalkerINS_7PlannerENS_7VisitorIS1_vEEE11doVisitDropEPS1_PPNS_10ExpressionE
_ZN4wasm6WalkerINS_7PlannerENS_7VisitorIS1_vEEE13doVisitReturnEPS1_PPNS_10ExpressionE
_ZN4wasm6WalkerINS_7PlannerENS_7VisitorIS1_vEEE11doVisitHostEPS1_PPNS_10ExpressionE
_ZN4wasm6WalkerINS_7PlannerENS_7VisitorIS1_vEEE10doVisitNopEPS1_PPNS_10ExpressionE
_ZN4wasm6WalkerINS_7PlannerENS_7VisitorIS1_vEEE18doVisitUnreachableEPS1_PPNS_10ExpressionE
_ZN4wasm6WalkerINS_19FunctionInfoScannerENS_7VisitorIS1_vEEE12doVisitBlockEPS1_PPNS_10ExpressionE
_ZN4wasm6WalkerINS_19FunctionInfoScannerENS_7VisitorIS1_vEEE9doVisitIfEPS1_PPNS_10ExpressionE
_ZN4wasm6WalkerINS_19FunctionInfoScannerENS_7VisitorIS1_vEEE12doVisitBreakEPS1_PPNS_10ExpressionE
_ZN4wasm6WalkerINS_19FunctionInfoScannerENS_7VisitorIS1_vEEE13doVisitSwitchEPS1_PPNS_10ExpressionE
_ZN4wasm6WalkerINS_19FunctionInfoScannerENS_7VisitorIS1_vEEE17doVisitCallImportEPS1_PPNS_10ExpressionE
_ZN4wasm6WalkerINS_19FunctionInfoScannerENS_7VisitorIS1_vEEE19doVisitCallIndirectEPS1_PPNS_10ExpressionE
_ZN4wasm6WalkerINS_19FunctionInfoScannerENS_7VisitorIS1_vEEE15doVisitGetLocalEPS1_PPNS_10ExpressionE
_ZN4wasm6WalkerINS_19FunctionInfoScannerENS_7VisitorIS1_vEEE15doVisitSetLocalEPS1_PPNS_10ExpressionE
_ZN4wasm6WalkerINS_19FunctionInfoScannerENS_7VisitorIS1_vEEE16doVisitGetGlobalEPS1_PPNS_10ExpressionE
_ZN4wasm6WalkerINS_19FunctionInfoScannerENS_7VisitorIS1_vEEE16doVisitSetGlobalEPS1_PPNS_10ExpressionE
_ZN4wasm6WalkerINS_19FunctionInfoScannerENS_7VisitorIS1_vEEE11doVisitLoadEPS1_PPNS_10ExpressionE
_ZN4wasm6WalkerINS_19FunctionInfoScannerENS_7VisitorIS1_vEEE12doVisitStoreEPS1_PPNS_10ExpressionE
_ZN4wasm6WalkerINS_19FunctionInfoScannerENS_7VisitorIS1_vEEE16doVisitAtomicRMWEPS1_PPNS_10ExpressionE
_ZN4wasm6WalkerINS_19FunctionInfoScannerENS_7VisitorIS1_vEEE20doVisitAtomicCmpxchgEPS1_PPNS_10ExpressionE
_ZN4wasm6WalkerINS_19FunctionInfoScannerENS_7VisitorIS1_vEEE17doVisitAtomicWaitEPS1_PPNS_10ExpressionE
_ZN4wasm6WalkerINS_19FunctionInfoScannerENS_7VisitorIS1_vEEE17doVisitAtomicWakeEPS1_PPNS_10ExpressionE
_ZN4wasm6WalkerINS_19FunctionInfoScannerENS_7VisitorIS1_vEEE12doVisitConstEPS1_PPNS_10ExpressionE
_ZN4wasm6WalkerINS_19FunctionInfoScannerENS_7VisitorIS1_vEEE12doVisitUnaryEPS1_PPNS_10ExpressionE
_ZN4wasm6WalkerINS_19FunctionInfoScannerENS_7VisitorIS1_vEEE13doVisitBinaryEPS1_PPNS_10ExpressionE
_ZN4wasm6WalkerINS_19FunctionInfoScannerENS_7VisitorIS1_vEEE13doVisitSelectEPS1_PPNS_10ExpressionE
_ZN4wasm6WalkerINS_19FunctionInfoScannerENS_7VisitorIS1_vEEE11doVisitDropEPS1_PPNS_10ExpressionE
_ZN4wasm6WalkerINS_19FunctionInfoScannerENS_7VisitorIS1_vEEE13doVisitReturnEPS1_PPNS_10ExpressionE
_ZN4wasm6WalkerINS_19FunctionInfoScannerENS_7VisitorIS1_vEEE11doVisitHostEPS1_PPNS_10ExpressionE
_ZN4wasm6WalkerINS_19FunctionInfoScannerENS_7VisitorIS1_vEEE10doVisitNopEPS1_PPNS_10ExpressionE
_ZN4wasm6WalkerINS_19FunctionInfoScannerENS_7VisitorIS1_vEEE18doVisitUnreachableEPS1_PPNS_10ExpressionE
_ZN4wasm19FunctionInfoScannerD2Ev
_ZN4wasm19FunctionInfoScannerD1Ev
_ZN4wasm7PlannerD2Ev
_ZN4wasm7PlannerD1Ev
_ZN4wasm19FunctionInfoScannerD0Ev
_ZN4wasm7PlannerD0Ev
_ZN4wasm10WalkerPassINS_10PostWalkerINS_19FunctionInfoScannerENS_7VisitorIS2_vEEEEED0Ev
_ZN4wasm10WalkerPassINS_10PostWalkerINS_7PlannerENS_7VisitorIS2_vEEEEED0Ev
_ZTVN4wasm8InliningE
_ZNSt7__cxx1112basic_stringIcSt11char_traitsIcESaIcEEC2EPKcRKS3_
_ZNSt7__cxx1112basic_stringIcSt11char_traitsIcESaIcEEC1EPKcRKS3_
_ZNSt10_HashtableIN4wasm4NameESt4pairIKS1_St6vectorINS0_14InliningActionESaIS5_EEESaIS8_ENSt8__detail10_Select1stESt8equal_toIS1_ESt4hashIS1_ENSA_18_Mod_range_hashingENSA_20_Default_ranged_hashENSA_20_Prime_rehash_policyENSA_17_Hashtable_traitsILb1ELb0ELb1EEEED2Ev
_ZNSt10_HashtableIN4wasm4NameESt4pairIKS1_St6vectorINS0_14InliningActionESaIS5_EEESaIS8_ENSt8__detail10_Select1stESt8equal_toIS1_ESt4hashIS1_ENSA_18_Mod_range_hashingENSA_20_Default_ranged_hashENSA_20_Prime_rehash_policyENSA_17_Hashtable_traitsILb1ELb0ELb1EEEED1Ev
_ZNSt10_HashtableIPN4wasm8FunctionES2_SaIS2_ENSt8__detail9_IdentityESt8equal_toIS2_ESt4hashIS2_ENS4_18_Mod_range_hashingENS4_20_Default_ranged_hashENS4_20_Prime_rehash_policyENS4_17_Hashtable_traitsILb0ELb1ELb1EEEED2Ev
_ZNSt10_HashtableIPN4wasm8FunctionES2_SaIS2_ENSt8__detail9_IdentityESt8equal_toIS2_ESt4hashIS2_ENS4_18_Mod_range_hashingENS4_20_Default_ranged_hashENS4_20_Prime_rehash_policyENS4_17_Hashtable_traitsILb0ELb1ELb1EEEED1Ev
_ZNKSt10_HashtableIN4wasm4NameES1_SaIS1_ENSt8__detail9_IdentityESt8equal_toIS1_ESt4hashIS1_ENS3_18_Mod_range_hashingENS3_20_Default_ranged_hashENS3_20_Prime_rehash_policyENS3_17_Hashtable_traitsILb1ELb1ELb1EEEE5countERKS1_
_ZNSt6vectorIN4wasm14InliningActionESaIS1_EE17_M_realloc_insertIJPPNS0_10ExpressionEPNS0_8FunctionEEEEvN9__gnu_cxx17__normal_iteratorIPS1_S3_EEDpOT_
_ZNSt8_Rb_treeIjSt4pairIKjjESt10_Select1stIS2_ESt4lessIjESaIS2_EE8_M_eraseEPSt13_Rb_tree_nodeIS2_E
_ZNSt10_HashtableIN4wasm4NameESt4pairIKS1_NS0_12FunctionInfoEESaIS5_ENSt8__detail10_Select1stESt8equal_toIS1_ESt4hashIS1_ENS7_18_Mod_range_hashingENS7_20_Default_ranged_hashENS7_20_Prime_rehash_policyENS7_17_Hashtable_traitsILb1ELb0ELb1EEEE5clearEv
_ZN4wasm8InliningD2Ev
_ZN4wasm8InliningD1Ev
_ZN4wasm8InliningD0Ev
_ZNKSt10_HashtableIN4wasm4NameESt4pairIKS1_jESaIS4_ENSt8__detail10_Select1stESt8equal_toIS1_ESt4hashIS1_ENS6_18_Mod_range_hashingENS6_20_Default_ranged_hashENS6_20_Prime_rehash_policyENS6_17_Hashtable_traitsILb1ELb0ELb1EEEE5countERS3_
_ZNSt8_Rb_treeIjSt4pairIKjjESt10_Select1stIS2_ESt4lessIjESaIS2_EE14_M_insert_nodeEPSt18_Rb_tree_node_baseSA_PSt13_Rb_tree_nodeIS2_E
_ZN4wasm8Inlining10doOptimizeERSt13unordered_setIPNS_8FunctionESt4hashIS3_ESt8equal_toIS3_ESaIS3_EEPNS_6ModuleEPNS_10PassRunnerE
_ZNSt10_HashtableIN4wasm4NameESt4pairIKS1_NS0_12FunctionInfoEESaIS5_ENSt8__detail10_Select1stESt8equal_toIS1_ESt4hashIS1_ENS7_18_Mod_range_hashingENS7_20_Default_ranged_hashENS7_20_Prime_rehash_policyENS7_17_Hashtable_traitsILb1ELb0ELb1EEEE9_M_rehashEmRKm
_ZNSt8__detail9_Map_baseIN4wasm4NameESt4pairIKS2_NS1_12FunctionInfoEESaIS6_ENS_10_Select1stESt8equal_toIS2_ESt4hashIS2_ENS_18_Mod_range_hashingENS_20_Default_ranged_hashENS_20_Prime_rehash_policyENS_17_Hashtable_traitsILb1ELb0ELb1EEELb1EEixERS4_
_ZN4wasm6WalkerINS_19FunctionInfoScannerENS_7VisitorIS1_vEEE11doVisitCallEPS1_PPNS_10ExpressionE
_ZN4wasm6WalkerINS_19FunctionInfoScannerENS_7VisitorIS1_vEEE11doVisitLoopEPS1_PPNS_10ExpressionE
_ZNSt10_HashtableIN4wasm4NameESt4pairIKS1_St6vectorINS0_14InliningActionESaIS5_EEESaIS8_ENSt8__detail10_Select1stESt8equal_toIS1_ESt4hashIS1_ENSA_18_Mod_range_hashingENSA_20_Default_ranged_hashENSA_20_Prime_rehash_policyENSA_17_Hashtable_traitsILb1ELb0ELb1EEEE9_M_rehashEmRKm
_ZNSt8__detail9_Map_baseIN4wasm4NameESt4pairIKS2_St6vectorINS1_14InliningActionESaIS6_EEESaIS9_ENS_10_Select1stESt8equal_toIS2_ESt4hashIS2_ENS_18_Mod_range_hashingENS_20_Default_ranged_hashENS_20_Prime_rehash_policyENS_17_Hashtable_traitsILb1ELb0ELb1EEELb1EEixERS4_
_ZN4wasm6WalkerINS_7PlannerENS_7VisitorIS1_vEEE11doVisitCallEPS1_PPNS_10ExpressionE
_ZNSt6vectorIN4wasm6WalkerINS0_7PlannerENS0_7VisitorIS2_vEEE4TaskESaIS6_EE17_M_realloc_insertIJRPFvPS2_PPNS0_10ExpressionEERSD_EEEvN9__gnu_cxx17__normal_iteratorIPS6_S8_EEDpOT_
_ZNSt6vectorIN4wasm6WalkerINS0_7PlannerENS0_7VisitorIS2_vEEE4TaskESaIS6_EE12emplace_backIJRPFvPS2_PPNS0_10ExpressionEERSD_EEEvDpOT_
_ZN4wasm6WalkerINS_7PlannerENS_7VisitorIS1_vEEE8pushTaskEPFvPS1_PPNS_10ExpressionEES8_
_ZN4wasm10WalkerPassINS_10PostWalkerINS_7PlannerENS_7VisitorIS2_vEEEEE11runFunctionEPNS_10PassRunnerEPNS_6ModuleEPNS_8FunctionE
_ZN4wasm10PostWalkerINS_7PlannerENS_7VisitorIS1_vEEE4scanEPS1_PPNS_10ExpressionE
_ZN4wasm10WalkerPassINS_10PostWalkerINS_7PlannerENS_7VisitorIS2_vEEEEE3runEPNS_10PassRunnerEPNS_6ModuleE
_ZNSt8_Rb_treeIjSt4pairIKjjESt10_Select1stIS2_ESt4lessIjESaIS2_EE24_M_get_insert_unique_posERS1_
_ZNSt8_Rb_treeIjSt4pairIKjjESt10_Select1stIS2_ESt4lessIjESaIS2_EE29_M_get_insert_hint_unique_posESt23_Rb_tree_const_iteratorIS2_ERS1_
_ZNSt8_Rb_treeIjSt4pairIKjjESt10_Select1stIS2_ESt4lessIjESaIS2_EE22_M_emplace_hint_uniqueIJRKSt21piecewise_construct_tSt5tupleIJRS1_EESD_IJEEEEESt17_Rb_tree_iteratorIS2_ESt23_Rb_tree_const_iteratorIS2_EDpOT_
_ZZN4wasm8Inlining9iterationEPNS_10PassRunnerEPNS_6ModuleEENKUlRKSt10unique_ptrINS_8FunctionESt14default_deleteIS6_EEE_clESB_
_ZSt9__find_ifIN9__gnu_cxx17__normal_iteratorIPSt10unique_ptrIN4wasm8FunctionESt14default_deleteIS4_EESt6vectorIS7_SaIS7_EEEENS0_5__ops10_Iter_predIZNS3_8Inlining9iterationEPNS3_10PassRunnerEPNS3_6ModuleEEUlRKS7_E_EEET_SO_SO_T0_St26random_access_iterator_tag
_ZSt11__remove_ifIN9__gnu_cxx17__normal_iteratorIPSt10unique_ptrIN4wasm8FunctionESt14default_deleteIS4_EESt6vectorIS7_SaIS7_EEEENS0_5__ops10_Iter_predIZNS3_8Inlining9iterationEPNS3_10PassRunnerEPNS3_6ModuleEEUlRKS7_E_EEET_SO_SO_T0_
_ZNSt10_HashtableIN4wasm4NameES1_SaIS1_ENSt8__detail9_IdentityESt8equal_toIS1_ESt4hashIS1_ENS3_18_Mod_range_hashingENS3_20_Default_ranged_hashENS3_20_Prime_rehash_policyENS3_17_Hashtable_traitsILb1ELb1ELb1EEEE9_M_insertIRKS1_NS3_10_AllocNodeISaINS3_10_Hash_nodeIS1_Lb1EEEEEEEESt4pairINS3_14_Node_iteratorIS1_Lb1ELb1EEEbEOT_RKT0_St17integral_constantIbLb1EEm
_ZNSt10_HashtableIPN4wasm8FunctionES2_SaIS2_ENSt8__detail9_IdentityESt8equal_toIS2_ESt4hashIS2_ENS4_18_Mod_range_hashingENS4_20_Default_ranged_hashENS4_20_Prime_rehash_policyENS4_17_Hashtable_traitsILb0ELb1ELb1EEEE9_M_rehashEmRKm
_ZN4wasm8Inlining9iterationEPNS_10PassRunnerEPNS_6ModuleE
_ZN4wasm8Inlining3runEPNS_10PassRunnerEPNS_6ModuleE
_ZNSt6vectorIN4wasm6WalkerINS0_19FunctionInfoScannerENS0_7VisitorIS2_vEEE4TaskESaIS6_EE17_M_realloc_insertIJRPFvPS2_PPNS0_10ExpressionEERSD_EEEvN9__gnu_cxx17__normal_iteratorIPS6_S8_EEDpOT_
_ZNSt6vectorIN4wasm6WalkerINS0_19FunctionInfoScannerENS0_7VisitorIS2_vEEE4TaskESaIS6_EE12emplace_backIJRPFvPS2_PPNS0_10ExpressionEERSD_EEEvDpOT_
_ZN4wasm6WalkerINS_19FunctionInfoScannerENS_7VisitorIS1_vEEE8pushTaskEPFvPS1_PPNS_10ExpressionEES8_
_ZN4wasm10WalkerPassINS_10PostWalkerINS_19FunctionInfoScannerENS_7VisitorIS2_vEEEEE11runFunctionEPNS_10PassRunnerEPNS_6ModuleEPNS_8FunctionE
_ZN4wasm10PostWalkerINS_19FunctionInfoScannerENS_7VisitorIS1_vEEE4scanEPS1_PPNS_10ExpressionE
_ZN4wasm10WalkerPassINS_10PostWalkerINS_19FunctionInfoScannerENS_7VisitorIS2_vEEEEE3runEPNS_10PassRunnerEPNS_6ModuleE
_ZTSN4wasm7VisitorINS_7PlannerEvEE
_ZTIN4wasm7VisitorINS_7PlannerEvEE
_ZTSN4wasm7VisitorINS_19FunctionInfoScannerEvEE
_ZTIN4wasm7VisitorINS_19FunctionInfoScannerEvEE
_ZTSN4wasm6WalkerINS_7PlannerENS_7VisitorIS1_vEEEE
_ZTIN4wasm6WalkerINS_7PlannerENS_7VisitorIS1_vEEEE
_ZTSN4wasm6WalkerINS_19FunctionInfoScannerENS_7VisitorIS1_vEEEE
_ZTIN4wasm6WalkerINS_19FunctionInfoScannerENS_7VisitorIS1_vEEEE
_ZTSN4wasm10PostWalkerINS_7PlannerENS_7VisitorIS1_vEEEE
_ZTIN4wasm10PostWalkerINS_7PlannerENS_7VisitorIS1_vEEEE
_ZTSN4wasm10PostWalkerINS_19FunctionInfoScannerENS_7VisitorIS1_vEEEE
_ZTIN4wasm10PostWalkerINS_19FunctionInfoScannerENS_7VisitorIS1_vEEEE
_ZTSN4wasm10WalkerPassINS_10PostWalkerINS_19FunctionInfoScannerENS_7VisitorIS2_vEEEEEE
_ZTIN4wasm10WalkerPassINS_10PostWalkerINS_19FunctionInfoScannerENS_7VisitorIS2_vEEEEEE
_ZTSN4wasm19FunctionInfoScannerE
_ZTIN4wasm19FunctionInfoScannerE
_ZTSN4wasm10WalkerPassINS_10PostWalkerINS_7PlannerENS_7VisitorIS2_vEEEEEE
_ZTIN4wasm10WalkerPassINS_10PostWalkerINS_7PlannerENS_7VisitorIS2_vEEEEEE
_ZTSN4wasm7PlannerE
_ZTIN4wasm7PlannerE
_ZTSN4wasm8InliningE
_ZTIN4wasm8InliningE
_ZTSZN4wasm21ExpressionManipulator4copyEPNS_10ExpressionERNS_6ModuleEEUlS2_E_
_ZZN4wasm19LegalizeJSInterface3runEPNS_10PassRunnerEPNS_6ModuleEEN10FixImports18isFunctionParallelEv
_ZZN4wasm19LegalizeJSInterface3runEPNS_10PassRunnerEPNS_6ModuleEEN10FixImports6createEv
_ZTVZN4wasm19LegalizeJSInterface3runEPNS_10PassRunnerEPNS_6ModuleEE10FixImports
_ZN4wasm10WalkerPassINS_10PostWalkerIZNS_19LegalizeJSInterface3runEPNS_10PassRunnerEPNS_6ModuleEE10FixImportsNS_7VisitorIS7_vEEEEED2Ev
_ZTVN4wasm10WalkerPassINS_10PostWalkerIZNS_19LegalizeJSInterface3runEPNS_10PassRunnerEPNS_6ModuleEE10FixImportsNS_7VisitorIS7_vEEEEEE
_ZN4wasm10WalkerPassINS_10PostWalkerIZNS_19LegalizeJSInterface3runEPNS_10PassRunnerEPNS_6ModuleEE10FixImportsNS_7VisitorIS7_vEEEEED1Ev
_ZN4wasm6WalkerIZNS_19LegalizeJSInterface3runEPNS_10PassRunnerEPNS_6ModuleEE10FixImportsNS_7VisitorIS6_vEEE12doVisitBlockEPS6_PPNS_10ExpressionE
_ZN4wasm6WalkerIZNS_19LegalizeJSInterface3runEPNS_10PassRunnerEPNS_6ModuleEE10FixImportsNS_7VisitorIS6_vEEE9doVisitIfEPS6_PPNS_10ExpressionE
_ZN4wasm6WalkerIZNS_19LegalizeJSInterface3runEPNS_10PassRunnerEPNS_6ModuleEE10FixImportsNS_7VisitorIS6_vEEE11doVisitLoopEPS6_PPNS_10ExpressionE
_ZN4wasm6WalkerIZNS_19LegalizeJSInterface3runEPNS_10PassRunnerEPNS_6ModuleEE10FixImportsNS_7VisitorIS6_vEEE12doVisitBreakEPS6_PPNS_10ExpressionE
_ZN4wasm6WalkerIZNS_19LegalizeJSInterface3runEPNS_10PassRunnerEPNS_6ModuleEE10FixImportsNS_7VisitorIS6_vEEE13doVisitSwitchEPS6_PPNS_10ExpressionE
_ZN4wasm6WalkerIZNS_19LegalizeJSInterface3runEPNS_10PassRunnerEPNS_6ModuleEE10FixImportsNS_7VisitorIS6_vEEE11doVisitCallEPS6_PPNS_10ExpressionE
_ZN4wasm6WalkerIZNS_19LegalizeJSInterface3runEPNS_10PassRunnerEPNS_6ModuleEE10FixImportsNS_7VisitorIS6_vEEE19doVisitCallIndirectEPS6_PPNS_10ExpressionE
_ZN4wasm6WalkerIZNS_19LegalizeJSInterface3runEPNS_10PassRunnerEPNS_6ModuleEE10FixImportsNS_7VisitorIS6_vEEE15doVisitGetLocalEPS6_PPNS_10ExpressionE
_ZN4wasm6WalkerIZNS_19LegalizeJSInterface3runEPNS_10PassRunnerEPNS_6ModuleEE10FixImportsNS_7VisitorIS6_vEEE15doVisitSetLocalEPS6_PPNS_10ExpressionE
_ZN4wasm6WalkerIZNS_19LegalizeJSInterface3runEPNS_10PassRunnerEPNS_6ModuleEE10FixImportsNS_7VisitorIS6_vEEE16doVisitGetGlobalEPS6_PPNS_10ExpressionE
_ZN4wasm6WalkerIZNS_19LegalizeJSInterface3runEPNS_10PassRunnerEPNS_6ModuleEE10FixImportsNS_7VisitorIS6_vEEE16doVisitSetGlobalEPS6_PPNS_10ExpressionE
_ZN4wasm6WalkerIZNS_19LegalizeJSInterface3runEPNS_10PassRunnerEPNS_6ModuleEE10FixImportsNS_7VisitorIS6_vEEE11doVisitLoadEPS6_PPNS_10ExpressionE
_ZN4wasm6WalkerIZNS_19LegalizeJSInterface3runEPNS_10PassRunnerEPNS_6ModuleEE10FixImportsNS_7VisitorIS6_vEEE12doVisitStoreEPS6_PPNS_10ExpressionE
_ZN4wasm6WalkerIZNS_19LegalizeJSInterface3runEPNS_10PassRunnerEPNS_6ModuleEE10FixImportsNS_7VisitorIS6_vEEE16doVisitAtomicRMWEPS6_PPNS_10ExpressionE
_ZN4wasm6WalkerIZNS_19LegalizeJSInterface3runEPNS_10PassRunnerEPNS_6ModuleEE10FixImportsNS_7VisitorIS6_vEEE20doVisitAtomicCmpxchgEPS6_PPNS_10ExpressionE
_ZN4wasm6WalkerIZNS_19LegalizeJSInterface3runEPNS_10PassRunnerEPNS_6ModuleEE10FixImportsNS_7VisitorIS6_vEEE17doVisitAtomicWaitEPS6_PPNS_10ExpressionE
_ZN4wasm6WalkerIZNS_19LegalizeJSInterface3runEPNS_10PassRunnerEPNS_6ModuleEE10FixImportsNS_7VisitorIS6_vEEE17doVisitAtomicWakeEPS6_PPNS_10ExpressionE
_ZN4wasm6WalkerIZNS_19LegalizeJSInterface3runEPNS_10PassRunnerEPNS_6ModuleEE10FixImportsNS_7VisitorIS6_vEEE12doVisitConstEPS6_PPNS_10ExpressionE
_ZN4wasm6WalkerIZNS_19LegalizeJSInterface3runEPNS_10PassRunnerEPNS_6ModuleEE10FixImportsNS_7VisitorIS6_vEEE12doVisitUnaryEPS6_PPNS_10ExpressionE
_ZN4wasm6WalkerIZNS_19LegalizeJSInterface3runEPNS_10PassRunnerEPNS_6ModuleEE10FixImportsNS_7VisitorIS6_vEEE13doVisitBinaryEPS6_PPNS_10ExpressionE
_ZN4wasm6WalkerIZNS_19LegalizeJSInterface3runEPNS_10PassRunnerEPNS_6ModuleEE10FixImportsNS_7VisitorIS6_vEEE13doVisitSelectEPS6_PPNS_10ExpressionE
_ZN4wasm6WalkerIZNS_19LegalizeJSInterface3runEPNS_10PassRunnerEPNS_6ModuleEE10FixImportsNS_7VisitorIS6_vEEE11doVisitDropEPS6_PPNS_10ExpressionE
_ZN4wasm6WalkerIZNS_19LegalizeJSInterface3runEPNS_10PassRunnerEPNS_6ModuleEE10FixImportsNS_7VisitorIS6_vEEE13doVisitReturnEPS6_PPNS_10ExpressionE
_ZN4wasm6WalkerIZNS_19LegalizeJSInterface3runEPNS_10PassRunnerEPNS_6ModuleEE10FixImportsNS_7VisitorIS6_vEEE11doVisitHostEPS6_PPNS_10ExpressionE
_ZN4wasm6WalkerIZNS_19LegalizeJSInterface3runEPNS_10PassRunnerEPNS_6ModuleEE10FixImportsNS_7VisitorIS6_vEEE10doVisitNopEPS6_PPNS_10ExpressionE
_ZN4wasm6WalkerIZNS_19LegalizeJSInterface3runEPNS_10PassRunnerEPNS_6ModuleEE10FixImportsNS_7VisitorIS6_vEEE18doVisitUnreachableEPS6_PPNS_10ExpressionE
_ZZN4wasm19LegalizeJSInterface3runEPNS_10PassRunnerEPNS_6ModuleEEN10FixImportsD2Ev
_ZZN4wasm19LegalizeJSInterface3runEPNS_10PassRunnerEPNS_6ModuleEEN10FixImportsD1Ev
_ZN4wasm10WalkerPassINS_10PostWalkerIZNS_19LegalizeJSInterface3runEPNS_10PassRunnerEPNS_6ModuleEE10FixImportsNS_7VisitorIS7_vEEEEED0Ev
_ZZN4wasm19LegalizeJSInterface3runEPNS_10PassRunnerEPNS_6ModuleEEN10FixImportsD0Ev
_ZTVN4wasm19LegalizeJSInterfaceE
_ZNSt6vectorIPN4wasm6ImportESaIS2_EE17_M_realloc_insertIJRKS2_EEEvN9__gnu_cxx17__normal_iteratorIPS2_S4_EEDpOT_
_ZN4wasm19LegalizeJSInterfaceD2Ev
_ZN4wasm19LegalizeJSInterfaceD1Ev
_ZN4wasm19LegalizeJSInterfaceD0Ev
_ZN4wasm6WalkerIZNS_19LegalizeJSInterface3runEPNS_10PassRunnerEPNS_6ModuleEE10FixImportsNS_7VisitorIS6_vEEE17doVisitCallImportEPS6_PPNS_10ExpressionE
_ZN4wasm19LegalizeJSInterface13makeLegalStubEPNS_6ImportEPNS_6ModuleERNS_4NameE
_ZN4wasm10TEMP_RET_0E
_ZN4wasm6Module15getGlobalOrNullENS_4NameE
_ZN4wasm19LegalizeJSInterface13makeLegalStubEPNS_8FunctionEPNS_6ModuleE
_ZN4wasm19LegalizeJSInterface3runEPNS_10PassRunnerEPNS_6ModuleE
_ZNSt6vectorIN4wasm6WalkerIZNS0_19LegalizeJSInterface3runEPNS0_10PassRunnerEPNS0_6ModuleEE10FixImportsNS0_7VisitorIS7_vEEE4TaskESaISB_EE17_M_realloc_insertIJRPFvPS7_PPNS0_10ExpressionEERSI_EEEvN9__gnu_cxx17__normal_iteratorIPSB_SD_EEDpOT_
_ZNSt6vectorIN4wasm6WalkerIZNS0_19LegalizeJSInterface3runEPNS0_10PassRunnerEPNS0_6ModuleEE10FixImportsNS0_7VisitorIS7_vEEE4TaskESaISB_EE12emplace_backIJRPFvPS7_PPNS0_10ExpressionEERSI_EEEvDpOT_
_ZN4wasm10WalkerPassINS_10PostWalkerIZNS_19LegalizeJSInterface3runEPNS_10PassRunnerEPNS_6ModuleEE10FixImportsNS_7VisitorIS7_vEEEEE11runFunctionES4_S6_PNS_8FunctionE
_ZN4wasm10PostWalkerIZNS_19LegalizeJSInterface3runEPNS_10PassRunnerEPNS_6ModuleEE10FixImportsNS_7VisitorIS6_vEEE4scanEPS6_PPNS_10ExpressionE
_ZN4wasm10WalkerPassINS_10PostWalkerIZNS_19LegalizeJSInterface3runEPNS_10PassRunnerEPNS_6ModuleEE10FixImportsNS_7VisitorIS7_vEEEEE3runES4_S6_
_ZTSN4wasm7VisitorIZNS_19LegalizeJSInterface3runEPNS_10PassRunnerEPNS_6ModuleEE10FixImportsvEE
_ZTIN4wasm7VisitorIZNS_19LegalizeJSInterface3runEPNS_10PassRunnerEPNS_6ModuleEE10FixImportsvEE
_ZTSN4wasm6WalkerIZNS_19LegalizeJSInterface3runEPNS_10PassRunnerEPNS_6ModuleEE10FixImportsNS_7VisitorIS6_vEEEE
_ZTIN4wasm6WalkerIZNS_19LegalizeJSInterface3runEPNS_10PassRunnerEPNS_6ModuleEE10FixImportsNS_7VisitorIS6_vEEEE
_ZTSN4wasm10PostWalkerIZNS_19LegalizeJSInterface3runEPNS_10PassRunnerEPNS_6ModuleEE10FixImportsNS_7VisitorIS6_vEEEE
_ZTIN4wasm10PostWalkerIZNS_19LegalizeJSInterface3runEPNS_10PassRunnerEPNS_6ModuleEE10FixImportsNS_7VisitorIS6_vEEEE
_ZTSN4wasm19LegalizeJSInterfaceE
_ZTIN4wasm19LegalizeJSInterfaceE
_ZTSN4wasm10WalkerPassINS_10PostWalkerIZNS_19LegalizeJSInterface3runEPNS_10PassRunnerEPNS_6ModuleEE10FixImportsNS_7VisitorIS7_vEEEEEE
_ZTIN4wasm10WalkerPassINS_10PostWalkerIZNS_19LegalizeJSInterface3runEPNS_10PassRunnerEPNS_6ModuleEE10FixImportsNS_7VisitorIS7_vEEEEEE
_ZTSZN4wasm19LegalizeJSInterface3runEPNS_10PassRunnerEPNS_6ModuleEE10FixImports
_ZTIZN4wasm19LegalizeJSInterface3runEPNS_10PassRunnerEPNS_6ModuleEE10FixImports
_ZN4wasm8LocalCSE18isFunctionParallelEv
_ZN4wasm8LocalCSE6createEv
_ZTVN4wasm8LocalCSEE
_ZN4wasm10WalkerPassINS_21LinearExecutionWalkerINS_8LocalCSEENS_7VisitorIS2_vEEEEED2Ev
_ZTVN4wasm10WalkerPassINS_21LinearExecutionWalkerINS_8LocalCSEENS_7VisitorIS2_vEEEEEE
_ZN4wasm10WalkerPassINS_21LinearExecutionWalkerINS_8LocalCSEENS_7VisitorIS2_vEEEEED1Ev
_ZN4wasm6WalkerINS_8LocalCSEENS_7VisitorIS1_vEEE12doVisitBlockEPS1_PPNS_10ExpressionE
_ZN4wasm6WalkerINS_8LocalCSEENS_7VisitorIS1_vEEE9doVisitIfEPS1_PPNS_10ExpressionE
_ZN4wasm6WalkerINS_8LocalCSEENS_7VisitorIS1_vEEE11doVisitLoopEPS1_PPNS_10ExpressionE
_ZN4wasm6WalkerINS_8LocalCSEENS_7VisitorIS1_vEEE12doVisitBreakEPS1_PPNS_10ExpressionE
_ZN4wasm6WalkerINS_8LocalCSEENS_7VisitorIS1_vEEE13doVisitSwitchEPS1_PPNS_10ExpressionE
_ZN4wasm6WalkerINS_8LocalCSEENS_7VisitorIS1_vEEE13doVisitReturnEPS1_PPNS_10ExpressionE
_ZN4wasm6WalkerINS_8LocalCSEENS_7VisitorIS1_vEEE18doVisitUnreachableEPS1_PPNS_10ExpressionE
_ZN4wasm6WalkerINS_8LocalCSEENS_7VisitorIS1_vEEE11doVisitCallEPS1_PPNS_10ExpressionE
_ZN4wasm6WalkerINS_8LocalCSEENS_7VisitorIS1_vEEE17doVisitCallImportEPS1_PPNS_10ExpressionE
_ZN4wasm6WalkerINS_8LocalCSEENS_7VisitorIS1_vEEE19doVisitCallIndirectEPS1_PPNS_10ExpressionE
_ZN4wasm6WalkerINS_8LocalCSEENS_7VisitorIS1_vEEE15doVisitGetLocalEPS1_PPNS_10ExpressionE
_ZN4wasm6WalkerINS_8LocalCSEENS_7VisitorIS1_vEEE15doVisitSetLocalEPS1_PPNS_10ExpressionE
_ZN4wasm6WalkerINS_8LocalCSEENS_7VisitorIS1_vEEE16doVisitGetGlobalEPS1_PPNS_10ExpressionE
_ZN4wasm6WalkerINS_8LocalCSEENS_7VisitorIS1_vEEE16doVisitSetGlobalEPS1_PPNS_10ExpressionE
_ZN4wasm6WalkerINS_8LocalCSEENS_7VisitorIS1_vEEE11doVisitLoadEPS1_PPNS_10ExpressionE
_ZN4wasm6WalkerINS_8LocalCSEENS_7VisitorIS1_vEEE12doVisitStoreEPS1_PPNS_10ExpressionE
_ZN4wasm6WalkerINS_8LocalCSEENS_7VisitorIS1_vEEE16doVisitAtomicRMWEPS1_PPNS_10ExpressionE
_ZN4wasm6WalkerINS_8LocalCSEENS_7VisitorIS1_vEEE20doVisitAtomicCmpxchgEPS1_PPNS_10ExpressionE
_ZN4wasm6WalkerINS_8LocalCSEENS_7VisitorIS1_vEEE17doVisitAtomicWaitEPS1_PPNS_10ExpressionE
_ZN4wasm6WalkerINS_8LocalCSEENS_7VisitorIS1_vEEE17doVisitAtomicWakeEPS1_PPNS_10ExpressionE
_ZN4wasm6WalkerINS_8LocalCSEENS_7VisitorIS1_vEEE12doVisitConstEPS1_PPNS_10ExpressionE
_ZN4wasm6WalkerINS_8LocalCSEENS_7VisitorIS1_vEEE12doVisitUnaryEPS1_PPNS_10ExpressionE
_ZN4wasm6WalkerINS_8LocalCSEENS_7VisitorIS1_vEEE13doVisitBinaryEPS1_PPNS_10ExpressionE
_ZN4wasm6WalkerINS_8LocalCSEENS_7VisitorIS1_vEEE13doVisitSelectEPS1_PPNS_10ExpressionE
_ZN4wasm6WalkerINS_8LocalCSEENS_7VisitorIS1_vEEE11doVisitDropEPS1_PPNS_10ExpressionE
_ZN4wasm6WalkerINS_8LocalCSEENS_7VisitorIS1_vEEE11doVisitHostEPS1_PPNS_10ExpressionE
_ZN4wasm6WalkerINS_8LocalCSEENS_7VisitorIS1_vEEE10doVisitNopEPS1_PPNS_10ExpressionE
_ZN4wasm10WalkerPassINS_21LinearExecutionWalkerINS_8LocalCSEENS_7VisitorIS2_vEEEEED0Ev
_ZNSt10_HashtableIN4wasm16HashedExpressionESt4pairIKS1_NS0_8LocalCSE10UsableInfoEESaIS6_ENSt8__detail10_Select1stENS0_18ExpressionComparerENS0_16ExpressionHasherENS8_18_Mod_range_hashingENS8_20_Default_ranged_hashENS8_20_Prime_rehash_policyENS8_17_Hashtable_traitsILb1ELb0ELb1EEEE5clearEv
_ZN4wasm8LocalCSE15doNoteNonLinearEPS0_PPNS_10ExpressionE
_ZN4wasm8LocalCSED2Ev
_ZN4wasm8LocalCSED1Ev
_ZN4wasm8LocalCSED0Ev
_ZNSt6vectorIN4wasm16HashedExpressionESaIS1_EE17_M_realloc_insertIJRKS1_EEEvN9__gnu_cxx17__normal_iteratorIPS1_S3_EEDpOT_
_ZNSt6vectorIN4wasm6WalkerINS0_8LocalCSEENS0_7VisitorIS2_vEEE4TaskESaIS6_EE17_M_realloc_insertIJRPFvPS2_PPNS0_10ExpressionEERSD_EEEvN9__gnu_cxx17__normal_iteratorIPS6_S8_EEDpOT_
_ZNSt6vectorIN4wasm6WalkerINS0_8LocalCSEENS0_7VisitorIS2_vEEE4TaskESaIS6_EE12emplace_backIJRPFvPS2_PPNS0_10ExpressionEERSD_EEEvDpOT_
_ZN4wasm10WalkerPassINS_21LinearExecutionWalkerINS_8LocalCSEENS_7VisitorIS2_vEEEEE11runFunctionEPNS_10PassRunnerEPNS_6ModuleEPNS_8FunctionE
_ZN4wasm8LocalCSE4scanEPS0_PPNS_10ExpressionE
_ZN4wasm10WalkerPassINS_21LinearExecutionWalkerINS_8LocalCSEENS_7VisitorIS2_vEEEEE3runEPNS_10PassRunnerEPNS_6ModuleE
_ZN4wasm10PostWalkerINS_8LocalCSEENS_7VisitorIS1_vEEE4scanEPS1_PPNS_10ExpressionE
_ZN4wasm8LocalCSE9visitPostEPS0_PPNS_10ExpressionE
_ZN4wasm8LocalCSE8visitPreEPS0_PPNS_10ExpressionE
_ZNKSt10_HashtableIN4wasm16HashedExpressionESt4pairIKS1_NS0_8LocalCSE10UsableInfoEESaIS6_ENSt8__detail10_Select1stENS0_18ExpressionComparerENS0_16ExpressionHasherENS8_18_Mod_range_hashingENS8_20_Default_ranged_hashENS8_20_Prime_rehash_policyENS8_17_Hashtable_traitsILb1ELb0ELb1EEEE19_M_find_before_nodeEmRS3_m
_ZNSt10_HashtableIN4wasm16HashedExpressionESt4pairIKS1_NS0_8LocalCSE10UsableInfoEESaIS6_ENSt8__detail10_Select1stENS0_18ExpressionComparerENS0_16ExpressionHasherENS8_18_Mod_range_hashingENS8_20_Default_ranged_hashENS8_20_Prime_rehash_policyENS8_17_Hashtable_traitsILb1ELb0ELb1EEEE21_M_insert_unique_nodeEmmPNS8_10_Hash_nodeIS6_Lb1EEEm
_ZNSt10_HashtableIN4wasm16HashedExpressionESt4pairIKS1_NS0_8LocalCSE10UsableInfoEESaIS6_ENSt8__detail10_Select1stENS0_18ExpressionComparerENS0_16ExpressionHasherENS8_18_Mod_range_hashingENS8_20_Default_ranged_hashENS8_20_Prime_rehash_policyENS8_17_Hashtable_traitsILb1ELb0ELb1EEEE10_M_emplaceIJS2_IS1_S5_EEEES2_INS8_14_Node_iteratorIS6_Lb0ELb1EEEbESt17integral_constantIbLb1EEDpOT_
_ZTSN4wasm7VisitorINS_8LocalCSEEvEE
_ZTIN4wasm7VisitorINS_8LocalCSEEvEE
_ZTSN4wasm6WalkerINS_8LocalCSEENS_7VisitorIS1_vEEEE
_ZTIN4wasm6WalkerINS_8LocalCSEENS_7VisitorIS1_vEEEE
_ZTSN4wasm10PostWalkerINS_8LocalCSEENS_7VisitorIS1_vEEEE
_ZTIN4wasm10PostWalkerINS_8LocalCSEENS_7VisitorIS1_vEEEE
_ZTSN4wasm21LinearExecutionWalkerINS_8LocalCSEENS_7VisitorIS1_vEEEE
_ZTIN4wasm21LinearExecutionWalkerINS_8LocalCSEENS_7VisitorIS1_vEEEE
_ZTSN4wasm10WalkerPassINS_21LinearExecutionWalkerINS_8LocalCSEENS_7VisitorIS2_vEEEEEE
_ZTIN4wasm10WalkerPassINS_21LinearExecutionWalkerINS_8LocalCSEENS_7VisitorIS2_vEEEEEE
_ZTSN4wasm8LocalCSEE
_ZTIN4wasm8LocalCSEE
_ZN4wasm6WalkerINS_12LogExecutionENS_7VisitorIS1_vEEE12doVisitBlockEPS1_PPNS_10ExpressionE
_ZN4wasm6WalkerINS_12LogExecutionENS_7VisitorIS1_vEEE9doVisitIfEPS1_PPNS_10ExpressionE
_ZN4wasm6WalkerINS_12LogExecutionENS_7VisitorIS1_vEEE12doVisitBreakEPS1_PPNS_10ExpressionE
_ZN4wasm6WalkerINS_12LogExecutionENS_7VisitorIS1_vEEE13doVisitSwitchEPS1_PPNS_10ExpressionE
_ZN4wasm6WalkerINS_12LogExecutionENS_7VisitorIS1_vEEE11doVisitCallEPS1_PPNS_10ExpressionE
_ZN4wasm6WalkerINS_12LogExecutionENS_7VisitorIS1_vEEE17doVisitCallImportEPS1_PPNS_10ExpressionE
_ZN4wasm6WalkerINS_12LogExecutionENS_7VisitorIS1_vEEE19doVisitCallIndirectEPS1_PPNS_10ExpressionE
_ZN4wasm6WalkerINS_12LogExecutionENS_7VisitorIS1_vEEE15doVisitGetLocalEPS1_PPNS_10ExpressionE
_ZN4wasm6WalkerINS_12LogExecutionENS_7VisitorIS1_vEEE15doVisitSetLocalEPS1_PPNS_10ExpressionE
_ZN4wasm6WalkerINS_12LogExecutionENS_7VisitorIS1_vEEE16doVisitGetGlobalEPS1_PPNS_10ExpressionE
_ZN4wasm6WalkerINS_12LogExecutionENS_7VisitorIS1_vEEE16doVisitSetGlobalEPS1_PPNS_10ExpressionE
_ZN4wasm6WalkerINS_12LogExecutionENS_7VisitorIS1_vEEE11doVisitLoadEPS1_PPNS_10ExpressionE
_ZN4wasm6WalkerINS_12LogExecutionENS_7VisitorIS1_vEEE12doVisitStoreEPS1_PPNS_10ExpressionE
_ZN4wasm6WalkerINS_12LogExecutionENS_7VisitorIS1_vEEE16doVisitAtomicRMWEPS1_PPNS_10ExpressionE
_ZN4wasm6WalkerINS_12LogExecutionENS_7VisitorIS1_vEEE20doVisitAtomicCmpxchgEPS1_PPNS_10ExpressionE
_ZN4wasm6WalkerINS_12LogExecutionENS_7VisitorIS1_vEEE17doVisitAtomicWaitEPS1_PPNS_10ExpressionE
_ZN4wasm6WalkerINS_12LogExecutionENS_7VisitorIS1_vEEE17doVisitAtomicWakeEPS1_PPNS_10ExpressionE
_ZN4wasm6WalkerINS_12LogExecutionENS_7VisitorIS1_vEEE12doVisitConstEPS1_PPNS_10ExpressionE
_ZN4wasm6WalkerINS_12LogExecutionENS_7VisitorIS1_vEEE12doVisitUnaryEPS1_PPNS_10ExpressionE
_ZN4wasm6WalkerINS_12LogExecutionENS_7VisitorIS1_vEEE13doVisitBinaryEPS1_PPNS_10ExpressionE
_ZN4wasm6WalkerINS_12LogExecutionENS_7VisitorIS1_vEEE13doVisitSelectEPS1_PPNS_10ExpressionE
_ZN4wasm6WalkerINS_12LogExecutionENS_7VisitorIS1_vEEE11doVisitDropEPS1_PPNS_10ExpressionE
_ZN4wasm6WalkerINS_12LogExecutionENS_7VisitorIS1_vEEE13doVisitReturnEPS1_PPNS_10ExpressionE
_ZN4wasm6WalkerINS_12LogExecutionENS_7VisitorIS1_vEEE11doVisitHostEPS1_PPNS_10ExpressionE
_ZN4wasm6WalkerINS_12LogExecutionENS_7VisitorIS1_vEEE10doVisitNopEPS1_PPNS_10ExpressionE
_ZN4wasm6WalkerINS_12LogExecutionENS_7VisitorIS1_vEEE18doVisitUnreachableEPS1_PPNS_10ExpressionE
_ZN4wasm10WalkerPassINS_10PostWalkerINS_12LogExecutionENS_7VisitorIS2_vEEEEED2Ev
_ZTVN4wasm10WalkerPassINS_10PostWalkerINS_12LogExecutionENS_7VisitorIS2_vEEEEEE
_ZN4wasm10WalkerPassINS_10PostWalkerINS_12LogExecutionENS_7VisitorIS2_vEEEEED1Ev
_ZN4wasm12LogExecutionD2Ev
_ZN4wasm12LogExecutionD1Ev
_ZN4wasm10WalkerPassINS_10PostWalkerINS_12LogExecutionENS_7VisitorIS2_vEEEEED0Ev
_ZN4wasm12LogExecutionD0Ev
_ZTVN4wasm12LogExecutionE
_ZN4wasm6WalkerINS_12LogExecutionENS_7VisitorIS1_vEEE11doVisitLoopEPS1_PPNS_10ExpressionE
_ZZN4wasm12LogExecution11makeLogCallEPNS_10ExpressionEE2id
_ZN4wasm6LOGGERE
_ZNSt6vectorIN4wasm6WalkerINS0_12LogExecutionENS0_7VisitorIS2_vEEE4TaskESaIS6_EE17_M_realloc_insertIJRPFvPS2_PPNS0_10ExpressionEERSD_EEEvN9__gnu_cxx17__normal_iteratorIPS6_S8_EEDpOT_
_ZNSt6vectorIN4wasm6WalkerINS0_12LogExecutionENS0_7VisitorIS2_vEEE4TaskESaIS6_EE12emplace_backIJRPFvPS2_PPNS0_10ExpressionEERSD_EEEvDpOT_
_ZN4wasm10WalkerPassINS_10PostWalkerINS_12LogExecutionENS_7VisitorIS2_vEEEEE11runFunctionEPNS_10PassRunnerEPNS_6ModuleEPNS_8FunctionE
_ZN4wasm10PostWalkerINS_12LogExecutionENS_7VisitorIS1_vEEE4scanEPS1_PPNS_10ExpressionE
_ZN4wasm10WalkerPassINS_10PostWalkerINS_12LogExecutionENS_7VisitorIS2_vEEEEE3runEPNS_10PassRunnerEPNS_6ModuleE
_ZTSN4wasm7VisitorINS_12LogExecutionEvEE
_ZTIN4wasm7VisitorINS_12LogExecutionEvEE
_ZTSN4wasm6WalkerINS_12LogExecutionENS_7VisitorIS1_vEEEE
_ZTIN4wasm6WalkerINS_12LogExecutionENS_7VisitorIS1_vEEEE
_ZTSN4wasm10PostWalkerINS_12LogExecutionENS_7VisitorIS1_vEEEE
_ZTIN4wasm10PostWalkerINS_12LogExecutionENS_7VisitorIS1_vEEEE
_ZTSN4wasm10WalkerPassINS_10PostWalkerINS_12LogExecutionENS_7VisitorIS2_vEEEEEE
_ZTIN4wasm10WalkerPassINS_10PostWalkerINS_12LogExecutionENS_7VisitorIS2_vEEEEEE
_ZTSN4wasm12LogExecutionE
_ZTIN4wasm12LogExecutionE
_ZN4wasm16I64ToI32Lowering18isFunctionParallelEv
_ZNSt14_Function_base13_Base_managerIZN4wasm16I64ToI32Lowering9visitCallEPNS1_4CallEEUlRSt6vectorIPNS1_10ExpressionESaIS7_EENS1_8WasmTypeEE_E10_M_managerERSt9_Any_dataRKSE_St18_Manager_operation
_ZTIZN4wasm16I64ToI32Lowering9visitCallEPNS_4CallEEUlRSt6vectorIPNS_10ExpressionESaIS5_EENS_8WasmTypeEE_
_ZNSt14_Function_base13_Base_managerIZN4wasm16I64ToI32Lowering17visitCallIndirectEPNS1_12CallIndirectEEUlRSt6vectorIPNS1_10ExpressionESaIS7_EENS1_8WasmTypeEE_E10_M_managerERSt9_Any_dataRKSE_St18_Manager_operation
_ZTIZN4wasm16I64ToI32Lowering17visitCallIndirectEPNS_12CallIndirectEEUlRSt6vectorIPNS_10ExpressionESaIS5_EENS_8WasmTypeEE_
_ZN4wasm6WalkerINS_16I64ToI32LoweringENS_7VisitorIS1_vEEE17doVisitCallImportEPS1_PPNS_10ExpressionE
_ZN4wasm6WalkerINS_16I64ToI32LoweringENS_7VisitorIS1_vEEE17doVisitAtomicWaitEPS1_PPNS_10ExpressionE
_ZN4wasm6WalkerINS_16I64ToI32LoweringENS_7VisitorIS1_vEEE17doVisitAtomicWakeEPS1_PPNS_10ExpressionE
_ZN4wasm6WalkerINS_16I64ToI32LoweringENS_7VisitorIS1_vEEE11doVisitHostEPS1_PPNS_10ExpressionE
_ZN4wasm6WalkerINS_16I64ToI32LoweringENS_7VisitorIS1_vEEE10doVisitNopEPS1_PPNS_10ExpressionE
_ZN4wasm6WalkerINS_16I64ToI32LoweringENS_7VisitorIS1_vEEE18doVisitUnreachableEPS1_PPNS_10ExpressionE
_ZN4wasm10WalkerPassINS_10PostWalkerINS_16I64ToI32LoweringENS_7VisitorIS2_vEEEEED2Ev
_ZTVN4wasm10WalkerPassINS_10PostWalkerINS_16I64ToI32LoweringENS_7VisitorIS2_vEEEEEE
_ZN4wasm10WalkerPassINS_10PostWalkerINS_16I64ToI32LoweringENS_7VisitorIS2_vEEEEED1Ev
_ZN4wasm6WalkerINS_16I64ToI32LoweringENS_7VisitorIS1_vEEE16doVisitGetGlobalEPS1_PPNS_10ExpressionE
_ZN4wasm6WalkerINS_16I64ToI32LoweringENS_7VisitorIS1_vEEE16doVisitSetGlobalEPS1_PPNS_10ExpressionE
_ZN4wasm6WalkerINS_16I64ToI32LoweringENS_7VisitorIS1_vEEE16doVisitAtomicRMWEPS1_PPNS_10ExpressionE
_ZN4wasm6WalkerINS_16I64ToI32LoweringENS_7VisitorIS1_vEEE20doVisitAtomicCmpxchgEPS1_PPNS_10ExpressionE
_ZN4wasm16I64ToI32Lowering6createEv
_ZTVN4wasm16I64ToI32LoweringE
_ZN4wasm10WalkerPassINS_10PostWalkerINS_16I64ToI32LoweringENS_7VisitorIS2_vEEEEED0Ev
_ZNSt6vectorIjSaIjEE8pop_backEv
_ZNSt10_HashtableIPN4wasm10ExpressionESt4pairIKS2_NS0_8Function13DebugLocationEESaIS7_ENSt8__detail10_Select1stESt8equal_toIS2_ESt4hashIS2_ENS9_18_Mod_range_hashingENS9_20_Default_ranged_hashENS9_20_Prime_rehash_policyENS9_17_Hashtable_traitsILb0ELb0ELb1EEEE5clearEv
_ZN4wasm8FunctionD2Ev
_ZN4wasm8FunctionD1Ev
_ZN4wasm16I64ToI32Lowering7TempVar7freeIdxEv
_ZNSt10_HashtableIjSt4pairIKjjESaIS2_ENSt8__detail10_Select1stESt8equal_toIjESt4hashIjENS4_18_Mod_range_hashingENS4_20_Default_ranged_hashENS4_20_Prime_rehash_policyENS4_17_Hashtable_traitsILb0ELb0ELb1EEEE5clearEv
_ZNSt10_HashtableIPN4wasm10ExpressionESt4pairIKS2_NS0_16I64ToI32Lowering7TempVarEESaIS7_ENSt8__detail10_Select1stESt8equal_toIS2_ESt4hashIS2_ENS9_18_Mod_range_hashingENS9_20_Default_ranged_hashENS9_20_Prime_rehash_policyENS9_17_Hashtable_traitsILb0ELb0ELb1EEEE5clearEv
_ZNSt10_HashtableIN4wasm4NameESt4pairIKS1_NS0_16I64ToI32Lowering7TempVarEESaIS6_ENSt8__detail10_Select1stESt8equal_toIS1_ESt4hashIS1_ENS8_18_Mod_range_hashingENS8_20_Default_ranged_hashENS8_20_Prime_rehash_policyENS8_17_Hashtable_traitsILb1ELb0ELb1EEEE5clearEv
_ZN4wasm16I64ToI32LoweringD2Ev
_ZN4wasm16I64ToI32LoweringD1Ev
_ZN4wasm16I64ToI32LoweringD0Ev
_ZNSt10_HashtableIPN4wasm10ExpressionESt4pairIKS2_NS0_8Function13DebugLocationEESaIS7_ENSt8__detail10_Select1stESt8equal_toIS2_ESt4hashIS2_ENS9_18_Mod_range_hashingENS9_20_Default_ranged_hashENS9_20_Prime_rehash_policyENS9_17_Hashtable_traitsILb0ELb0ELb1EEEE9_M_assignIZNSK_C4ERKSK_EUlPKNS9_10_Hash_nodeIS7_Lb0EEEE_EEvSN_RKT_
_ZNSt17_Function_handlerIFPN4wasm12CallIndirectERSt6vectorIPNS0_10ExpressionESaIS5_EENS0_8WasmTypeEEZNS0_16I64ToI32Lowering17visitCallIndirectES2_EUlS8_S9_E_E9_M_invokeERKSt9_Any_dataS8_OS9_
_ZNSt17_Function_handlerIFPN4wasm4CallERSt6vectorIPNS0_10ExpressionESaIS5_EENS0_8WasmTypeEEZNS0_16I64ToI32Lowering9visitCallES2_EUlS8_S9_E_E9_M_invokeERKSt9_Any_dataS8_OS9_
_ZZN4wasm16I64ToI32Lowering8lowerMulEPNS_5BlockEONS0_7TempVarES4_S4_S4_ENKUlPNS_10ExpressionEE_clES6_
_ZNSt10_HashtableIN4wasm4NameESt4pairIKS1_NS0_16I64ToI32Lowering7TempVarEESaIS6_ENSt8__detail10_Select1stESt8equal_toIS1_ESt4hashIS1_ENS8_18_Mod_range_hashingENS8_20_Default_ranged_hashENS8_20_Prime_rehash_policyENS8_17_Hashtable_traitsILb1ELb0ELb1EEEE5eraseENS8_20_Node_const_iteratorIS6_Lb0ELb1EEE
_ZNSt6vectorIN4wasm4NameESaIS1_EE17_M_realloc_insertIJS1_EEEvN9__gnu_cxx17__normal_iteratorIPS1_S3_EEDpOT_
_ZNSt10_HashtableIPN4wasm10ExpressionESt4pairIKS2_NS0_16I64ToI32Lowering7TempVarEESaIS7_ENSt8__detail10_Select1stESt8equal_toIS2_ESt4hashIS2_ENS9_18_Mod_range_hashingENS9_20_Default_ranged_hashENS9_20_Prime_rehash_policyENS9_17_Hashtable_traitsILb0ELb0ELb1EEEE8_M_eraseESt17integral_constantIbLb1EERS4_
_ZN4wasm16I64ToI32Lowering13fetchOutParamEPNS_10ExpressionE
_ZN4wasm6WalkerINS_16I64ToI32LoweringENS_7VisitorIS1_vEEE13doVisitReturnEPS1_PPNS_10ExpressionE
_ZN4wasm16I64ToI32Lowering14highBitsGlobalE
_ZN4wasm6WalkerINS_16I64ToI32LoweringENS_7VisitorIS1_vEEE12doVisitStoreEPS1_PPNS_10ExpressionE
_ZN4wasm6WalkerINS_16I64ToI32LoweringENS_7VisitorIS1_vEEE11doVisitDropEPS1_PPNS_10ExpressionE
_ZN4wasm7Builder8addParamEPNS_8FunctionENS_4NameENS_8WasmTypeE
_ZNSt8_Rb_treeIjSt4pairIKjN4wasm4NameEESt10_Select1stIS4_ESt4lessIjESaIS4_EE7_M_copyINSA_11_Alloc_nodeEEEPSt13_Rb_tree_nodeIS4_EPKSE_PSt18_Rb_tree_node_baseRT_
_ZNSt8_Rb_treeIN4wasm4NameESt4pairIKS1_jESt10_Select1stIS4_ESt4lessIS1_ESaIS4_EE7_M_copyINSA_11_Alloc_nodeEEEPSt13_Rb_tree_nodeIS4_EPKSE_PSt18_Rb_tree_node_baseRT_
_ZNSt10_HashtableIjSt4pairIKjjESaIS2_ENSt8__detail10_Select1stESt8equal_toIjESt4hashIjENS4_18_Mod_range_hashingENS4_20_Default_ranged_hashENS4_20_Prime_rehash_policyENS4_17_Hashtable_traitsILb0ELb0ELb1EEEE9_M_rehashEmRKm
_ZNSt8__detail9_Map_baseIjSt4pairIKjjESaIS3_ENS_10_Select1stESt8equal_toIjESt4hashIjENS_18_Mod_range_hashingENS_20_Default_ranged_hashENS_20_Prime_rehash_policyENS_17_Hashtable_traitsILb0ELb0ELb1EEELb1EEixERS2_
_ZNKSt10_HashtableIN4wasm4NameESt4pairIKS1_NS0_16I64ToI32Lowering7TempVarEESaIS6_ENSt8__detail10_Select1stESt8equal_toIS1_ESt4hashIS1_ENS8_18_Mod_range_hashingENS8_20_Default_ranged_hashENS8_20_Prime_rehash_policyENS8_17_Hashtable_traitsILb1ELb0ELb1EEEE19_M_find_before_nodeEmRS3_m
_ZNSt10_HashtableIN4wasm4NameESt4pairIKS1_NS0_16I64ToI32Lowering7TempVarEESaIS6_ENSt8__detail10_Select1stESt8equal_toIS1_ESt4hashIS1_ENS8_18_Mod_range_hashingENS8_20_Default_ranged_hashENS8_20_Prime_rehash_policyENS8_17_Hashtable_traitsILb1ELb0ELb1EEEE4findERS3_
_ZN4wasm16I64ToI32Lowering13visitFunctionEPNS_8FunctionE
_ZN4wasm5Names11ensureNamesEPNS_8FunctionE
_ZNK4wasm8Function12hasLocalNameEj
_ZNSt6vectorIN4wasm6WalkerINS0_16I64ToI32LoweringENS0_7VisitorIS2_vEEE4TaskESaIS6_EE17_M_realloc_insertIJRPFvPS2_PPNS0_10ExpressionEERSD_EEEvN9__gnu_cxx17__normal_iteratorIPS6_S8_EEDpOT_
_ZNSt6vectorIN4wasm6WalkerINS0_16I64ToI32LoweringENS0_7VisitorIS2_vEEE4TaskESaIS6_EE12emplace_backIJRPFvPS2_PPNS0_10ExpressionEERSD_EEEvDpOT_
_ZN4wasm6WalkerINS_16I64ToI32LoweringENS_7VisitorIS1_vEEE8pushTaskEPFvPS1_PPNS_10ExpressionEES8_
_ZN4wasm10WalkerPassINS_10PostWalkerINS_16I64ToI32LoweringENS_7VisitorIS2_vEEEEE11runFunctionEPNS_10PassRunnerEPNS_6ModuleEPNS_8FunctionE
_ZN4wasm8Function12getLocalNameEj
_ZN4wasm10PostWalkerINS_16I64ToI32LoweringENS_7VisitorIS1_vEEE4scanEPS1_PPNS_10ExpressionE
_ZN4wasm10WalkerPassINS_10PostWalkerINS_16I64ToI32LoweringENS_7VisitorIS2_vEEEEE3runEPNS_10PassRunnerEPNS_6ModuleE
_ZN4wasm6WalkerINS_16I64ToI32LoweringENS_7VisitorIS1_vEEE13doVisitSelectEPS1_PPNS_10ExpressionE
_ZN4wasm6WalkerINS_16I64ToI32LoweringENS_7VisitorIS1_vEEE13doVisitBinaryEPS1_PPNS_10ExpressionE
_ZN4wasm6WalkerINS_16I64ToI32LoweringENS_7VisitorIS1_vEEE12doVisitUnaryEPS1_PPNS_10ExpressionE
_ZN4wasm6WalkerINS_16I64ToI32LoweringENS_7VisitorIS1_vEEE12doVisitConstEPS1_PPNS_10ExpressionE
_ZN4wasm6WalkerINS_16I64ToI32LoweringENS_7VisitorIS1_vEEE11doVisitCallEPS1_PPNS_10ExpressionE
_ZN4wasm6WalkerINS_16I64ToI32LoweringENS_7VisitorIS1_vEEE13doVisitSwitchEPS1_PPNS_10ExpressionE
_ZN4wasm6WalkerINS_16I64ToI32LoweringENS_7VisitorIS1_vEEE11doVisitLoopEPS1_PPNS_10ExpressionE
_ZN4wasm6WalkerINS_16I64ToI32LoweringENS_7VisitorIS1_vEEE9doVisitIfEPS1_PPNS_10ExpressionE
_ZN4wasm6WalkerINS_16I64ToI32LoweringENS_7VisitorIS1_vEEE12doVisitBlockEPS1_PPNS_10ExpressionE
_ZN4wasm6WalkerINS_16I64ToI32LoweringENS_7VisitorIS1_vEEE12doVisitBreakEPS1_PPNS_10ExpressionE
_ZN4wasm6WalkerINS_16I64ToI32LoweringENS_7VisitorIS1_vEEE11doVisitLoadEPS1_PPNS_10ExpressionE
_ZN4wasm6WalkerINS_16I64ToI32LoweringENS_7VisitorIS1_vEEE15doVisitGetLocalEPS1_PPNS_10ExpressionE
_ZN4wasm6WalkerINS_16I64ToI32LoweringENS_7VisitorIS1_vEEE19doVisitCallIndirectEPS1_PPNS_10ExpressionE
_ZN4wasm6WalkerINS_16I64ToI32LoweringENS_7VisitorIS1_vEEE15doVisitSetLocalEPS1_PPNS_10ExpressionE
_ZNSt10_HashtableIN4wasm4NameESt4pairIKS1_NS0_16I64ToI32Lowering7TempVarEESaIS6_ENSt8__detail10_Select1stESt8equal_toIS1_ESt4hashIS1_ENS8_18_Mod_range_hashingENS8_20_Default_ranged_hashENS8_20_Prime_rehash_policyENS8_17_Hashtable_traitsILb1ELb0ELb1EEEE9_M_rehashEmRKm
_ZNSt10_HashtableIN4wasm4NameESt4pairIKS1_NS0_16I64ToI32Lowering7TempVarEESaIS6_ENSt8__detail10_Select1stESt8equal_toIS1_ESt4hashIS1_ENS8_18_Mod_range_hashingENS8_20_Default_ranged_hashENS8_20_Prime_rehash_policyENS8_17_Hashtable_traitsILb1ELb0ELb1EEEE10_M_emplaceIJRS1_S5_EEES2_INS8_14_Node_iteratorIS6_Lb0ELb1EEEbESt17integral_constantIbLb1EEDpOT_
_ZZN4wasm16I64ToI32Lowering11visitSwitchEPNS_6SwitchEENKUlNS_4NameEE_clES3_
_ZNSt10_HashtableIPN4wasm10ExpressionESt4pairIKS2_NS0_16I64ToI32Lowering7TempVarEESaIS7_ENSt8__detail10_Select1stESt8equal_toIS2_ESt4hashIS2_ENS9_18_Mod_range_hashingENS9_20_Default_ranged_hashENS9_20_Prime_rehash_policyENS9_17_Hashtable_traitsILb0ELb0ELb1EEEE9_M_rehashEmRKm
_ZNSt10_HashtableIPN4wasm10ExpressionESt4pairIKS2_NS0_16I64ToI32Lowering7TempVarEESaIS7_ENSt8__detail10_Select1stESt8equal_toIS2_ESt4hashIS2_ENS9_18_Mod_range_hashingENS9_20_Default_ranged_hashENS9_20_Prime_rehash_policyENS9_17_Hashtable_traitsILb0ELb0ELb1EEEE10_M_emplaceIJRS2_S6_EEES3_INS9_14_Node_iteratorIS7_Lb0ELb0EEEbESt17integral_constantIbLb1EEDpOT_
_ZN4wasm16I64ToI32Lowering8lowerMulEPNS_5BlockEONS0_7TempVarES4_S4_S4_
_ZN4wasm16I64ToI32Lowering8lowerShUENS_8BinaryOpEPNS_5BlockEONS0_7TempVarES5_S5_S5_
_ZN4wasm16I64ToI32Lowering11visitBinaryEPNS_6BinaryE
_ZTSN4wasm7VisitorINS_16I64ToI32LoweringEvEE
_ZTIN4wasm7VisitorINS_16I64ToI32LoweringEvEE
_ZTSN4wasm6WalkerINS_16I64ToI32LoweringENS_7VisitorIS1_vEEEE
_ZTIN4wasm6WalkerINS_16I64ToI32LoweringENS_7VisitorIS1_vEEEE
_ZTSN4wasm10PostWalkerINS_16I64ToI32LoweringENS_7VisitorIS1_vEEEE
_ZTIN4wasm10PostWalkerINS_16I64ToI32LoweringENS_7VisitorIS1_vEEEE
_ZTSN4wasm10WalkerPassINS_10PostWalkerINS_16I64ToI32LoweringENS_7VisitorIS2_vEEEEEE
_ZTIN4wasm10WalkerPassINS_10PostWalkerINS_16I64ToI32LoweringENS_7VisitorIS2_vEEEEEE
_ZTSN4wasm16I64ToI32LoweringE
_ZTIN4wasm16I64ToI32LoweringE
_ZTSZN4wasm16I64ToI32Lowering9visitCallEPNS_4CallEEUlRSt6vectorIPNS_10ExpressionESaIS5_EENS_8WasmTypeEE_
_ZTSZN4wasm16I64ToI32Lowering17visitCallIndirectEPNS_12CallIndirectEEUlRSt6vectorIPNS_10ExpressionESaIS5_EENS_8WasmTypeEE_
_ZN4wasm6WalkerINS_16InstrumentLocalsENS_7VisitorIS1_vEEE12doVisitBlockEPS1_PPNS_10ExpressionE
_ZN4wasm6WalkerINS_16InstrumentLocalsENS_7VisitorIS1_vEEE9doVisitIfEPS1_PPNS_10ExpressionE
_ZN4wasm6WalkerINS_16InstrumentLocalsENS_7VisitorIS1_vEEE11doVisitLoopEPS1_PPNS_10ExpressionE
_ZN4wasm6WalkerINS_16InstrumentLocalsENS_7VisitorIS1_vEEE12doVisitBreakEPS1_PPNS_10ExpressionE
_ZN4wasm6WalkerINS_16InstrumentLocalsENS_7VisitorIS1_vEEE13doVisitSwitchEPS1_PPNS_10ExpressionE
_ZN4wasm6WalkerINS_16InstrumentLocalsENS_7VisitorIS1_vEEE11doVisitCallEPS1_PPNS_10ExpressionE
_ZN4wasm6WalkerINS_16InstrumentLocalsENS_7VisitorIS1_vEEE17doVisitCallImportEPS1_PPNS_10ExpressionE
_ZN4wasm6WalkerINS_16InstrumentLocalsENS_7VisitorIS1_vEEE19doVisitCallIndirectEPS1_PPNS_10ExpressionE
_ZN4wasm6WalkerINS_16InstrumentLocalsENS_7VisitorIS1_vEEE16doVisitGetGlobalEPS1_PPNS_10ExpressionE
_ZN4wasm6WalkerINS_16InstrumentLocalsENS_7VisitorIS1_vEEE16doVisitSetGlobalEPS1_PPNS_10ExpressionE
_ZN4wasm6WalkerINS_16InstrumentLocalsENS_7VisitorIS1_vEEE11doVisitLoadEPS1_PPNS_10ExpressionE
_ZN4wasm6WalkerINS_16InstrumentLocalsENS_7VisitorIS1_vEEE12doVisitStoreEPS1_PPNS_10ExpressionE
_ZN4wasm6WalkerINS_16InstrumentLocalsENS_7VisitorIS1_vEEE16doVisitAtomicRMWEPS1_PPNS_10ExpressionE
_ZN4wasm6WalkerINS_16InstrumentLocalsENS_7VisitorIS1_vEEE20doVisitAtomicCmpxchgEPS1_PPNS_10ExpressionE
_ZN4wasm6WalkerINS_16InstrumentLocalsENS_7VisitorIS1_vEEE17doVisitAtomicWaitEPS1_PPNS_10ExpressionE
_ZN4wasm6WalkerINS_16InstrumentLocalsENS_7VisitorIS1_vEEE17doVisitAtomicWakeEPS1_PPNS_10ExpressionE
_ZN4wasm6WalkerINS_16InstrumentLocalsENS_7VisitorIS1_vEEE12doVisitConstEPS1_PPNS_10ExpressionE
_ZN4wasm6WalkerINS_16InstrumentLocalsENS_7VisitorIS1_vEEE12doVisitUnaryEPS1_PPNS_10ExpressionE
_ZN4wasm6WalkerINS_16InstrumentLocalsENS_7VisitorIS1_vEEE13doVisitBinaryEPS1_PPNS_10ExpressionE
_ZN4wasm6WalkerINS_16InstrumentLocalsENS_7VisitorIS1_vEEE13doVisitSelectEPS1_PPNS_10ExpressionE
_ZN4wasm6WalkerINS_16InstrumentLocalsENS_7VisitorIS1_vEEE11doVisitDropEPS1_PPNS_10ExpressionE
_ZN4wasm6WalkerINS_16InstrumentLocalsENS_7VisitorIS1_vEEE13doVisitReturnEPS1_PPNS_10ExpressionE
_ZN4wasm6WalkerINS_16InstrumentLocalsENS_7VisitorIS1_vEEE11doVisitHostEPS1_PPNS_10ExpressionE
_ZN4wasm6WalkerINS_16InstrumentLocalsENS_7VisitorIS1_vEEE10doVisitNopEPS1_PPNS_10ExpressionE
_ZN4wasm6WalkerINS_16InstrumentLocalsENS_7VisitorIS1_vEEE18doVisitUnreachableEPS1_PPNS_10ExpressionE
_ZN4wasm10WalkerPassINS_10PostWalkerINS_16InstrumentLocalsENS_7VisitorIS2_vEEEEED2Ev
_ZTVN4wasm10WalkerPassINS_10PostWalkerINS_16InstrumentLocalsENS_7VisitorIS2_vEEEEEE
_ZN4wasm10WalkerPassINS_10PostWalkerINS_16InstrumentLocalsENS_7VisitorIS2_vEEEEED1Ev
_ZN4wasm16InstrumentLocalsD2Ev
_ZN4wasm16InstrumentLocalsD1Ev
_ZN4wasm10WalkerPassINS_10PostWalkerINS_16InstrumentLocalsENS_7VisitorIS2_vEEEEED0Ev
_ZN4wasm16InstrumentLocalsD0Ev
_ZTVN4wasm16InstrumentLocalsE
_ZN4wasm6WalkerINS_16InstrumentLocalsENS_7VisitorIS1_vEEE15doVisitSetLocalEPS1_PPNS_10ExpressionE
_ZN4wasm7set_f64E
_ZN4wasm7set_f32E
_ZN4wasm7set_i32E
_ZN4wasm6WalkerINS_16InstrumentLocalsENS_7VisitorIS1_vEEE15doVisitGetLocalEPS1_PPNS_10ExpressionE
_ZN4wasm7get_f64E
_ZN4wasm7get_i32E
_ZN4wasm7get_f32E
_ZN4wasm16InstrumentLocals11visitModuleEPNS_6ModuleE
_ZN4wasm7get_i64E
_ZN4wasm7set_i64E
_ZNSt6vectorIN4wasm6WalkerINS0_16InstrumentLocalsENS0_7VisitorIS2_vEEE4TaskESaIS6_EE17_M_realloc_insertIJRPFvPS2_PPNS0_10ExpressionEERSD_EEEvN9__gnu_cxx17__normal_iteratorIPS6_S8_EEDpOT_
_ZNSt6vectorIN4wasm6WalkerINS0_16InstrumentLocalsENS0_7VisitorIS2_vEEE4TaskESaIS6_EE12emplace_backIJRPFvPS2_PPNS0_10ExpressionEERSD_EEEvDpOT_
_ZN4wasm10WalkerPassINS_10PostWalkerINS_16InstrumentLocalsENS_7VisitorIS2_vEEEEE11runFunctionEPNS_10PassRunnerEPNS_6ModuleEPNS_8FunctionE
_ZN4wasm10PostWalkerINS_16InstrumentLocalsENS_7VisitorIS1_vEEE4scanEPS1_PPNS_10ExpressionE
_ZN4wasm10WalkerPassINS_10PostWalkerINS_16InstrumentLocalsENS_7VisitorIS2_vEEEEE3runEPNS_10PassRunnerEPNS_6ModuleE
_ZTSN4wasm7VisitorINS_16InstrumentLocalsEvEE
_ZTIN4wasm7VisitorINS_16InstrumentLocalsEvEE
_ZTSN4wasm6WalkerINS_16InstrumentLocalsENS_7VisitorIS1_vEEEE
_ZTIN4wasm6WalkerINS_16InstrumentLocalsENS_7VisitorIS1_vEEEE
_ZTSN4wasm10PostWalkerINS_16InstrumentLocalsENS_7VisitorIS1_vEEEE
_ZTIN4wasm10PostWalkerINS_16InstrumentLocalsENS_7VisitorIS1_vEEEE
_ZTSN4wasm10WalkerPassINS_10PostWalkerINS_16InstrumentLocalsENS_7VisitorIS2_vEEEEEE
_ZTIN4wasm10WalkerPassINS_10PostWalkerINS_16InstrumentLocalsENS_7VisitorIS2_vEEEEEE
_ZTSN4wasm16InstrumentLocalsE
_ZTIN4wasm16InstrumentLocalsE
_ZN4wasm6WalkerINS_16InstrumentMemoryENS_7VisitorIS1_vEEE12doVisitBlockEPS1_PPNS_10ExpressionE
_ZN4wasm6WalkerINS_16InstrumentMemoryENS_7VisitorIS1_vEEE9doVisitIfEPS1_PPNS_10ExpressionE
_ZN4wasm6WalkerINS_16InstrumentMemoryENS_7VisitorIS1_vEEE11doVisitLoopEPS1_PPNS_10ExpressionE
_ZN4wasm6WalkerINS_16InstrumentMemoryENS_7VisitorIS1_vEEE12doVisitBreakEPS1_PPNS_10ExpressionE
_ZN4wasm6WalkerINS_16InstrumentMemoryENS_7VisitorIS1_vEEE13doVisitSwitchEPS1_PPNS_10ExpressionE
_ZN4wasm6WalkerINS_16InstrumentMemoryENS_7VisitorIS1_vEEE11doVisitCallEPS1_PPNS_10ExpressionE
_ZN4wasm6WalkerINS_16InstrumentMemoryENS_7VisitorIS1_vEEE17doVisitCallImportEPS1_PPNS_10ExpressionE
_ZN4wasm6WalkerINS_16InstrumentMemoryENS_7VisitorIS1_vEEE19doVisitCallIndirectEPS1_PPNS_10ExpressionE
_ZN4wasm6WalkerINS_16InstrumentMemoryENS_7VisitorIS1_vEEE15doVisitGetLocalEPS1_PPNS_10ExpressionE
_ZN4wasm6WalkerINS_16InstrumentMemoryENS_7VisitorIS1_vEEE15doVisitSetLocalEPS1_PPNS_10ExpressionE
_ZN4wasm6WalkerINS_16InstrumentMemoryENS_7VisitorIS1_vEEE16doVisitGetGlobalEPS1_PPNS_10ExpressionE
_ZN4wasm6WalkerINS_16InstrumentMemoryENS_7VisitorIS1_vEEE16doVisitSetGlobalEPS1_PPNS_10ExpressionE
_ZN4wasm6WalkerINS_16InstrumentMemoryENS_7VisitorIS1_vEEE16doVisitAtomicRMWEPS1_PPNS_10ExpressionE
_ZN4wasm6WalkerINS_16InstrumentMemoryENS_7VisitorIS1_vEEE20doVisitAtomicCmpxchgEPS1_PPNS_10ExpressionE
_ZN4wasm6WalkerINS_16InstrumentMemoryENS_7VisitorIS1_vEEE17doVisitAtomicWaitEPS1_PPNS_10ExpressionE
_ZN4wasm6WalkerINS_16InstrumentMemoryENS_7VisitorIS1_vEEE17doVisitAtomicWakeEPS1_PPNS_10ExpressionE
_ZN4wasm6WalkerINS_16InstrumentMemoryENS_7VisitorIS1_vEEE12doVisitConstEPS1_PPNS_10ExpressionE
_ZN4wasm6WalkerINS_16InstrumentMemoryENS_7VisitorIS1_vEEE12doVisitUnaryEPS1_PPNS_10ExpressionE
_ZN4wasm6WalkerINS_16InstrumentMemoryENS_7VisitorIS1_vEEE13doVisitBinaryEPS1_PPNS_10ExpressionE
_ZN4wasm6WalkerINS_16InstrumentMemoryENS_7VisitorIS1_vEEE13doVisitSelectEPS1_PPNS_10ExpressionE
_ZN4wasm6WalkerINS_16InstrumentMemoryENS_7VisitorIS1_vEEE11doVisitDropEPS1_PPNS_10ExpressionE
_ZN4wasm6WalkerINS_16InstrumentMemoryENS_7VisitorIS1_vEEE13doVisitReturnEPS1_PPNS_10ExpressionE
_ZN4wasm6WalkerINS_16InstrumentMemoryENS_7VisitorIS1_vEEE11doVisitHostEPS1_PPNS_10ExpressionE
_ZN4wasm6WalkerINS_16InstrumentMemoryENS_7VisitorIS1_vEEE10doVisitNopEPS1_PPNS_10ExpressionE
_ZN4wasm6WalkerINS_16InstrumentMemoryENS_7VisitorIS1_vEEE18doVisitUnreachableEPS1_PPNS_10ExpressionE
_ZN4wasm10WalkerPassINS_10PostWalkerINS_16InstrumentMemoryENS_7VisitorIS2_vEEEEED2Ev
_ZTVN4wasm10WalkerPassINS_10PostWalkerINS_16InstrumentMemoryENS_7VisitorIS2_vEEEEEE
_ZN4wasm10WalkerPassINS_10PostWalkerINS_16InstrumentMemoryENS_7VisitorIS2_vEEEEED1Ev
_ZN4wasm16InstrumentMemoryD2Ev
_ZN4wasm16InstrumentMemoryD1Ev
_ZN4wasm16InstrumentMemoryD0Ev
_ZN4wasm10WalkerPassINS_10PostWalkerINS_16InstrumentMemoryENS_7VisitorIS2_vEEEEED0Ev
_ZTVN4wasm16InstrumentMemoryE
_ZN4wasm6WalkerINS_16InstrumentMemoryENS_7VisitorIS1_vEEE12doVisitStoreEPS1_PPNS_10ExpressionE
_ZN4wasm5storeE
_ZN4wasm6WalkerINS_16InstrumentMemoryENS_7VisitorIS1_vEEE11doVisitLoadEPS1_PPNS_10ExpressionE
_ZN4wasm4loadE
_ZNSt6vectorIN4wasm6WalkerINS0_16InstrumentMemoryENS0_7VisitorIS2_vEEE4TaskESaIS6_EE17_M_realloc_insertIJRPFvPS2_PPNS0_10ExpressionEERSD_EEEvN9__gnu_cxx17__normal_iteratorIPS6_S8_EEDpOT_
_ZNSt6vectorIN4wasm6WalkerINS0_16InstrumentMemoryENS0_7VisitorIS2_vEEE4TaskESaIS6_EE12emplace_backIJRPFvPS2_PPNS0_10ExpressionEERSD_EEEvDpOT_
_ZN4wasm10WalkerPassINS_10PostWalkerINS_16InstrumentMemoryENS_7VisitorIS2_vEEEEE11runFunctionEPNS_10PassRunnerEPNS_6ModuleEPNS_8FunctionE
_ZN4wasm10PostWalkerINS_16InstrumentMemoryENS_7VisitorIS1_vEEE4scanEPS1_PPNS_10ExpressionE
_ZN4wasm10WalkerPassINS_10PostWalkerINS_16InstrumentMemoryENS_7VisitorIS2_vEEEEE3runEPNS_10PassRunnerEPNS_6ModuleE
_ZTSN4wasm7VisitorINS_16InstrumentMemoryEvEE
_ZTIN4wasm7VisitorINS_16InstrumentMemoryEvEE
_ZTSN4wasm6WalkerINS_16InstrumentMemoryENS_7VisitorIS1_vEEEE
_ZTIN4wasm6WalkerINS_16InstrumentMemoryENS_7VisitorIS1_vEEEE
_ZTSN4wasm10PostWalkerINS_16InstrumentMemoryENS_7VisitorIS1_vEEEE
_ZTIN4wasm10PostWalkerINS_16InstrumentMemoryENS_7VisitorIS1_vEEEE
_ZTSN4wasm10WalkerPassINS_10PostWalkerINS_16InstrumentMemoryENS_7VisitorIS2_vEEEEEE
_ZTIN4wasm10WalkerPassINS_10PostWalkerINS_16InstrumentMemoryENS_7VisitorIS2_vEEEEEE
_ZTSN4wasm16InstrumentMemoryE
_ZTIN4wasm16InstrumentMemoryE
_ZN4wasm13MemoryPackingD2Ev
_ZN4wasm13MemoryPackingD1Ev
_ZN4wasm13MemoryPackingD0Ev
_ZTVN4wasm13MemoryPackingE
_ZNSt6vectorIN4wasm6Memory7SegmentESaIS2_EE17_M_realloc_insertIJPNS0_5ConstEPcjEEEvN9__gnu_cxx17__normal_iteratorIPS2_S4_EEDpOT_
_ZNSt6vectorIN4wasm6Memory7SegmentESaIS2_EE17_M_realloc_insertIJRKS2_EEEvN9__gnu_cxx17__normal_iteratorIPS2_S4_EEDpOT_
_ZN4wasm13MemoryPacking3runEPNS_10PassRunnerEPNS_6ModuleE
_ZTSN4wasm13MemoryPackingE
_ZTIN4wasm13MemoryPackingE
_ZN4wasm11MergeBlocks18isFunctionParallelEv
_ZN4wasm6WalkerINS_13ProblemFinderENS_7VisitorIS1_vEEE11doVisitDropEPS1_PPNS_10ExpressionE
_ZN4wasm6WalkerINS_17BreakValueDropperENS_7VisitorIS1_vEEE11doVisitDropEPS1_PPNS_10ExpressionE
_ZN4wasm6WalkerINS_13ProblemFinderENS_7VisitorIS1_vEEE12doVisitBlockEPS1_PPNS_10ExpressionE
_ZN4wasm6WalkerINS_13ProblemFinderENS_7VisitorIS1_vEEE9doVisitIfEPS1_PPNS_10ExpressionE
_ZN4wasm6WalkerINS_13ProblemFinderENS_7VisitorIS1_vEEE11doVisitLoopEPS1_PPNS_10ExpressionE
_ZN4wasm6WalkerINS_13ProblemFinderENS_7VisitorIS1_vEEE11doVisitCallEPS1_PPNS_10ExpressionE
_ZN4wasm6WalkerINS_13ProblemFinderENS_7VisitorIS1_vEEE17doVisitCallImportEPS1_PPNS_10ExpressionE
_ZN4wasm6WalkerINS_13ProblemFinderENS_7VisitorIS1_vEEE19doVisitCallIndirectEPS1_PPNS_10ExpressionE
_ZN4wasm6WalkerINS_13ProblemFinderENS_7VisitorIS1_vEEE15doVisitGetLocalEPS1_PPNS_10ExpressionE
_ZN4wasm6WalkerINS_13ProblemFinderENS_7VisitorIS1_vEEE15doVisitSetLocalEPS1_PPNS_10ExpressionE
_ZN4wasm6WalkerINS_13ProblemFinderENS_7VisitorIS1_vEEE16doVisitGetGlobalEPS1_PPNS_10ExpressionE
_ZN4wasm6WalkerINS_13ProblemFinderENS_7VisitorIS1_vEEE16doVisitSetGlobalEPS1_PPNS_10ExpressionE
_ZN4wasm6WalkerINS_13ProblemFinderENS_7VisitorIS1_vEEE11doVisitLoadEPS1_PPNS_10ExpressionE
_ZN4wasm6WalkerINS_13ProblemFinderENS_7VisitorIS1_vEEE12doVisitStoreEPS1_PPNS_10ExpressionE
_ZN4wasm6WalkerINS_13ProblemFinderENS_7VisitorIS1_vEEE16doVisitAtomicRMWEPS1_PPNS_10ExpressionE
_ZN4wasm6WalkerINS_13ProblemFinderENS_7VisitorIS1_vEEE20doVisitAtomicCmpxchgEPS1_PPNS_10ExpressionE
_ZN4wasm6WalkerINS_13ProblemFinderENS_7VisitorIS1_vEEE17doVisitAtomicWaitEPS1_PPNS_10ExpressionE
_ZN4wasm6WalkerINS_13ProblemFinderENS_7VisitorIS1_vEEE17doVisitAtomicWakeEPS1_PPNS_10ExpressionE
_ZN4wasm6WalkerINS_13ProblemFinderENS_7VisitorIS1_vEEE12doVisitConstEPS1_PPNS_10ExpressionE
_ZN4wasm6WalkerINS_13ProblemFinderENS_7VisitorIS1_vEEE12doVisitUnaryEPS1_PPNS_10ExpressionE
_ZN4wasm6WalkerINS_13ProblemFinderENS_7VisitorIS1_vEEE13doVisitBinaryEPS1_PPNS_10ExpressionE
_ZN4wasm6WalkerINS_13ProblemFinderENS_7VisitorIS1_vEEE13doVisitSelectEPS1_PPNS_10ExpressionE
_ZN4wasm6WalkerINS_13ProblemFinderENS_7VisitorIS1_vEEE13doVisitReturnEPS1_PPNS_10ExpressionE
_ZN4wasm6WalkerINS_13ProblemFinderENS_7VisitorIS1_vEEE11doVisitHostEPS1_PPNS_10ExpressionE
_ZN4wasm6WalkerINS_13ProblemFinderENS_7VisitorIS1_vEEE10doVisitNopEPS1_PPNS_10ExpressionE
_ZN4wasm6WalkerINS_13ProblemFinderENS_7VisitorIS1_vEEE18doVisitUnreachableEPS1_PPNS_10ExpressionE
_ZN4wasm6WalkerINS_17BreakValueDropperENS_7VisitorIS1_vEEE9doVisitIfEPS1_PPNS_10ExpressionE
_ZN4wasm6WalkerINS_17BreakValueDropperENS_7VisitorIS1_vEEE11doVisitLoopEPS1_PPNS_10ExpressionE
_ZN4wasm6WalkerINS_17BreakValueDropperENS_7VisitorIS1_vEEE13doVisitSwitchEPS1_PPNS_10ExpressionE
_ZN4wasm6WalkerINS_17BreakValueDropperENS_7VisitorIS1_vEEE11doVisitCallEPS1_PPNS_10ExpressionE
_ZN4wasm6WalkerINS_17BreakValueDropperENS_7VisitorIS1_vEEE17doVisitCallImportEPS1_PPNS_10ExpressionE
_ZN4wasm6WalkerINS_17BreakValueDropperENS_7VisitorIS1_vEEE19doVisitCallIndirectEPS1_PPNS_10ExpressionE
_ZN4wasm6WalkerINS_17BreakValueDropperENS_7VisitorIS1_vEEE15doVisitGetLocalEPS1_PPNS_10ExpressionE
_ZN4wasm6WalkerINS_17BreakValueDropperENS_7VisitorIS1_vEEE15doVisitSetLocalEPS1_PPNS_10ExpressionE
_ZN4wasm6WalkerINS_17BreakValueDropperENS_7VisitorIS1_vEEE16doVisitGetGlobalEPS1_PPNS_10ExpressionE
_ZN4wasm6WalkerINS_17BreakValueDropperENS_7VisitorIS1_vEEE16doVisitSetGlobalEPS1_PPNS_10ExpressionE
_ZN4wasm6WalkerINS_17BreakValueDropperENS_7VisitorIS1_vEEE11doVisitLoadEPS1_PPNS_10ExpressionE
_ZN4wasm6WalkerINS_17BreakValueDropperENS_7VisitorIS1_vEEE12doVisitStoreEPS1_PPNS_10ExpressionE
_ZN4wasm6WalkerINS_17BreakValueDropperENS_7VisitorIS1_vEEE16doVisitAtomicRMWEPS1_PPNS_10ExpressionE
_ZN4wasm6WalkerINS_17BreakValueDropperENS_7VisitorIS1_vEEE20doVisitAtomicCmpxchgEPS1_PPNS_10ExpressionE
_ZN4wasm6WalkerINS_17BreakValueDropperENS_7VisitorIS1_vEEE17doVisitAtomicWaitEPS1_PPNS_10ExpressionE
_ZN4wasm6WalkerINS_17BreakValueDropperENS_7VisitorIS1_vEEE17doVisitAtomicWakeEPS1_PPNS_10ExpressionE
_ZN4wasm6WalkerINS_17BreakValueDropperENS_7VisitorIS1_vEEE12doVisitConstEPS1_PPNS_10ExpressionE
_ZN4wasm6WalkerINS_17BreakValueDropperENS_7VisitorIS1_vEEE12doVisitUnaryEPS1_PPNS_10ExpressionE
_ZN4wasm6WalkerINS_17BreakValueDropperENS_7VisitorIS1_vEEE13doVisitBinaryEPS1_PPNS_10ExpressionE
_ZN4wasm6WalkerINS_17BreakValueDropperENS_7VisitorIS1_vEEE13doVisitSelectEPS1_PPNS_10ExpressionE
_ZN4wasm6WalkerINS_17BreakValueDropperENS_7VisitorIS1_vEEE13doVisitReturnEPS1_PPNS_10ExpressionE
_ZN4wasm6WalkerINS_17BreakValueDropperENS_7VisitorIS1_vEEE11doVisitHostEPS1_PPNS_10ExpressionE
_ZN4wasm6WalkerINS_17BreakValueDropperENS_7VisitorIS1_vEEE10doVisitNopEPS1_PPNS_10ExpressionE
_ZN4wasm6WalkerINS_17BreakValueDropperENS_7VisitorIS1_vEEE18doVisitUnreachableEPS1_PPNS_10ExpressionE
_ZN4wasm6WalkerINS_11MergeBlocksENS_7VisitorIS1_vEEE9doVisitIfEPS1_PPNS_10ExpressionE
_ZN4wasm6WalkerINS_11MergeBlocksENS_7VisitorIS1_vEEE11doVisitLoopEPS1_PPNS_10ExpressionE
_ZN4wasm6WalkerINS_11MergeBlocksENS_7VisitorIS1_vEEE15doVisitGetLocalEPS1_PPNS_10ExpressionE
_ZN4wasm6WalkerINS_11MergeBlocksENS_7VisitorIS1_vEEE16doVisitGetGlobalEPS1_PPNS_10ExpressionE
_ZN4wasm6WalkerINS_11MergeBlocksENS_7VisitorIS1_vEEE16doVisitSetGlobalEPS1_PPNS_10ExpressionE
_ZN4wasm6WalkerINS_11MergeBlocksENS_7VisitorIS1_vEEE17doVisitAtomicWaitEPS1_PPNS_10ExpressionE
_ZN4wasm6WalkerINS_11MergeBlocksENS_7VisitorIS1_vEEE17doVisitAtomicWakeEPS1_PPNS_10ExpressionE
_ZN4wasm6WalkerINS_11MergeBlocksENS_7VisitorIS1_vEEE12doVisitConstEPS1_PPNS_10ExpressionE
_ZN4wasm6WalkerINS_11MergeBlocksENS_7VisitorIS1_vEEE11doVisitHostEPS1_PPNS_10ExpressionE
_ZN4wasm6WalkerINS_11MergeBlocksENS_7VisitorIS1_vEEE10doVisitNopEPS1_PPNS_10ExpressionE
_ZN4wasm6WalkerINS_11MergeBlocksENS_7VisitorIS1_vEEE18doVisitUnreachableEPS1_PPNS_10ExpressionE
_ZN4wasm11MergeBlocks6createEv
_ZTVN4wasm11MergeBlocksE
_ZN4wasm10WalkerPassINS_10PostWalkerINS_11MergeBlocksENS_7VisitorIS2_vEEEEED2Ev
_ZTVN4wasm10WalkerPassINS_10PostWalkerINS_11MergeBlocksENS_7VisitorIS2_vEEEEEE
_ZN4wasm10WalkerPassINS_10PostWalkerINS_11MergeBlocksENS_7VisitorIS2_vEEEEED1Ev
_ZN4wasm6WalkerINS_13ProblemFinderENS_7VisitorIS1_vEEE13doVisitSwitchEPS1_PPNS_10ExpressionE
_ZN4wasm11MergeBlocksD2Ev
_ZN4wasm11MergeBlocksD1Ev
_ZN4wasm11MergeBlocksD0Ev
_ZN4wasm10WalkerPassINS_10PostWalkerINS_11MergeBlocksENS_7VisitorIS2_vEEEEED0Ev
_ZN4wasm17ControlFlowWalkerINS_13ProblemFinderENS_7VisitorIS1_vEEE22doPostVisitControlFlowEPS1_PPNS_10ExpressionE
_ZN4wasm17ControlFlowWalkerINS_17BreakValueDropperENS_7VisitorIS1_vEEE22doPostVisitControlFlowEPS1_PPNS_10ExpressionE
_ZN4wasm17ControlFlowWalkerINS_13ProblemFinderENS_7VisitorIS1_vEEE21doPreVisitControlFlowEPS1_PPNS_10ExpressionE
_ZN4wasm17ControlFlowWalkerINS_17BreakValueDropperENS_7VisitorIS1_vEEE21doPreVisitControlFlowEPS1_PPNS_10ExpressionE
_ZN4wasm6WalkerINS_17BreakValueDropperENS_7VisitorIS1_vEEE12doVisitBreakEPS1_PPNS_10ExpressionE
_ZN4wasm14EffectAnalyzerC2ERNS_11PassOptionsEPNS_10ExpressionE
_ZN4wasm14EffectAnalyzerC1ERNS_11PassOptionsEPNS_10ExpressionE
_ZN4wasm6WalkerINS_13ProblemFinderENS_7VisitorIS1_vEEE12doVisitBreakEPS1_PPNS_10ExpressionE
_ZN4wasm11MergeBlocks10handleCallINS_4CallEEEvPT_
_ZN4wasm6WalkerINS_11MergeBlocksENS_7VisitorIS1_vEEE11doVisitCallEPS1_PPNS_10ExpressionE
_ZN4wasm11MergeBlocks10handleCallINS_10CallImportEEEvPT_
_ZN4wasm6WalkerINS_11MergeBlocksENS_7VisitorIS1_vEEE17doVisitCallImportEPS1_PPNS_10ExpressionE
_ZN4wasm11MergeBlocks8optimizeEPNS_10ExpressionERS2_PNS_5BlockEPS2_S6_
_ZN4wasm6WalkerINS_11MergeBlocksENS_7VisitorIS1_vEEE13doVisitReturnEPS1_PPNS_10ExpressionE
_ZN4wasm6WalkerINS_11MergeBlocksENS_7VisitorIS1_vEEE11doVisitDropEPS1_PPNS_10ExpressionE
_ZN4wasm6WalkerINS_11MergeBlocksENS_7VisitorIS1_vEEE13doVisitBinaryEPS1_PPNS_10ExpressionE
_ZN4wasm6WalkerINS_11MergeBlocksENS_7VisitorIS1_vEEE12doVisitUnaryEPS1_PPNS_10ExpressionE
_ZN4wasm6WalkerINS_11MergeBlocksENS_7VisitorIS1_vEEE16doVisitAtomicRMWEPS1_PPNS_10ExpressionE
_ZN4wasm6WalkerINS_11MergeBlocksENS_7VisitorIS1_vEEE12doVisitStoreEPS1_PPNS_10ExpressionE
_ZN4wasm6WalkerINS_11MergeBlocksENS_7VisitorIS1_vEEE11doVisitLoadEPS1_PPNS_10ExpressionE
_ZN4wasm6WalkerINS_11MergeBlocksENS_7VisitorIS1_vEEE15doVisitSetLocalEPS1_PPNS_10ExpressionE
_ZN4wasm6WalkerINS_11MergeBlocksENS_7VisitorIS1_vEEE13doVisitSwitchEPS1_PPNS_10ExpressionE
_ZN4wasm6WalkerINS_11MergeBlocksENS_7VisitorIS1_vEEE12doVisitBreakEPS1_PPNS_10ExpressionE
_ZN4wasm11MergeBlocks15optimizeTernaryEPNS_10ExpressionERS2_S3_S3_
_ZN4wasm6WalkerINS_11MergeBlocksENS_7VisitorIS1_vEEE13doVisitSelectEPS1_PPNS_10ExpressionE
_ZN4wasm6WalkerINS_11MergeBlocksENS_7VisitorIS1_vEEE20doVisitAtomicCmpxchgEPS1_PPNS_10ExpressionE
_ZN4wasm11MergeBlocks17visitCallIndirectEPNS_12CallIndirectE
_ZN4wasm6WalkerINS_11MergeBlocksENS_7VisitorIS1_vEEE19doVisitCallIndirectEPS1_PPNS_10ExpressionE
_ZNSt6vectorIN4wasm6WalkerINS0_13ProblemFinderENS0_7VisitorIS2_vEEE4TaskESaIS6_EE17_M_realloc_insertIJRPFvPS2_PPNS0_10ExpressionEERSD_EEEvN9__gnu_cxx17__normal_iteratorIPS6_S8_EEDpOT_
_ZNSt6vectorIN4wasm6WalkerINS0_13ProblemFinderENS0_7VisitorIS2_vEEE4TaskESaIS6_EE12emplace_backIJRPFvPS2_PPNS0_10ExpressionEERSD_EEEvDpOT_
_ZN4wasm10PostWalkerINS_13ProblemFinderENS_7VisitorIS1_vEEE4scanEPS1_PPNS_10ExpressionE
_ZN4wasm17ControlFlowWalkerINS_13ProblemFinderENS_7VisitorIS1_vEEE4scanEPS1_PPNS_10ExpressionE
_ZNSt6vectorIN4wasm6WalkerINS0_17BreakValueDropperENS0_7VisitorIS2_vEEE4TaskESaIS6_EE17_M_realloc_insertIJRPFvPS2_PPNS0_10ExpressionEERSD_EEEvN9__gnu_cxx17__normal_iteratorIPS6_S8_EEDpOT_
_ZNSt6vectorIN4wasm6WalkerINS0_17BreakValueDropperENS0_7VisitorIS2_vEEE4TaskESaIS6_EE12emplace_backIJRPFvPS2_PPNS0_10ExpressionEERSD_EEEvDpOT_
_ZN4wasm17ControlFlowWalkerINS_17BreakValueDropperENS_7VisitorIS1_vEEE4scanEPS1_PPNS_10ExpressionE
_ZN4wasm17BreakValueDropper10visitBlockEPNS_5BlockE
_ZN4wasm6WalkerINS_17BreakValueDropperENS_7VisitorIS1_vEEE12doVisitBlockEPS1_PPNS_10ExpressionE
_ZN4wasm6WalkerINS_11MergeBlocksENS_7VisitorIS1_vEEE12doVisitBlockEPS1_PPNS_10ExpressionE
_ZN4wasm10PostWalkerINS_17BreakValueDropperENS_7VisitorIS1_vEEE4scanEPS1_PPNS_10ExpressionE
_ZNSt6vectorIN4wasm6WalkerINS0_11MergeBlocksENS0_7VisitorIS2_vEEE4TaskESaIS6_EE17_M_realloc_insertIJRPFvPS2_PPNS0_10ExpressionEERSD_EEEvN9__gnu_cxx17__normal_iteratorIPS6_S8_EEDpOT_
_ZNSt6vectorIN4wasm6WalkerINS0_11MergeBlocksENS0_7VisitorIS2_vEEE4TaskESaIS6_EE12emplace_backIJRPFvPS2_PPNS0_10ExpressionEERSD_EEEvDpOT_
_ZN4wasm10WalkerPassINS_10PostWalkerINS_11MergeBlocksENS_7VisitorIS2_vEEEEE11runFunctionEPNS_10PassRunnerEPNS_6ModuleEPNS_8FunctionE
_ZN4wasm10PostWalkerINS_11MergeBlocksENS_7VisitorIS1_vEEE4scanEPS1_PPNS_10ExpressionE
_ZN4wasm10WalkerPassINS_10PostWalkerINS_11MergeBlocksENS_7VisitorIS2_vEEEEE3runEPNS_10PassRunnerEPNS_6ModuleE
_ZTSN4wasm7VisitorINS_11MergeBlocksEvEE
_ZTIN4wasm7VisitorINS_11MergeBlocksEvEE
_ZTSN4wasm6WalkerINS_11MergeBlocksENS_7VisitorIS1_vEEEE
_ZTIN4wasm6WalkerINS_11MergeBlocksENS_7VisitorIS1_vEEEE
_ZTSN4wasm10PostWalkerINS_11MergeBlocksENS_7VisitorIS1_vEEEE
_ZTIN4wasm10PostWalkerINS_11MergeBlocksENS_7VisitorIS1_vEEEE
_ZTSN4wasm10WalkerPassINS_10PostWalkerINS_11MergeBlocksENS_7VisitorIS2_vEEEEEE
_ZTIN4wasm10WalkerPassINS_10PostWalkerINS_11MergeBlocksENS_7VisitorIS2_vEEEEEE
_ZTSN4wasm11MergeBlocksE
_ZTIN4wasm11MergeBlocksE
_ZN4wasm10WalkerPassINS_10PostWalkerINS_7MetricsENS_24UnifiedExpressionVisitorIS2_vEEEEED2Ev
_ZTVN4wasm10WalkerPassINS_10PostWalkerINS_7MetricsENS_24UnifiedExpressionVisitorIS2_vEEEEEE
_ZN4wasm10WalkerPassINS_10PostWalkerINS_7MetricsENS_24UnifiedExpressionVisitorIS2_vEEEEED1Ev
_ZN4wasm10WalkerPassINS_10PostWalkerINS_7MetricsENS_24UnifiedExpressionVisitorIS2_vEEEEED0Ev
_ZTVN4wasm7MetricsE
_ZNSt6vectorIPKcSaIS1_EE17_M_realloc_insertIJRKS1_EEEvN9__gnu_cxx17__normal_iteratorIPS1_S3_EEDpOT_
_ZNSt6vectorIPKcSaIS1_EE12emplace_backIJS1_EEEvDpOT_
_ZNSt8_Rb_treeIPKcSt4pairIKS1_iESt10_Select1stIS4_ESt4lessIS1_ESaIS4_EE8_M_eraseEPSt13_Rb_tree_nodeIS4_E
_ZN4wasm7MetricsD2Ev
_ZN4wasm7MetricsD1Ev
_ZN4wasm7MetricsD0Ev
_ZNSt8_Rb_treeIPKcSt4pairIKS1_iESt10_Select1stIS4_ESt4lessIS1_ESaIS4_EE14_M_insert_nodeEPSt18_Rb_tree_node_baseSC_PSt13_Rb_tree_nodeIS4_E
_ZNSt8_Rb_treeIPKcSt4pairIKS1_iESt10_Select1stIS4_ESt4lessIS1_ESaIS4_EE24_M_get_insert_unique_posERS3_
_ZNSt8_Rb_treeIPKcSt4pairIKS1_iESt10_Select1stIS4_ESt4lessIS1_ESaIS4_EE29_M_get_insert_hint_unique_posESt23_Rb_tree_const_iteratorIS4_ERS3_
_ZNSt8_Rb_treeIPKcSt4pairIKS1_iESt10_Select1stIS4_ESt4lessIS1_ESaIS4_EE22_M_emplace_hint_uniqueIJRKSt21piecewise_construct_tSt5tupleIJRS3_EESF_IJEEEEESt17_Rb_tree_iteratorIS4_ESt23_Rb_tree_const_iteratorIS4_EDpOT_
_ZN4wasm6WalkerINS_7MetricsENS_24UnifiedExpressionVisitorIS1_vEEE16doVisitGetGlobalEPS1_PPNS_10ExpressionE
_ZN4wasm17getExpressionNameEPNS_10ExpressionE
_ZN4wasm6WalkerINS_7MetricsENS_24UnifiedExpressionVisitorIS1_vEEE16doVisitAtomicRMWEPS1_PPNS_10ExpressionE
_ZN4wasm6WalkerINS_7MetricsENS_24UnifiedExpressionVisitorIS1_vEEE18doVisitUnreachableEPS1_PPNS_10ExpressionE
_ZN4wasm6WalkerINS_7MetricsENS_24UnifiedExpressionVisitorIS1_vEEE13doVisitSelectEPS1_PPNS_10ExpressionE
_ZN4wasm6WalkerINS_7MetricsENS_24UnifiedExpressionVisitorIS1_vEEE12doVisitUnaryEPS1_PPNS_10ExpressionE
_ZN4wasm6WalkerINS_7MetricsENS_24UnifiedExpressionVisitorIS1_vEEE13doVisitBinaryEPS1_PPNS_10ExpressionE
_ZN4wasm6WalkerINS_7MetricsENS_24UnifiedExpressionVisitorIS1_vEEE20doVisitAtomicCmpxchgEPS1_PPNS_10ExpressionE
_ZN4wasm6WalkerINS_7MetricsENS_24UnifiedExpressionVisitorIS1_vEEE17doVisitAtomicWaitEPS1_PPNS_10ExpressionE
_ZN4wasm6WalkerINS_7MetricsENS_24UnifiedExpressionVisitorIS1_vEEE17doVisitAtomicWakeEPS1_PPNS_10ExpressionE
_ZN4wasm6WalkerINS_7MetricsENS_24UnifiedExpressionVisitorIS1_vEEE12doVisitConstEPS1_PPNS_10ExpressionE
_ZN4wasm6WalkerINS_7MetricsENS_24UnifiedExpressionVisitorIS1_vEEE13doVisitReturnEPS1_PPNS_10ExpressionE
_ZN4wasm6WalkerINS_7MetricsENS_24UnifiedExpressionVisitorIS1_vEEE11doVisitHostEPS1_PPNS_10ExpressionE
_ZN4wasm6WalkerINS_7MetricsENS_24UnifiedExpressionVisitorIS1_vEEE10doVisitNopEPS1_PPNS_10ExpressionE
_ZN4wasm6WalkerINS_7MetricsENS_24UnifiedExpressionVisitorIS1_vEEE11doVisitDropEPS1_PPNS_10ExpressionE
_ZN4wasm6WalkerINS_7MetricsENS_24UnifiedExpressionVisitorIS1_vEEE16doVisitSetGlobalEPS1_PPNS_10ExpressionE
_ZN4wasm6WalkerINS_7MetricsENS_24UnifiedExpressionVisitorIS1_vEEE12doVisitStoreEPS1_PPNS_10ExpressionE
_ZN4wasm6WalkerINS_7MetricsENS_24UnifiedExpressionVisitorIS1_vEEE19doVisitCallIndirectEPS1_PPNS_10ExpressionE
_ZN4wasm6WalkerINS_7MetricsENS_24UnifiedExpressionVisitorIS1_vEEE15doVisitGetLocalEPS1_PPNS_10ExpressionE
_ZN4wasm6WalkerINS_7MetricsENS_24UnifiedExpressionVisitorIS1_vEEE15doVisitSetLocalEPS1_PPNS_10ExpressionE
_ZN4wasm6WalkerINS_7MetricsENS_24UnifiedExpressionVisitorIS1_vEEE11doVisitLoadEPS1_PPNS_10ExpressionE
_ZN4wasm6WalkerINS_7MetricsENS_24UnifiedExpressionVisitorIS1_vEEE12doVisitBlockEPS1_PPNS_10ExpressionE
_ZN4wasm6WalkerINS_7MetricsENS_24UnifiedExpressionVisitorIS1_vEEE11doVisitLoopEPS1_PPNS_10ExpressionE
_ZN4wasm6WalkerINS_7MetricsENS_24UnifiedExpressionVisitorIS1_vEEE9doVisitIfEPS1_PPNS_10ExpressionE
_ZN4wasm6WalkerINS_7MetricsENS_24UnifiedExpressionVisitorIS1_vEEE17doVisitCallImportEPS1_PPNS_10ExpressionE
_ZN4wasm6WalkerINS_7MetricsENS_24UnifiedExpressionVisitorIS1_vEEE12doVisitBreakEPS1_PPNS_10ExpressionE
_ZN4wasm6WalkerINS_7MetricsENS_24UnifiedExpressionVisitorIS1_vEEE13doVisitSwitchEPS1_PPNS_10ExpressionE
_ZN4wasm6WalkerINS_7MetricsENS_24UnifiedExpressionVisitorIS1_vEEE11doVisitCallEPS1_PPNS_10ExpressionE
_ZSt25__unguarded_linear_insertIN9__gnu_cxx17__normal_iteratorIPPKcSt6vectorIS3_SaIS3_EEEENS0_5__ops14_Val_comp_iterIZN4wasm7Metrics11visitModuleEPNSB_6ModuleEEUlS3_S3_E_EEEvT_T0_
_ZSt16__insertion_sortIN9__gnu_cxx17__normal_iteratorIPPKcSt6vectorIS3_SaIS3_EEEENS0_5__ops15_Iter_comp_iterIZN4wasm7Metrics11visitModuleEPNSB_6ModuleEEUlS3_S3_E_EEEvT_SH_T0_
_ZSt13__adjust_heapIN9__gnu_cxx17__normal_iteratorIPPKcSt6vectorIS3_SaIS3_EEEElS3_NS0_5__ops15_Iter_comp_iterIZN4wasm7Metrics11visitModuleEPNSB_6ModuleEEUlS3_S3_E_EEEvT_T0_SI_T1_T2_
_ZSt16__introsort_loopIN9__gnu_cxx17__normal_iteratorIPPKcSt6vectorIS3_SaIS3_EEEElNS0_5__ops15_Iter_comp_iterIZN4wasm7Metrics11visitModuleEPNSB_6ModuleEEUlS3_S3_E_EEEvT_SH_T0_T1_
_ZN4wasm7Metrics11visitModuleEPNS_6ModuleE
_ZN4wasm7Metrics15lastMetricsPassE
_ZNSt6vectorIN4wasm6WalkerINS0_7MetricsENS0_24UnifiedExpressionVisitorIS2_vEEE4TaskESaIS6_EE17_M_realloc_insertIJRPFvPS2_PPNS0_10ExpressionEERSD_EEEvN9__gnu_cxx17__normal_iteratorIPS6_S8_EEDpOT_
_ZNSt6vectorIN4wasm6WalkerINS0_7MetricsENS0_24UnifiedExpressionVisitorIS2_vEEE4TaskESaIS6_EE12emplace_backIJRPFvPS2_PPNS0_10ExpressionEERSD_EEEvDpOT_
_ZN4wasm10WalkerPassINS_10PostWalkerINS_7MetricsENS_24UnifiedExpressionVisitorIS2_vEEEEE11runFunctionEPNS_10PassRunnerEPNS_6ModuleEPNS_8FunctionE
_ZN4wasm10PostWalkerINS_7MetricsENS_24UnifiedExpressionVisitorIS1_vEEE4scanEPS1_PPNS_10ExpressionE
_ZN4wasm10WalkerPassINS_10PostWalkerINS_7MetricsENS_24UnifiedExpressionVisitorIS2_vEEEEE3runEPNS_10PassRunnerEPNS_6ModuleE
_ZTSN4wasm7VisitorINS_7MetricsEvEE
_ZTIN4wasm7VisitorINS_7MetricsEvEE
_ZTSN4wasm24UnifiedExpressionVisitorINS_7MetricsEvEE
_ZTIN4wasm24UnifiedExpressionVisitorINS_7MetricsEvEE
_ZTSN4wasm6WalkerINS_7MetricsENS_24UnifiedExpressionVisitorIS1_vEEEE
_ZTIN4wasm6WalkerINS_7MetricsENS_24UnifiedExpressionVisitorIS1_vEEEE
_ZTSN4wasm10PostWalkerINS_7MetricsENS_24UnifiedExpressionVisitorIS1_vEEEE
_ZTIN4wasm10PostWalkerINS_7MetricsENS_24UnifiedExpressionVisitorIS1_vEEEE
_ZTSN4wasm10WalkerPassINS_10PostWalkerINS_7MetricsENS_24UnifiedExpressionVisitorIS2_vEEEEEE
_ZTIN4wasm10WalkerPassINS_10PostWalkerINS_7MetricsENS_24UnifiedExpressionVisitorIS2_vEEEEEE
_ZTSN4wasm7MetricsE
_ZTIN4wasm7MetricsE
_ZN4wasm8NameListD2Ev
_ZN4wasm8NameListD1Ev
_ZN4wasm8NameListD0Ev
_ZTVN4wasm8NameListE
_ZN4wasm8NameList3runEPNS_10PassRunnerEPNS_6ModuleE
_ZTSN4wasm8NameListE
_ZTIN4wasm8NameListE
_ZN4wasm20OptimizeInstructions18isFunctionParallelEv
_ZN4wasm20OptimizeInstructions12prepareToRunEPNS_10PassRunnerEPNS_6ModuleE
_ZN4wasm6WalkerIZNS_20OptimizeInstructions22optimizeAddedConstantsEPNS_6BinaryEE11ZeroRemoverNS_7VisitorIS4_vEEE12doVisitBlockEPS4_PPNS_10ExpressionE
_ZN4wasm6WalkerIZNS_20OptimizeInstructions22optimizeAddedConstantsEPNS_6BinaryEE11ZeroRemoverNS_7VisitorIS4_vEEE9doVisitIfEPS4_PPNS_10ExpressionE
_ZN4wasm6WalkerIZNS_20OptimizeInstructions22optimizeAddedConstantsEPNS_6BinaryEE11ZeroRemoverNS_7VisitorIS4_vEEE11doVisitLoopEPS4_PPNS_10ExpressionE
_ZN4wasm6WalkerIZNS_20OptimizeInstructions22optimizeAddedConstantsEPNS_6BinaryEE11ZeroRemoverNS_7VisitorIS4_vEEE12doVisitBreakEPS4_PPNS_10ExpressionE
_ZN4wasm6WalkerIZNS_20OptimizeInstructions22optimizeAddedConstantsEPNS_6BinaryEE11ZeroRemoverNS_7VisitorIS4_vEEE13doVisitSwitchEPS4_PPNS_10ExpressionE
_ZN4wasm6WalkerIZNS_20OptimizeInstructions22optimizeAddedConstantsEPNS_6BinaryEE11ZeroRemoverNS_7VisitorIS4_vEEE11doVisitCallEPS4_PPNS_10ExpressionE
_ZN4wasm6WalkerIZNS_20OptimizeInstructions22optimizeAddedConstantsEPNS_6BinaryEE11ZeroRemoverNS_7VisitorIS4_vEEE17doVisitCallImportEPS4_PPNS_10ExpressionE
_ZN4wasm6WalkerIZNS_20OptimizeInstructions22optimizeAddedConstantsEPNS_6BinaryEE11ZeroRemoverNS_7VisitorIS4_vEEE19doVisitCallIndirectEPS4_PPNS_10ExpressionE
_ZN4wasm6WalkerIZNS_20OptimizeInstructions22optimizeAddedConstantsEPNS_6BinaryEE11ZeroRemoverNS_7VisitorIS4_vEEE15doVisitGetLocalEPS4_PPNS_10ExpressionE
_ZN4wasm6WalkerIZNS_20OptimizeInstructions22optimizeAddedConstantsEPNS_6BinaryEE11ZeroRemoverNS_7VisitorIS4_vEEE15doVisitSetLocalEPS4_PPNS_10ExpressionE
_ZN4wasm6WalkerIZNS_20OptimizeInstructions22optimizeAddedConstantsEPNS_6BinaryEE11ZeroRemoverNS_7VisitorIS4_vEEE16doVisitGetGlobalEPS4_PPNS_10ExpressionE
_ZN4wasm6WalkerIZNS_20OptimizeInstructions22optimizeAddedConstantsEPNS_6BinaryEE11ZeroRemoverNS_7VisitorIS4_vEEE16doVisitSetGlobalEPS4_PPNS_10ExpressionE
_ZN4wasm6WalkerIZNS_20OptimizeInstructions22optimizeAddedConstantsEPNS_6BinaryEE11ZeroRemoverNS_7VisitorIS4_vEEE11doVisitLoadEPS4_PPNS_10ExpressionE
_ZN4wasm6WalkerIZNS_20OptimizeInstructions22optimizeAddedConstantsEPNS_6BinaryEE11ZeroRemoverNS_7VisitorIS4_vEEE12doVisitStoreEPS4_PPNS_10ExpressionE
_ZN4wasm6WalkerIZNS_20OptimizeInstructions22optimizeAddedConstantsEPNS_6BinaryEE11ZeroRemoverNS_7VisitorIS4_vEEE16doVisitAtomicRMWEPS4_PPNS_10ExpressionE
_ZN4wasm6WalkerIZNS_20OptimizeInstructions22optimizeAddedConstantsEPNS_6BinaryEE11ZeroRemoverNS_7VisitorIS4_vEEE20doVisitAtomicCmpxchgEPS4_PPNS_10ExpressionE
_ZN4wasm6WalkerIZNS_20OptimizeInstructions22optimizeAddedConstantsEPNS_6BinaryEE11ZeroRemoverNS_7VisitorIS4_vEEE17doVisitAtomicWaitEPS4_PPNS_10ExpressionE
_ZN4wasm6WalkerIZNS_20OptimizeInstructions22optimizeAddedConstantsEPNS_6BinaryEE11ZeroRemoverNS_7VisitorIS4_vEEE17doVisitAtomicWakeEPS4_PPNS_10ExpressionE
_ZN4wasm6WalkerIZNS_20OptimizeInstructions22optimizeAddedConstantsEPNS_6BinaryEE11ZeroRemoverNS_7VisitorIS4_vEEE12doVisitConstEPS4_PPNS_10ExpressionE
_ZN4wasm6WalkerIZNS_20OptimizeInstructions22optimizeAddedConstantsEPNS_6BinaryEE11ZeroRemoverNS_7VisitorIS4_vEEE12doVisitUnaryEPS4_PPNS_10ExpressionE
_ZN4wasm6WalkerIZNS_20OptimizeInstructions22optimizeAddedConstantsEPNS_6BinaryEE11ZeroRemoverNS_7VisitorIS4_vEEE13doVisitSelectEPS4_PPNS_10ExpressionE
_ZN4wasm6WalkerIZNS_20OptimizeInstructions22optimizeAddedConstantsEPNS_6BinaryEE11ZeroRemoverNS_7VisitorIS4_vEEE11doVisitDropEPS4_PPNS_10ExpressionE
_ZN4wasm6WalkerIZNS_20OptimizeInstructions22optimizeAddedConstantsEPNS_6BinaryEE11ZeroRemoverNS_7VisitorIS4_vEEE13doVisitReturnEPS4_PPNS_10ExpressionE
_ZN4wasm6WalkerIZNS_20OptimizeInstructions22optimizeAddedConstantsEPNS_6BinaryEE11ZeroRemoverNS_7VisitorIS4_vEEE11doVisitHostEPS4_PPNS_10ExpressionE
_ZN4wasm6WalkerIZNS_20OptimizeInstructions22optimizeAddedConstantsEPNS_6BinaryEE11ZeroRemoverNS_7VisitorIS4_vEEE10doVisitNopEPS4_PPNS_10ExpressionE
_ZN4wasm6WalkerIZNS_20OptimizeInstructions22optimizeAddedConstantsEPNS_6BinaryEE11ZeroRemoverNS_7VisitorIS4_vEEE18doVisitUnreachableEPS4_PPNS_10ExpressionE
_ZN4wasm6WalkerINS_12LocalScannerENS_7VisitorIS1_vEEE12doVisitBlockEPS1_PPNS_10ExpressionE
_ZN4wasm6WalkerINS_12LocalScannerENS_7VisitorIS1_vEEE9doVisitIfEPS1_PPNS_10ExpressionE
_ZN4wasm6WalkerINS_12LocalScannerENS_7VisitorIS1_vEEE11doVisitLoopEPS1_PPNS_10ExpressionE
_ZN4wasm6WalkerINS_12LocalScannerENS_7VisitorIS1_vEEE12doVisitBreakEPS1_PPNS_10ExpressionE
_ZN4wasm6WalkerINS_12LocalScannerENS_7VisitorIS1_vEEE13doVisitSwitchEPS1_PPNS_10ExpressionE
_ZN4wasm6WalkerINS_12LocalScannerENS_7VisitorIS1_vEEE11doVisitCallEPS1_PPNS_10ExpressionE
_ZN4wasm6WalkerINS_12LocalScannerENS_7VisitorIS1_vEEE17doVisitCallImportEPS1_PPNS_10ExpressionE
_ZN4wasm6WalkerINS_12LocalScannerENS_7VisitorIS1_vEEE19doVisitCallIndirectEPS1_PPNS_10ExpressionE
_ZN4wasm6WalkerINS_12LocalScannerENS_7VisitorIS1_vEEE15doVisitGetLocalEPS1_PPNS_10ExpressionE
_ZN4wasm6WalkerINS_12LocalScannerENS_7VisitorIS1_vEEE16doVisitGetGlobalEPS1_PPNS_10ExpressionE
_ZN4wasm6WalkerINS_12LocalScannerENS_7VisitorIS1_vEEE16doVisitSetGlobalEPS1_PPNS_10ExpressionE
_ZN4wasm6WalkerINS_12LocalScannerENS_7VisitorIS1_vEEE11doVisitLoadEPS1_PPNS_10ExpressionE
_ZN4wasm6WalkerINS_12LocalScannerENS_7VisitorIS1_vEEE12doVisitStoreEPS1_PPNS_10ExpressionE
_ZN4wasm6WalkerINS_12LocalScannerENS_7VisitorIS1_vEEE16doVisitAtomicRMWEPS1_PPNS_10ExpressionE
_ZN4wasm6WalkerINS_12LocalScannerENS_7VisitorIS1_vEEE20doVisitAtomicCmpxchgEPS1_PPNS_10ExpressionE
_ZN4wasm6WalkerINS_12LocalScannerENS_7VisitorIS1_vEEE17doVisitAtomicWaitEPS1_PPNS_10ExpressionE
_ZN4wasm6WalkerINS_12LocalScannerENS_7VisitorIS1_vEEE17doVisitAtomicWakeEPS1_PPNS_10ExpressionE
_ZN4wasm6WalkerINS_12LocalScannerENS_7VisitorIS1_vEEE12doVisitConstEPS1_PPNS_10ExpressionE
_ZN4wasm6WalkerINS_12LocalScannerENS_7VisitorIS1_vEEE12doVisitUnaryEPS1_PPNS_10ExpressionE
_ZN4wasm6WalkerINS_12LocalScannerENS_7VisitorIS1_vEEE13doVisitBinaryEPS1_PPNS_10ExpressionE
_ZN4wasm6WalkerINS_12LocalScannerENS_7VisitorIS1_vEEE13doVisitSelectEPS1_PPNS_10ExpressionE
_ZN4wasm6WalkerINS_12LocalScannerENS_7VisitorIS1_vEEE11doVisitDropEPS1_PPNS_10ExpressionE
_ZN4wasm6WalkerINS_12LocalScannerENS_7VisitorIS1_vEEE13doVisitReturnEPS1_PPNS_10ExpressionE
_ZN4wasm6WalkerINS_12LocalScannerENS_7VisitorIS1_vEEE11doVisitHostEPS1_PPNS_10ExpressionE
_ZN4wasm6WalkerINS_12LocalScannerENS_7VisitorIS1_vEEE10doVisitNopEPS1_PPNS_10ExpressionE
_ZN4wasm6WalkerINS_12LocalScannerENS_7VisitorIS1_vEEE18doVisitUnreachableEPS1_PPNS_10ExpressionE
_ZN4wasm20OptimizeInstructions6createEv
_ZTVN4wasm20OptimizeInstructionsE
_ZN4wasm10WalkerPassINS_10PostWalkerINS_20OptimizeInstructionsENS_24UnifiedExpressionVisitorIS2_vEEEEED2Ev
_ZTVN4wasm10WalkerPassINS_10PostWalkerINS_20OptimizeInstructionsENS_24UnifiedExpressionVisitorIS2_vEEEEEE
_ZN4wasm10WalkerPassINS_10PostWalkerINS_20OptimizeInstructionsENS_24UnifiedExpressionVisitorIS2_vEEEEED1Ev
_ZNSt14_Function_base13_Base_managerIZN4wasm20OptimizeInstructions22optimizeAddedConstantsEPNS1_6BinaryEEUlPNS1_10ExpressionEiE_E10_M_managerERSt9_Any_dataRKS9_St18_Manager_operation
_ZTIZN4wasm20OptimizeInstructions22optimizeAddedConstantsEPNS_6BinaryEEUlPNS_10ExpressionEiE_
_ZN4wasm20OptimizeInstructionsD2Ev
_ZN4wasm20OptimizeInstructionsD1Ev
_ZN4wasm10WalkerPassINS_10PostWalkerINS_20OptimizeInstructionsENS_24UnifiedExpressionVisitorIS2_vEEEEED0Ev
_ZN4wasm20OptimizeInstructionsD0Ev
_ZN4wasm4Bits18getEffectiveShiftsEPNS_10ExpressionE
_ZN4wasm10Properties14getSignExtBitsEPNS_10ExpressionE
_ZN4wasm14getFallthroughEPNS_10ExpressionE
_ZN4wasm7VisitorINS_12CostAnalyzerEjE5visitEPNS_10ExpressionE
_ZN4wasm10getMaxBitsINS_12LocalScannerEEEjPNS_10ExpressionEPT_
_ZN4wasm6WalkerINS_12LocalScannerENS_7VisitorIS1_vEEE15doVisitSetLocalEPS1_PPNS_10ExpressionE
_ZN4wasm10getMaxBitsINS_20OptimizeInstructionsEEEjPNS_10ExpressionEPT_
_ZN4wasm14EffectAnalyzer11invalidatesERS0_
_ZNSt6vectorIN4wasm9LocalInfoESaIS1_EE17_M_default_appendEm
_ZNSt6vectorIPN4wasm5ConstESaIS2_EE17_M_realloc_insertIJRKS2_EEEvN9__gnu_cxx17__normal_iteratorIPS2_S4_EEDpOT_
_ZNSt17_Function_handlerIFvPN4wasm10ExpressionEiEZNS0_20OptimizeInstructions22optimizeAddedConstantsEPNS0_6BinaryEEUlS2_iE_E9_M_invokeERKSt9_Any_dataOS2_Oi
_ZN4wasm4Pow2Ej
_ZN4wasm20OptimizeInstructions11makeZeroExtEPNS_10ExpressionEi
_ZN4wasm20OptimizeInstructions15optimizeBooleanEPNS_10ExpressionE
_ZZN4wasm20OptimizeInstructions22optimizeAddedConstantsEPNS_6BinaryEEN11ZeroRemover11visitBinaryES2_
_ZN4wasm6WalkerIZNS_20OptimizeInstructions22optimizeAddedConstantsEPNS_6BinaryEE11ZeroRemoverNS_7VisitorIS4_vEEE13doVisitBinaryEPS4_PPNS_10ExpressionE
_ZNSt6vectorIN4wasm6WalkerIZNS0_20OptimizeInstructions22optimizeAddedConstantsEPNS0_6BinaryEE11ZeroRemoverNS0_7VisitorIS5_vEEE4TaskESaIS9_EE17_M_realloc_insertIJRPFvPS5_PPNS0_10ExpressionEERSG_EEEvN9__gnu_cxx17__normal_iteratorIPS9_SB_EEDpOT_
_ZNSt6vectorIN4wasm6WalkerIZNS0_20OptimizeInstructions22optimizeAddedConstantsEPNS0_6BinaryEE11ZeroRemoverNS0_7VisitorIS5_vEEE4TaskESaIS9_EE12emplace_backIJRPFvPS5_PPNS0_10ExpressionEERSG_EEEvDpOT_
_ZN4wasm6WalkerIZNS_20OptimizeInstructions22optimizeAddedConstantsEPNS_6BinaryEE11ZeroRemoverNS_7VisitorIS4_vEEE8pushTaskEPFvPS4_PPNS_10ExpressionEESB_
_ZN4wasm20OptimizeInstructions12handOptimizeEPNS_10ExpressionE
_ZN4wasm8PopCountIjEEiT_
_ZN4wasm10PostWalkerIZNS_20OptimizeInstructions22optimizeAddedConstantsEPNS_6BinaryEE11ZeroRemoverNS_7VisitorIS4_vEEE4scanEPS4_PPNS_10ExpressionE
_ZN4wasm5Unary12isRelationalEv
_ZN4wasm6Binary12isRelationalEv
_ZN4wasm18CountLeadingZeroesIjEEiT_
_ZN4wasm6WalkerINS_20OptimizeInstructionsENS_24UnifiedExpressionVisitorIS1_vEEE18doVisitUnreachableEPS1_PPNS_10ExpressionE
_ZN4wasm6WalkerINS_20OptimizeInstructionsENS_24UnifiedExpressionVisitorIS1_vEEE10doVisitNopEPS1_PPNS_10ExpressionE
_ZN4wasm6WalkerINS_20OptimizeInstructionsENS_24UnifiedExpressionVisitorIS1_vEEE11doVisitHostEPS1_PPNS_10ExpressionE
_ZN4wasm6WalkerINS_20OptimizeInstructionsENS_24UnifiedExpressionVisitorIS1_vEEE13doVisitReturnEPS1_PPNS_10ExpressionE
_ZN4wasm6WalkerINS_20OptimizeInstructionsENS_24UnifiedExpressionVisitorIS1_vEEE11doVisitDropEPS1_PPNS_10ExpressionE
_ZN4wasm6WalkerINS_20OptimizeInstructionsENS_24UnifiedExpressionVisitorIS1_vEEE13doVisitSelectEPS1_PPNS_10ExpressionE
_ZN4wasm6WalkerINS_20OptimizeInstructionsENS_24UnifiedExpressionVisitorIS1_vEEE13doVisitBinaryEPS1_PPNS_10ExpressionE
_ZN4wasm6WalkerINS_20OptimizeInstructionsENS_24UnifiedExpressionVisitorIS1_vEEE12doVisitUnaryEPS1_PPNS_10ExpressionE
_ZN4wasm6WalkerINS_20OptimizeInstructionsENS_24UnifiedExpressionVisitorIS1_vEEE12doVisitConstEPS1_PPNS_10ExpressionE
_ZN4wasm6WalkerINS_20OptimizeInstructionsENS_24UnifiedExpressionVisitorIS1_vEEE17doVisitAtomicWakeEPS1_PPNS_10ExpressionE
_ZN4wasm6WalkerINS_20OptimizeInstructionsENS_24UnifiedExpressionVisitorIS1_vEEE17doVisitAtomicWaitEPS1_PPNS_10ExpressionE
_ZN4wasm6WalkerINS_20OptimizeInstructionsENS_24UnifiedExpressionVisitorIS1_vEEE20doVisitAtomicCmpxchgEPS1_PPNS_10ExpressionE
_ZN4wasm6WalkerINS_20OptimizeInstructionsENS_24UnifiedExpressionVisitorIS1_vEEE16doVisitAtomicRMWEPS1_PPNS_10ExpressionE
_ZN4wasm6WalkerINS_20OptimizeInstructionsENS_24UnifiedExpressionVisitorIS1_vEEE12doVisitStoreEPS1_PPNS_10ExpressionE
_ZN4wasm6WalkerINS_20OptimizeInstructionsENS_24UnifiedExpressionVisitorIS1_vEEE11doVisitLoadEPS1_PPNS_10ExpressionE
_ZN4wasm6WalkerINS_20OptimizeInstructionsENS_24UnifiedExpressionVisitorIS1_vEEE16doVisitSetGlobalEPS1_PPNS_10ExpressionE
_ZN4wasm6WalkerINS_20OptimizeInstructionsENS_24UnifiedExpressionVisitorIS1_vEEE16doVisitGetGlobalEPS1_PPNS_10ExpressionE
_ZN4wasm6WalkerINS_20OptimizeInstructionsENS_24UnifiedExpressionVisitorIS1_vEEE15doVisitSetLocalEPS1_PPNS_10ExpressionE
_ZN4wasm6WalkerINS_20OptimizeInstructionsENS_24UnifiedExpressionVisitorIS1_vEEE15doVisitGetLocalEPS1_PPNS_10ExpressionE
_ZN4wasm6WalkerINS_20OptimizeInstructionsENS_24UnifiedExpressionVisitorIS1_vEEE19doVisitCallIndirectEPS1_PPNS_10ExpressionE
_ZN4wasm6WalkerINS_20OptimizeInstructionsENS_24UnifiedExpressionVisitorIS1_vEEE17doVisitCallImportEPS1_PPNS_10ExpressionE
_ZN4wasm6WalkerINS_20OptimizeInstructionsENS_24UnifiedExpressionVisitorIS1_vEEE11doVisitCallEPS1_PPNS_10ExpressionE
_ZN4wasm6WalkerINS_20OptimizeInstructionsENS_24UnifiedExpressionVisitorIS1_vEEE13doVisitSwitchEPS1_PPNS_10ExpressionE
_ZN4wasm6WalkerINS_20OptimizeInstructionsENS_24UnifiedExpressionVisitorIS1_vEEE12doVisitBreakEPS1_PPNS_10ExpressionE
_ZN4wasm6WalkerINS_20OptimizeInstructionsENS_24UnifiedExpressionVisitorIS1_vEEE11doVisitLoopEPS1_PPNS_10ExpressionE
_ZN4wasm6WalkerINS_20OptimizeInstructionsENS_24UnifiedExpressionVisitorIS1_vEEE9doVisitIfEPS1_PPNS_10ExpressionE
_ZN4wasm6WalkerINS_20OptimizeInstructionsENS_24UnifiedExpressionVisitorIS1_vEEE12doVisitBlockEPS1_PPNS_10ExpressionE
_ZNSt6vectorIN4wasm6WalkerINS0_12LocalScannerENS0_7VisitorIS2_vEEE4TaskESaIS6_EE17_M_realloc_insertIJRPFvPS2_PPNS0_10ExpressionEERSD_EEEvN9__gnu_cxx17__normal_iteratorIPS6_S8_EEDpOT_
_ZNSt6vectorIN4wasm6WalkerINS0_12LocalScannerENS0_7VisitorIS2_vEEE4TaskESaIS6_EE12emplace_backIJRPFvPS2_PPNS0_10ExpressionEERSD_EEEvDpOT_
_ZN4wasm6WalkerINS_12LocalScannerENS_7VisitorIS1_vEEE8pushTaskEPFvPS1_PPNS_10ExpressionEES8_
_ZN4wasm10PostWalkerINS_12LocalScannerENS_7VisitorIS1_vEEE4scanEPS1_PPNS_10ExpressionE
_ZNSt6vectorIN4wasm6WalkerINS0_20OptimizeInstructionsENS0_24UnifiedExpressionVisitorIS2_vEEE4TaskESaIS6_EE17_M_realloc_insertIJRPFvPS2_PPNS0_10ExpressionEERSD_EEEvN9__gnu_cxx17__normal_iteratorIPS6_S8_EEDpOT_
_ZNSt6vectorIN4wasm6WalkerINS0_20OptimizeInstructionsENS0_24UnifiedExpressionVisitorIS2_vEEE4TaskESaIS6_EE12emplace_backIJRPFvPS2_PPNS0_10ExpressionEERSD_EEEvDpOT_
_ZN4wasm6WalkerINS_20OptimizeInstructionsENS_24UnifiedExpressionVisitorIS1_vEEE8pushTaskEPFvPS1_PPNS_10ExpressionEES8_
_ZN4wasm10WalkerPassINS_10PostWalkerINS_20OptimizeInstructionsENS_24UnifiedExpressionVisitorIS2_vEEEEE11runFunctionEPNS_10PassRunnerEPNS_6ModuleEPNS_8FunctionE
_ZN4wasm10PostWalkerINS_20OptimizeInstructionsENS_24UnifiedExpressionVisitorIS1_vEEE4scanEPS1_PPNS_10ExpressionE
_ZN4wasm10WalkerPassINS_10PostWalkerINS_20OptimizeInstructionsENS_24UnifiedExpressionVisitorIS2_vEEEEE3runEPNS_10PassRunnerEPNS_6ModuleE
_ZN4wasm8I32_EXPRE
_ZN4wasm8I64_EXPRE
_ZN4wasm8F32_EXPRE
_ZN4wasm8F64_EXPRE
_ZN4wasm8ANY_EXPRE
_ZTSN4wasm7VisitorINS_20OptimizeInstructionsEvEE
_ZTIN4wasm7VisitorINS_20OptimizeInstructionsEvEE
_ZTSN4wasm24UnifiedExpressionVisitorINS_20OptimizeInstructionsEvEE
_ZTIN4wasm24UnifiedExpressionVisitorINS_20OptimizeInstructionsEvEE
_ZTSN4wasm6WalkerINS_20OptimizeInstructionsENS_24UnifiedExpressionVisitorIS1_vEEEE
_ZTIN4wasm6WalkerINS_20OptimizeInstructionsENS_24UnifiedExpressionVisitorIS1_vEEEE
_ZTSN4wasm10PostWalkerINS_20OptimizeInstructionsENS_24UnifiedExpressionVisitorIS1_vEEEE
_ZTIN4wasm10PostWalkerINS_20OptimizeInstructionsENS_24UnifiedExpressionVisitorIS1_vEEEE
_ZTSN4wasm10WalkerPassINS_10PostWalkerINS_20OptimizeInstructionsENS_24UnifiedExpressionVisitorIS2_vEEEEEE
_ZTIN4wasm10WalkerPassINS_10PostWalkerINS_20OptimizeInstructionsENS_24UnifiedExpressionVisitorIS2_vEEEEEE
_ZTSN4wasm20OptimizeInstructionsE
_ZTIN4wasm20OptimizeInstructionsE
_ZTSZN4wasm20OptimizeInstructions22optimizeAddedConstantsEPNS_6BinaryEEUlPNS_10ExpressionEiE_
_ZN4wasm13PickLoadSigns18isFunctionParallelEv
_ZN4wasm13PickLoadSigns6createEv
_ZTVN4wasm13PickLoadSignsE
_ZN4wasm10WalkerPassINS_21ExpressionStackWalkerINS_13PickLoadSignsENS_7VisitorIS2_vEEEEED2Ev
_ZTVN4wasm10WalkerPassINS_21ExpressionStackWalkerINS_13PickLoadSignsENS_7VisitorIS2_vEEEEEE
_ZN4wasm10WalkerPassINS_21ExpressionStackWalkerINS_13PickLoadSignsENS_7VisitorIS2_vEEEEED1Ev
_ZN4wasm6WalkerINS_13PickLoadSignsENS_7VisitorIS1_vEEE12doVisitBlockEPS1_PPNS_10ExpressionE
_ZN4wasm6WalkerINS_13PickLoadSignsENS_7VisitorIS1_vEEE9doVisitIfEPS1_PPNS_10ExpressionE
_ZN4wasm6WalkerINS_13PickLoadSignsENS_7VisitorIS1_vEEE11doVisitLoopEPS1_PPNS_10ExpressionE
_ZN4wasm6WalkerINS_13PickLoadSignsENS_7VisitorIS1_vEEE12doVisitBreakEPS1_PPNS_10ExpressionE
_ZN4wasm6WalkerINS_13PickLoadSignsENS_7VisitorIS1_vEEE13doVisitSwitchEPS1_PPNS_10ExpressionE
_ZN4wasm6WalkerINS_13PickLoadSignsENS_7VisitorIS1_vEEE11doVisitCallEPS1_PPNS_10ExpressionE
_ZN4wasm6WalkerINS_13PickLoadSignsENS_7VisitorIS1_vEEE17doVisitCallImportEPS1_PPNS_10ExpressionE
_ZN4wasm6WalkerINS_13PickLoadSignsENS_7VisitorIS1_vEEE19doVisitCallIndirectEPS1_PPNS_10ExpressionE
_ZN4wasm6WalkerINS_13PickLoadSignsENS_7VisitorIS1_vEEE16doVisitGetGlobalEPS1_PPNS_10ExpressionE
_ZN4wasm6WalkerINS_13PickLoadSignsENS_7VisitorIS1_vEEE16doVisitSetGlobalEPS1_PPNS_10ExpressionE
_ZN4wasm6WalkerINS_13PickLoadSignsENS_7VisitorIS1_vEEE11doVisitLoadEPS1_PPNS_10ExpressionE
_ZN4wasm6WalkerINS_13PickLoadSignsENS_7VisitorIS1_vEEE12doVisitStoreEPS1_PPNS_10ExpressionE
_ZN4wasm6WalkerINS_13PickLoadSignsENS_7VisitorIS1_vEEE16doVisitAtomicRMWEPS1_PPNS_10ExpressionE
_ZN4wasm6WalkerINS_13PickLoadSignsENS_7VisitorIS1_vEEE20doVisitAtomicCmpxchgEPS1_PPNS_10ExpressionE
_ZN4wasm6WalkerINS_13PickLoadSignsENS_7VisitorIS1_vEEE17doVisitAtomicWaitEPS1_PPNS_10ExpressionE
_ZN4wasm6WalkerINS_13PickLoadSignsENS_7VisitorIS1_vEEE17doVisitAtomicWakeEPS1_PPNS_10ExpressionE
_ZN4wasm6WalkerINS_13PickLoadSignsENS_7VisitorIS1_vEEE12doVisitConstEPS1_PPNS_10ExpressionE
_ZN4wasm6WalkerINS_13PickLoadSignsENS_7VisitorIS1_vEEE12doVisitUnaryEPS1_PPNS_10ExpressionE
_ZN4wasm6WalkerINS_13PickLoadSignsENS_7VisitorIS1_vEEE13doVisitBinaryEPS1_PPNS_10ExpressionE
_ZN4wasm6WalkerINS_13PickLoadSignsENS_7VisitorIS1_vEEE13doVisitSelectEPS1_PPNS_10ExpressionE
_ZN4wasm6WalkerINS_13PickLoadSignsENS_7VisitorIS1_vEEE11doVisitDropEPS1_PPNS_10ExpressionE
_ZN4wasm6WalkerINS_13PickLoadSignsENS_7VisitorIS1_vEEE13doVisitReturnEPS1_PPNS_10ExpressionE
_ZN4wasm6WalkerINS_13PickLoadSignsENS_7VisitorIS1_vEEE11doVisitHostEPS1_PPNS_10ExpressionE
_ZN4wasm6WalkerINS_13PickLoadSignsENS_7VisitorIS1_vEEE10doVisitNopEPS1_PPNS_10ExpressionE
_ZN4wasm6WalkerINS_13PickLoadSignsENS_7VisitorIS1_vEEE18doVisitUnreachableEPS1_PPNS_10ExpressionE
_ZN4wasm10WalkerPassINS_21ExpressionStackWalkerINS_13PickLoadSignsENS_7VisitorIS2_vEEEEED0Ev
_ZN4wasm13PickLoadSignsD2Ev
_ZN4wasm13PickLoadSignsD1Ev
_ZN4wasm13PickLoadSignsD0Ev
_ZN4wasm21ExpressionStackWalkerINS_13PickLoadSignsENS_7VisitorIS1_vEEE11doPostVisitEPS1_PPNS_10ExpressionE
_ZN4wasm6WalkerINS_13PickLoadSignsENS_7VisitorIS1_vEEE15doVisitGetLocalEPS1_PPNS_10ExpressionE
_ZNSt6vectorIN4wasm13PickLoadSigns5UsageESaIS2_EE17_M_default_appendEm
_ZNSt10_HashtableIPN4wasm4LoadESt4pairIKS2_jESaIS5_ENSt8__detail10_Select1stESt8equal_toIS2_ESt4hashIS2_ENS7_18_Mod_range_hashingENS7_20_Default_ranged_hashENS7_20_Prime_rehash_policyENS7_17_Hashtable_traitsILb0ELb0ELb1EEEE21_M_insert_unique_nodeEmmPNS7_10_Hash_nodeIS5_Lb0EEEm
_ZN4wasm6WalkerINS_13PickLoadSignsENS_7VisitorIS1_vEEE15doVisitSetLocalEPS1_PPNS_10ExpressionE
_ZNSt6vectorIN4wasm6WalkerINS0_13PickLoadSignsENS0_7VisitorIS2_vEEE4TaskESaIS6_EE17_M_realloc_insertIJRPFvPS2_PPNS0_10ExpressionEERSD_EEEvN9__gnu_cxx17__normal_iteratorIPS6_S8_EEDpOT_
_ZNSt6vectorIN4wasm6WalkerINS0_13PickLoadSignsENS0_7VisitorIS2_vEEE4TaskESaIS6_EE12emplace_backIJRPFvPS2_PPNS0_10ExpressionEERSD_EEEvDpOT_
_ZN4wasm10WalkerPassINS_21ExpressionStackWalkerINS_13PickLoadSignsENS_7VisitorIS2_vEEEEE11runFunctionEPNS_10PassRunnerEPNS_6ModuleEPNS_8FunctionE
_ZN4wasm21ExpressionStackWalkerINS_13PickLoadSignsENS_7VisitorIS1_vEEE4scanEPS1_PPNS_10ExpressionE
_ZN4wasm10WalkerPassINS_21ExpressionStackWalkerINS_13PickLoadSignsENS_7VisitorIS2_vEEEEE3runEPNS_10PassRunnerEPNS_6ModuleE
_ZN4wasm10PostWalkerINS_13PickLoadSignsENS_7VisitorIS1_vEEE4scanEPS1_PPNS_10ExpressionE
_ZN4wasm21ExpressionStackWalkerINS_13PickLoadSignsENS_7VisitorIS1_vEEE10doPreVisitEPS1_PPNS_10ExpressionE
_ZTSN4wasm7VisitorINS_13PickLoadSignsEvEE
_ZTIN4wasm7VisitorINS_13PickLoadSignsEvEE
_ZTSN4wasm6WalkerINS_13PickLoadSignsENS_7VisitorIS1_vEEEE
_ZTIN4wasm6WalkerINS_13PickLoadSignsENS_7VisitorIS1_vEEEE
_ZTSN4wasm10PostWalkerINS_13PickLoadSignsENS_7VisitorIS1_vEEEE
_ZTIN4wasm10PostWalkerINS_13PickLoadSignsENS_7VisitorIS1_vEEEE
_ZTSN4wasm21ExpressionStackWalkerINS_13PickLoadSignsENS_7VisitorIS1_vEEEE
_ZTIN4wasm21ExpressionStackWalkerINS_13PickLoadSignsENS_7VisitorIS1_vEEEE
_ZTSN4wasm10WalkerPassINS_21ExpressionStackWalkerINS_13PickLoadSignsENS_7VisitorIS2_vEEEEEE
_ZTIN4wasm10WalkerPassINS_21ExpressionStackWalkerINS_13PickLoadSignsENS_7VisitorIS2_vEEEEEE
_ZTSN4wasm13PickLoadSignsE
_ZTIN4wasm13PickLoadSignsE
_ZN4wasm14PostEmscripten18isFunctionParallelEv
_ZN4wasm14PostEmscripten6createEv
_ZTVN4wasm14PostEmscriptenE
_ZN4wasm6WalkerINS_14PostEmscriptenENS_7VisitorIS1_vEEE12doVisitBlockEPS1_PPNS_10ExpressionE
_ZN4wasm6WalkerINS_14PostEmscriptenENS_7VisitorIS1_vEEE9doVisitIfEPS1_PPNS_10ExpressionE
_ZN4wasm6WalkerINS_14PostEmscriptenENS_7VisitorIS1_vEEE11doVisitLoopEPS1_PPNS_10ExpressionE
_ZN4wasm6WalkerINS_14PostEmscriptenENS_7VisitorIS1_vEEE12doVisitBreakEPS1_PPNS_10ExpressionE
_ZN4wasm6WalkerINS_14PostEmscriptenENS_7VisitorIS1_vEEE13doVisitSwitchEPS1_PPNS_10ExpressionE
_ZN4wasm6WalkerINS_14PostEmscriptenENS_7VisitorIS1_vEEE11doVisitCallEPS1_PPNS_10ExpressionE
_ZN4wasm6WalkerINS_14PostEmscriptenENS_7VisitorIS1_vEEE19doVisitCallIndirectEPS1_PPNS_10ExpressionE
_ZN4wasm6WalkerINS_14PostEmscriptenENS_7VisitorIS1_vEEE15doVisitGetLocalEPS1_PPNS_10ExpressionE
_ZN4wasm6WalkerINS_14PostEmscriptenENS_7VisitorIS1_vEEE15doVisitSetLocalEPS1_PPNS_10ExpressionE
_ZN4wasm6WalkerINS_14PostEmscriptenENS_7VisitorIS1_vEEE16doVisitGetGlobalEPS1_PPNS_10ExpressionE
_ZN4wasm6WalkerINS_14PostEmscriptenENS_7VisitorIS1_vEEE16doVisitSetGlobalEPS1_PPNS_10ExpressionE
_ZN4wasm6WalkerINS_14PostEmscriptenENS_7VisitorIS1_vEEE16doVisitAtomicRMWEPS1_PPNS_10ExpressionE
_ZN4wasm6WalkerINS_14PostEmscriptenENS_7VisitorIS1_vEEE20doVisitAtomicCmpxchgEPS1_PPNS_10ExpressionE
_ZN4wasm6WalkerINS_14PostEmscriptenENS_7VisitorIS1_vEEE17doVisitAtomicWaitEPS1_PPNS_10ExpressionE
_ZN4wasm6WalkerINS_14PostEmscriptenENS_7VisitorIS1_vEEE17doVisitAtomicWakeEPS1_PPNS_10ExpressionE
_ZN4wasm6WalkerINS_14PostEmscriptenENS_7VisitorIS1_vEEE12doVisitConstEPS1_PPNS_10ExpressionE
_ZN4wasm6WalkerINS_14PostEmscriptenENS_7VisitorIS1_vEEE12doVisitUnaryEPS1_PPNS_10ExpressionE
_ZN4wasm6WalkerINS_14PostEmscriptenENS_7VisitorIS1_vEEE13doVisitBinaryEPS1_PPNS_10ExpressionE
_ZN4wasm6WalkerINS_14PostEmscriptenENS_7VisitorIS1_vEEE13doVisitSelectEPS1_PPNS_10ExpressionE
_ZN4wasm6WalkerINS_14PostEmscriptenENS_7VisitorIS1_vEEE11doVisitDropEPS1_PPNS_10ExpressionE
_ZN4wasm6WalkerINS_14PostEmscriptenENS_7VisitorIS1_vEEE13doVisitReturnEPS1_PPNS_10ExpressionE
_ZN4wasm6WalkerINS_14PostEmscriptenENS_7VisitorIS1_vEEE11doVisitHostEPS1_PPNS_10ExpressionE
_ZN4wasm6WalkerINS_14PostEmscriptenENS_7VisitorIS1_vEEE10doVisitNopEPS1_PPNS_10ExpressionE
_ZN4wasm6WalkerINS_14PostEmscriptenENS_7VisitorIS1_vEEE18doVisitUnreachableEPS1_PPNS_10ExpressionE
_ZN4wasm10WalkerPassINS_10PostWalkerINS_14PostEmscriptenENS_7VisitorIS2_vEEEEED2Ev
_ZTVN4wasm10WalkerPassINS_10PostWalkerINS_14PostEmscriptenENS_7VisitorIS2_vEEEEEE
_ZN4wasm10WalkerPassINS_10PostWalkerINS_14PostEmscriptenENS_7VisitorIS2_vEEEEED1Ev
_ZN4wasm6WalkerINS_14PostEmscriptenENS_7VisitorIS1_vEEE12doVisitStoreEPS1_PPNS_10ExpressionE
_ZN4wasm14PostEmscriptenD2Ev
_ZN4wasm14PostEmscriptenD1Ev
_ZN4wasm10WalkerPassINS_10PostWalkerINS_14PostEmscriptenENS_7VisitorIS2_vEEEEED0Ev
_ZN4wasm14PostEmscriptenD0Ev
_ZN4wasm6WalkerINS_14PostEmscriptenENS_7VisitorIS1_vEEE11doVisitLoadEPS1_PPNS_10ExpressionE
_ZN4wasm9LocalizerC2EPNS_10ExpressionEPNS_8FunctionEPNS_6ModuleE
_ZN4wasm9LocalizerC1EPNS_10ExpressionEPNS_8FunctionEPNS_6ModuleE
_ZN4wasm6WalkerINS_14PostEmscriptenENS_7VisitorIS1_vEEE17doVisitCallImportEPS1_PPNS_10ExpressionE
_ZNSt6vectorIN4wasm6WalkerINS0_14PostEmscriptenENS0_7VisitorIS2_vEEE4TaskESaIS6_EE17_M_realloc_insertIJRPFvPS2_PPNS0_10ExpressionEERSD_EEEvN9__gnu_cxx17__normal_iteratorIPS6_S8_EEDpOT_
_ZNSt6vectorIN4wasm6WalkerINS0_14PostEmscriptenENS0_7VisitorIS2_vEEE4TaskESaIS6_EE12emplace_backIJRPFvPS2_PPNS0_10ExpressionEERSD_EEEvDpOT_
_ZN4wasm10WalkerPassINS_10PostWalkerINS_14PostEmscriptenENS_7VisitorIS2_vEEEEE11runFunctionEPNS_10PassRunnerEPNS_6ModuleEPNS_8FunctionE
_ZN4wasm10PostWalkerINS_14PostEmscriptenENS_7VisitorIS1_vEEE4scanEPS1_PPNS_10ExpressionE
_ZN4wasm10WalkerPassINS_10PostWalkerINS_14PostEmscriptenENS_7VisitorIS2_vEEEEE3runEPNS_10PassRunnerEPNS_6ModuleE
_ZTSN4wasm7VisitorINS_14PostEmscriptenEvEE
_ZTIN4wasm7VisitorINS_14PostEmscriptenEvEE
_ZTSN4wasm6WalkerINS_14PostEmscriptenENS_7VisitorIS1_vEEEE
_ZTIN4wasm6WalkerINS_14PostEmscriptenENS_7VisitorIS1_vEEEE
_ZTSN4wasm10PostWalkerINS_14PostEmscriptenENS_7VisitorIS1_vEEEE
_ZTIN4wasm10PostWalkerINS_14PostEmscriptenENS_7VisitorIS1_vEEEE
_ZTSN4wasm10WalkerPassINS_10PostWalkerINS_14PostEmscriptenENS_7VisitorIS2_vEEEEEE
_ZTIN4wasm10WalkerPassINS_10PostWalkerINS_14PostEmscriptenENS_7VisitorIS2_vEEEEEE
_ZTSN4wasm14PostEmscriptenE
_ZTIN4wasm14PostEmscriptenE
_ZN4wasm10Precompute18isFunctionParallelEv
_ZN4wasm10Precompute6createEv
_ZTVN4wasm10PrecomputeE
_ZN4wasm10WalkerPassINS_10PostWalkerINS_10PrecomputeENS_24UnifiedExpressionVisitorIS2_vEEEEED2Ev
_ZTVN4wasm10WalkerPassINS_10PostWalkerINS_10PrecomputeENS_24UnifiedExpressionVisitorIS2_vEEEEEE
_ZN4wasm10WalkerPassINS_10PostWalkerINS_10PrecomputeENS_24UnifiedExpressionVisitorIS2_vEEEEED1Ev
_ZN4wasm26StandaloneExpressionRunner4trapEPKc
_ZTIN4wasm26StandaloneExpressionRunner22NonstandaloneExceptionE
_ZN4wasm10WalkerPassINS_10PostWalkerINS_10PrecomputeENS_24UnifiedExpressionVisitorIS2_vEEEEED0Ev
_ZNSt10_HashtableIPN4wasm8GetLocalESt4pairIKS2_NS0_7LiteralEESaIS6_ENSt8__detail10_Select1stESt8equal_toIS2_ESt4hashIS2_ENS8_18_Mod_range_hashingENS8_20_Default_ranged_hashENS8_20_Prime_rehash_policyENS8_17_Hashtable_traitsILb0ELb0ELb1EEEED2Ev
_ZNSt10_HashtableIPN4wasm8GetLocalESt4pairIKS2_NS0_7LiteralEESaIS6_ENSt8__detail10_Select1stESt8equal_toIS2_ESt4hashIS2_ENS8_18_Mod_range_hashingENS8_20_Default_ranged_hashENS8_20_Prime_rehash_policyENS8_17_Hashtable_traitsILb0ELb0ELb1EEEED1Ev
_ZN4wasm10PrecomputeD2Ev
_ZN4wasm10PrecomputeD1Ev
_ZN4wasm10PrecomputeD0Ev
_ZNSt10_HashtableIPN4wasm10ExpressionES2_SaIS2_ENSt8__detail9_IdentityESt8equal_toIS2_ESt4hashIS2_ENS4_18_Mod_range_hashingENS4_20_Default_ranged_hashENS4_20_Prime_rehash_policyENS4_17_Hashtable_traitsILb0ELb1ELb1EEEED2Ev
_ZNSt10_HashtableIPN4wasm10ExpressionES2_SaIS2_ENSt8__detail9_IdentityESt8equal_toIS2_ESt4hashIS2_ENS4_18_Mod_range_hashingENS4_20_Default_ranged_hashENS4_20_Prime_rehash_policyENS4_17_Hashtable_traitsILb0ELb1ELb1EEEED1Ev
_ZNSt10_HashtableIPN4wasm8SetLocalESt4pairIKS2_NS0_7LiteralEESaIS6_ENSt8__detail10_Select1stESt8equal_toIS2_ESt4hashIS2_ENS8_18_Mod_range_hashingENS8_20_Default_ranged_hashENS8_20_Prime_rehash_policyENS8_17_Hashtable_traitsILb0ELb0ELb1EEEED2Ev
_ZNSt10_HashtableIPN4wasm8SetLocalESt4pairIKS2_NS0_7LiteralEESaIS6_ENSt8__detail10_Select1stESt8equal_toIS2_ESt4hashIS2_ENS8_18_Mod_range_hashingENS8_20_Default_ranged_hashENS8_20_Prime_rehash_policyENS8_17_Hashtable_traitsILb0ELb0ELb1EEEED1Ev
_ZN4wasm16ExpressionRunnerINS_26StandaloneExpressionRunnerEE11truncSFloatEPNS_5UnaryENS_7LiteralE
_ZN4wasm16ExpressionRunnerINS_26StandaloneExpressionRunnerEE11truncUFloatEPNS_5UnaryENS_7LiteralE
_ZNSt10_HashtableIPN4wasm8SetLocalESt4pairIKS2_NS0_7LiteralEESaIS6_ENSt8__detail10_Select1stESt8equal_toIS2_ESt4hashIS2_ENS8_18_Mod_range_hashingENS8_20_Default_ranged_hashENS8_20_Prime_rehash_policyENS8_17_Hashtable_traitsILb0ELb0ELb1EEEE9_M_rehashEmRKm
_ZNSt8__detail9_Map_baseIPN4wasm8SetLocalESt4pairIKS3_NS1_7LiteralEESaIS7_ENS_10_Select1stESt8equal_toIS3_ESt4hashIS3_ENS_18_Mod_range_hashingENS_20_Default_ranged_hashENS_20_Prime_rehash_policyENS_17_Hashtable_traitsILb0ELb0ELb1EEELb1EEixERS5_
_ZNSt10_HashtableIPN4wasm8GetLocalESt4pairIKS2_NS0_7LiteralEESaIS6_ENSt8__detail10_Select1stESt8equal_toIS2_ESt4hashIS2_ENS8_18_Mod_range_hashingENS8_20_Default_ranged_hashENS8_20_Prime_rehash_policyENS8_17_Hashtable_traitsILb0ELb0ELb1EEEE9_M_rehashEmRKm
_ZNSt8__detail9_Map_baseIPN4wasm8GetLocalESt4pairIKS3_NS1_7LiteralEESaIS7_ENS_10_Select1stESt8equal_toIS3_ESt4hashIS3_ENS_18_Mod_range_hashingENS_20_Default_ranged_hashENS_20_Prime_rehash_policyENS_17_Hashtable_traitsILb0ELb0ELb1EEELb1EEixERS5_
_ZNSt6vectorIN4wasm6WalkerINS0_10PrecomputeENS0_24UnifiedExpressionVisitorIS2_vEEE4TaskESaIS6_EE17_M_realloc_insertIJRPFvPS2_PPNS0_10ExpressionEERSD_EEEvN9__gnu_cxx17__normal_iteratorIPS6_S8_EEDpOT_
_ZNSt6vectorIN4wasm6WalkerINS0_10PrecomputeENS0_24UnifiedExpressionVisitorIS2_vEEE4TaskESaIS6_EE12emplace_backIJRPFvPS2_PPNS0_10ExpressionEERSD_EEEvDpOT_
_ZN4wasm6WalkerINS_10PrecomputeENS_24UnifiedExpressionVisitorIS1_vEEE8pushTaskEPFvPS1_PPNS_10ExpressionEES8_
_ZN4wasm10PostWalkerINS_10PrecomputeENS_24UnifiedExpressionVisitorIS1_vEEE4scanEPS1_PPNS_10ExpressionE
_ZN4wasm6WalkerINS_10PrecomputeENS_24UnifiedExpressionVisitorIS1_vEEE17doVisitAtomicWaitEPS1_PPNS_10ExpressionE
_ZN4wasm6WalkerINS_10PrecomputeENS_24UnifiedExpressionVisitorIS1_vEEE16doVisitAtomicRMWEPS1_PPNS_10ExpressionE
_ZN4wasm6WalkerINS_10PrecomputeENS_24UnifiedExpressionVisitorIS1_vEEE20doVisitAtomicCmpxchgEPS1_PPNS_10ExpressionE
_ZN4wasm6WalkerINS_10PrecomputeENS_24UnifiedExpressionVisitorIS1_vEEE18doVisitUnreachableEPS1_PPNS_10ExpressionE
_ZN4wasm6WalkerINS_10PrecomputeENS_24UnifiedExpressionVisitorIS1_vEEE11doVisitDropEPS1_PPNS_10ExpressionE
_ZN4wasm6WalkerINS_10PrecomputeENS_24UnifiedExpressionVisitorIS1_vEEE13doVisitSelectEPS1_PPNS_10ExpressionE
_ZN4wasm6WalkerINS_10PrecomputeENS_24UnifiedExpressionVisitorIS1_vEEE13doVisitBinaryEPS1_PPNS_10ExpressionE
_ZN4wasm6WalkerINS_10PrecomputeENS_24UnifiedExpressionVisitorIS1_vEEE12doVisitUnaryEPS1_PPNS_10ExpressionE
_ZN4wasm6WalkerINS_10PrecomputeENS_24UnifiedExpressionVisitorIS1_vEEE11doVisitHostEPS1_PPNS_10ExpressionE
_ZN4wasm6WalkerINS_10PrecomputeENS_24UnifiedExpressionVisitorIS1_vEEE10doVisitNopEPS1_PPNS_10ExpressionE
_ZN4wasm6WalkerINS_10PrecomputeENS_24UnifiedExpressionVisitorIS1_vEEE13doVisitReturnEPS1_PPNS_10ExpressionE
_ZN4wasm6WalkerINS_10PrecomputeENS_24UnifiedExpressionVisitorIS1_vEEE12doVisitConstEPS1_PPNS_10ExpressionE
_ZN4wasm6WalkerINS_10PrecomputeENS_24UnifiedExpressionVisitorIS1_vEEE17doVisitCallImportEPS1_PPNS_10ExpressionE
_ZN4wasm6WalkerINS_10PrecomputeENS_24UnifiedExpressionVisitorIS1_vEEE11doVisitCallEPS1_PPNS_10ExpressionE
_ZN4wasm6WalkerINS_10PrecomputeENS_24UnifiedExpressionVisitorIS1_vEEE13doVisitSwitchEPS1_PPNS_10ExpressionE
_ZN4wasm6WalkerINS_10PrecomputeENS_24UnifiedExpressionVisitorIS1_vEEE16doVisitGetGlobalEPS1_PPNS_10ExpressionE
_ZN4wasm6WalkerINS_10PrecomputeENS_24UnifiedExpressionVisitorIS1_vEEE11doVisitLoopEPS1_PPNS_10ExpressionE
_ZN4wasm6WalkerINS_10PrecomputeENS_24UnifiedExpressionVisitorIS1_vEEE9doVisitIfEPS1_PPNS_10ExpressionE
_ZN4wasm6WalkerINS_10PrecomputeENS_24UnifiedExpressionVisitorIS1_vEEE12doVisitBlockEPS1_PPNS_10ExpressionE
_ZN4wasm6WalkerINS_10PrecomputeENS_24UnifiedExpressionVisitorIS1_vEEE17doVisitAtomicWakeEPS1_PPNS_10ExpressionE
_ZN4wasm6WalkerINS_10PrecomputeENS_24UnifiedExpressionVisitorIS1_vEEE12doVisitBreakEPS1_PPNS_10ExpressionE
_ZN4wasm6WalkerINS_10PrecomputeENS_24UnifiedExpressionVisitorIS1_vEEE11doVisitLoadEPS1_PPNS_10ExpressionE
_ZN4wasm6WalkerINS_10PrecomputeENS_24UnifiedExpressionVisitorIS1_vEEE16doVisitSetGlobalEPS1_PPNS_10ExpressionE
_ZN4wasm6WalkerINS_10PrecomputeENS_24UnifiedExpressionVisitorIS1_vEEE15doVisitGetLocalEPS1_PPNS_10ExpressionE
_ZN4wasm6WalkerINS_10PrecomputeENS_24UnifiedExpressionVisitorIS1_vEEE19doVisitCallIndirectEPS1_PPNS_10ExpressionE
_ZN4wasm6WalkerINS_10PrecomputeENS_24UnifiedExpressionVisitorIS1_vEEE15doVisitSetLocalEPS1_PPNS_10ExpressionE
_ZN4wasm6WalkerINS_10PrecomputeENS_24UnifiedExpressionVisitorIS1_vEEE12doVisitStoreEPS1_PPNS_10ExpressionE
_ZN4wasm16ExpressionRunnerINS_26StandaloneExpressionRunnerEE5visitEPNS_10ExpressionE
_ZNSo9_M_insertIPKvEERSoT_
_ZN4wasm16ExpressionRunnerINS_26StandaloneExpressionRunnerEE11visitBinaryEPNS_6BinaryE
_ZN4wasm16ExpressionRunnerINS_26StandaloneExpressionRunnerEE10visitUnaryEPNS_5UnaryE
_ZN4wasm10Precompute15visitExpressionEPNS_10ExpressionE
_ZTVN4wasm26StandaloneExpressionRunnerE
_ZNSt10_HashtableIPN4wasm10ExpressionES2_SaIS2_ENSt8__detail9_IdentityESt8equal_toIS2_ESt4hashIS2_ENS4_18_Mod_range_hashingENS4_20_Default_ranged_hashENS4_20_Prime_rehash_policyENS4_17_Hashtable_traitsILb0ELb1ELb1EEEE9_M_rehashEmRKm
_ZNSt10_HashtableIPN4wasm10ExpressionES2_SaIS2_ENSt8__detail9_IdentityESt8equal_toIS2_ESt4hashIS2_ENS4_18_Mod_range_hashingENS4_20_Default_ranged_hashENS4_20_Prime_rehash_policyENS4_17_Hashtable_traitsILb0ELb1ELb1EEEE21_M_insert_unique_nodeEmmPNS4_10_Hash_nodeIS2_Lb0EEEm
_ZNSt10_HashtableIPN4wasm10ExpressionES2_SaIS2_ENSt8__detail9_IdentityESt8equal_toIS2_ESt4hashIS2_ENS4_18_Mod_range_hashingENS4_20_Default_ranged_hashENS4_20_Prime_rehash_policyENS4_17_Hashtable_traitsILb0ELb1ELb1EEEE9_M_insertIS2_NS4_10_AllocNodeISaINS4_10_Hash_nodeIS2_Lb0EEEEEEEESt4pairINS4_14_Node_iteratorIS2_Lb1ELb0EEEbEOT_RKT0_St17integral_constantIbLb1EEm
_ZN4wasm10LocalGraphD2Ev
_ZN4wasm10LocalGraphD1Ev
_ZN4wasm10Precompute14optimizeLocalsEPNS_8FunctionEPNS_6ModuleE
_ZN4wasm10WalkerPassINS_10PostWalkerINS_10PrecomputeENS_24UnifiedExpressionVisitorIS2_vEEEEE11runFunctionEPNS_10PassRunnerEPNS_6ModuleEPNS_8FunctionE
_ZN4wasm10WalkerPassINS_10PostWalkerINS_10PrecomputeENS_24UnifiedExpressionVisitorIS2_vEEEEE3runEPNS_10PassRunnerEPNS_6ModuleE
_ZTSN4wasm7VisitorINS_10PrecomputeEvEE
_ZTIN4wasm7VisitorINS_10PrecomputeEvEE
_ZTSN4wasm24UnifiedExpressionVisitorINS_10PrecomputeEvEE
_ZTIN4wasm24UnifiedExpressionVisitorINS_10PrecomputeEvEE
_ZTSN4wasm6WalkerINS_10PrecomputeENS_24UnifiedExpressionVisitorIS1_vEEEE
_ZTIN4wasm6WalkerINS_10PrecomputeENS_24UnifiedExpressionVisitorIS1_vEEEE
_ZTSN4wasm7VisitorINS_26StandaloneExpressionRunnerENS_4FlowEEE
_ZTIN4wasm7VisitorINS_26StandaloneExpressionRunnerENS_4FlowEEE
_ZTSN4wasm10PostWalkerINS_10PrecomputeENS_24UnifiedExpressionVisitorIS1_vEEEE
_ZTIN4wasm10PostWalkerINS_10PrecomputeENS_24UnifiedExpressionVisitorIS1_vEEEE
_ZTSN4wasm16ExpressionRunnerINS_26StandaloneExpressionRunnerEEE
_ZTIN4wasm16ExpressionRunnerINS_26StandaloneExpressionRunnerEEE
_ZTSN4wasm26StandaloneExpressionRunnerE
_ZTIN4wasm26StandaloneExpressionRunnerE
_ZTSN4wasm26StandaloneExpressionRunner22NonstandaloneExceptionE
_ZTSN4wasm10WalkerPassINS_10PostWalkerINS_10PrecomputeENS_24UnifiedExpressionVisitorIS2_vEEEEEE
_ZTIN4wasm10WalkerPassINS_10PostWalkerINS_10PrecomputeENS_24UnifiedExpressionVisitorIS2_vEEEEEE
_ZTSN4wasm10PrecomputeE
_ZTIN4wasm10PrecomputeE
_ZN4wasm7PrinterD2Ev
_ZN4wasm7PrinterD1Ev
_ZN4wasm7PrinterD0Ev
_ZN4wasm15MinifiedPrinterD2Ev
_ZN4wasm15MinifiedPrinterD1Ev
_ZN4wasm15MinifiedPrinterD0Ev
_ZN4wasm11FullPrinterD2Ev
_ZN4wasm11FullPrinterD1Ev
_ZN4wasm11FullPrinterD0Ev
_Z12printOpeningRSoPKcb
_ZN4wasm16PrintSExpression9decIndentEv
_ZN4wasm16PrintSExpression9printNameENS_4NameE
strpbrk
_ZTVN4wasm15MinifiedPrinterE
_ZTVN4wasm11FullPrinterE
__errno_location
_ZSt24__throw_invalid_argumentPKc
_ZN4wasm7VisitorINS_16PrintSExpressionEvE5visitEPNS_10ExpressionE
_ZN4wasm16PrintSExpression13printFullLineEPNS_10ExpressionE
_ZN4wasm16PrintSExpression11visitBinaryEPNS_6BinaryE
_ZN4wasm16PrintSExpression10visitUnaryEPNS_5UnaryE
_ZN4wasm8Function21getLocalNameOrDefaultEj
_ZN4wasm16PrintSExpression10visitBlockEPNS_5BlockE
_ZN4wasm16PrintSExpression5visitEPNS_10ExpressionE
_ZN4wasm16PrintSExpression13visitFunctionEPNS_8FunctionE
_ZN4wasm16PrintSExpression11visitModuleEPNS_6ModuleE
_ZN4wasm7Printer3runEPNS_10PassRunnerEPNS_6ModuleE
_ZN4wasm15MinifiedPrinter3runEPNS_10PassRunnerEPNS_6ModuleE
_ZN4wasm11FullPrinter3runEPNS_10PassRunnerEPNS_6ModuleE
_ZTSN4wasm7PrinterE
_ZTIN4wasm7PrinterE
_ZTSN4wasm15MinifiedPrinterE
_ZTIN4wasm15MinifiedPrinterE
_ZTSN4wasm11FullPrinterE
_ZTIN4wasm11FullPrinterE
_ZN4wasm14PrintCallGraphD2Ev
_ZN4wasm14PrintCallGraphD1Ev
_ZN4wasm14PrintCallGraphD0Ev
_ZN4wasm6WalkerIZNS_14PrintCallGraph3runEPNS_10PassRunnerEPNS_6ModuleEE11CallPrinterNS_7VisitorIS6_vEEE12doVisitBlockEPS6_PPNS_10ExpressionE
_ZN4wasm6WalkerIZNS_14PrintCallGraph3runEPNS_10PassRunnerEPNS_6ModuleEE11CallPrinterNS_7VisitorIS6_vEEE9doVisitIfEPS6_PPNS_10ExpressionE
_ZN4wasm6WalkerIZNS_14PrintCallGraph3runEPNS_10PassRunnerEPNS_6ModuleEE11CallPrinterNS_7VisitorIS6_vEEE11doVisitLoopEPS6_PPNS_10ExpressionE
_ZN4wasm6WalkerIZNS_14PrintCallGraph3runEPNS_10PassRunnerEPNS_6ModuleEE11CallPrinterNS_7VisitorIS6_vEEE12doVisitBreakEPS6_PPNS_10ExpressionE
_ZN4wasm6WalkerIZNS_14PrintCallGraph3runEPNS_10PassRunnerEPNS_6ModuleEE11CallPrinterNS_7VisitorIS6_vEEE13doVisitSwitchEPS6_PPNS_10ExpressionE
_ZN4wasm6WalkerIZNS_14PrintCallGraph3runEPNS_10PassRunnerEPNS_6ModuleEE11CallPrinterNS_7VisitorIS6_vEEE19doVisitCallIndirectEPS6_PPNS_10ExpressionE
_ZN4wasm6WalkerIZNS_14PrintCallGraph3runEPNS_10PassRunnerEPNS_6ModuleEE11CallPrinterNS_7VisitorIS6_vEEE15doVisitGetLocalEPS6_PPNS_10ExpressionE
_ZN4wasm6WalkerIZNS_14PrintCallGraph3runEPNS_10PassRunnerEPNS_6ModuleEE11CallPrinterNS_7VisitorIS6_vEEE15doVisitSetLocalEPS6_PPNS_10ExpressionE
_ZN4wasm6WalkerIZNS_14PrintCallGraph3runEPNS_10PassRunnerEPNS_6ModuleEE11CallPrinterNS_7VisitorIS6_vEEE16doVisitGetGlobalEPS6_PPNS_10ExpressionE
_ZN4wasm6WalkerIZNS_14PrintCallGraph3runEPNS_10PassRunnerEPNS_6ModuleEE11CallPrinterNS_7VisitorIS6_vEEE16doVisitSetGlobalEPS6_PPNS_10ExpressionE
_ZN4wasm6WalkerIZNS_14PrintCallGraph3runEPNS_10PassRunnerEPNS_6ModuleEE11CallPrinterNS_7VisitorIS6_vEEE11doVisitLoadEPS6_PPNS_10ExpressionE
_ZN4wasm6WalkerIZNS_14PrintCallGraph3runEPNS_10PassRunnerEPNS_6ModuleEE11CallPrinterNS_7VisitorIS6_vEEE12doVisitStoreEPS6_PPNS_10ExpressionE
_ZN4wasm6WalkerIZNS_14PrintCallGraph3runEPNS_10PassRunnerEPNS_6ModuleEE11CallPrinterNS_7VisitorIS6_vEEE16doVisitAtomicRMWEPS6_PPNS_10ExpressionE
_ZN4wasm6WalkerIZNS_14PrintCallGraph3runEPNS_10PassRunnerEPNS_6ModuleEE11CallPrinterNS_7VisitorIS6_vEEE20doVisitAtomicCmpxchgEPS6_PPNS_10ExpressionE
_ZN4wasm6WalkerIZNS_14PrintCallGraph3runEPNS_10PassRunnerEPNS_6ModuleEE11CallPrinterNS_7VisitorIS6_vEEE17doVisitAtomicWaitEPS6_PPNS_10ExpressionE
_ZN4wasm6WalkerIZNS_14PrintCallGraph3runEPNS_10PassRunnerEPNS_6ModuleEE11CallPrinterNS_7VisitorIS6_vEEE17doVisitAtomicWakeEPS6_PPNS_10ExpressionE
_ZN4wasm6WalkerIZNS_14PrintCallGraph3runEPNS_10PassRunnerEPNS_6ModuleEE11CallPrinterNS_7VisitorIS6_vEEE12doVisitConstEPS6_PPNS_10ExpressionE
_ZN4wasm6WalkerIZNS_14PrintCallGraph3runEPNS_10PassRunnerEPNS_6ModuleEE11CallPrinterNS_7VisitorIS6_vEEE12doVisitUnaryEPS6_PPNS_10ExpressionE
_ZN4wasm6WalkerIZNS_14PrintCallGraph3runEPNS_10PassRunnerEPNS_6ModuleEE11CallPrinterNS_7VisitorIS6_vEEE13doVisitBinaryEPS6_PPNS_10ExpressionE
_ZN4wasm6WalkerIZNS_14PrintCallGraph3runEPNS_10PassRunnerEPNS_6ModuleEE11CallPrinterNS_7VisitorIS6_vEEE13doVisitSelectEPS6_PPNS_10ExpressionE
_ZN4wasm6WalkerIZNS_14PrintCallGraph3runEPNS_10PassRunnerEPNS_6ModuleEE11CallPrinterNS_7VisitorIS6_vEEE11doVisitDropEPS6_PPNS_10ExpressionE
_ZN4wasm6WalkerIZNS_14PrintCallGraph3runEPNS_10PassRunnerEPNS_6ModuleEE11CallPrinterNS_7VisitorIS6_vEEE13doVisitReturnEPS6_PPNS_10ExpressionE
_ZN4wasm6WalkerIZNS_14PrintCallGraph3runEPNS_10PassRunnerEPNS_6ModuleEE11CallPrinterNS_7VisitorIS6_vEEE11doVisitHostEPS6_PPNS_10ExpressionE
_ZN4wasm6WalkerIZNS_14PrintCallGraph3runEPNS_10PassRunnerEPNS_6ModuleEE11CallPrinterNS_7VisitorIS6_vEEE10doVisitNopEPS6_PPNS_10ExpressionE
_ZN4wasm6WalkerIZNS_14PrintCallGraph3runEPNS_10PassRunnerEPNS_6ModuleEE11CallPrinterNS_7VisitorIS6_vEEE18doVisitUnreachableEPS6_PPNS_10ExpressionE
_ZTVN4wasm14PrintCallGraphE
_ZN4wasm6WalkerIZNS_14PrintCallGraph3runEPNS_10PassRunnerEPNS_6ModuleEE11CallPrinterNS_7VisitorIS6_vEEE17doVisitCallImportEPS6_PPNS_10ExpressionE
_ZN4wasm6WalkerIZNS_14PrintCallGraph3runEPNS_10PassRunnerEPNS_6ModuleEE11CallPrinterNS_7VisitorIS6_vEEE11doVisitCallEPS6_PPNS_10ExpressionE
_ZNSt6vectorIN4wasm6WalkerIZNS0_14PrintCallGraph3runEPNS0_10PassRunnerEPNS0_6ModuleEE11CallPrinterNS0_7VisitorIS7_vEEE4TaskESaISB_EE17_M_realloc_insertIJRPFvPS7_PPNS0_10ExpressionEERSI_EEEvN9__gnu_cxx17__normal_iteratorIPSB_SD_EEDpOT_
_ZNSt6vectorIN4wasm6WalkerIZNS0_14PrintCallGraph3runEPNS0_10PassRunnerEPNS0_6ModuleEE11CallPrinterNS0_7VisitorIS7_vEEE4TaskESaISB_EE12emplace_backIJRPFvPS7_PPNS0_10ExpressionEERSI_EEEvDpOT_
_ZN4wasm14PrintCallGraph3runEPNS_10PassRunnerEPNS_6ModuleE
_ZN4wasm10PostWalkerIZNS_14PrintCallGraph3runEPNS_10PassRunnerEPNS_6ModuleEE11CallPrinterNS_7VisitorIS6_vEEE4scanEPS6_PPNS_10ExpressionE
_ZTSN4wasm14PrintCallGraphE
_ZTIN4wasm14PrintCallGraphE
_ZN4wasm21RelooperJumpThreading18isFunctionParallelEv
_ZN4wasm21RelooperJumpThreading6createEv
_ZTVN4wasm21RelooperJumpThreadingE
_ZN4wasm10WalkerPassINS_21ExpressionStackWalkerINS_21RelooperJumpThreadingENS_7VisitorIS2_vEEEEED2Ev
_ZTVN4wasm10WalkerPassINS_21ExpressionStackWalkerINS_21RelooperJumpThreadingENS_7VisitorIS2_vEEEEEE
_ZN4wasm10WalkerPassINS_21ExpressionStackWalkerINS_21RelooperJumpThreadingENS_7VisitorIS2_vEEEEED1Ev
_ZN4wasm6WalkerINS_14LabelUseFinderENS_7VisitorIS1_vEEE12doVisitBlockEPS1_PPNS_10ExpressionE
_ZN4wasm6WalkerINS_14LabelUseFinderENS_7VisitorIS1_vEEE11doVisitLoopEPS1_PPNS_10ExpressionE
_ZN4wasm6WalkerINS_14LabelUseFinderENS_7VisitorIS1_vEEE12doVisitBreakEPS1_PPNS_10ExpressionE
_ZN4wasm6WalkerINS_14LabelUseFinderENS_7VisitorIS1_vEEE13doVisitSwitchEPS1_PPNS_10ExpressionE
_ZN4wasm6WalkerINS_14LabelUseFinderENS_7VisitorIS1_vEEE11doVisitCallEPS1_PPNS_10ExpressionE
_ZN4wasm6WalkerINS_14LabelUseFinderENS_7VisitorIS1_vEEE17doVisitCallImportEPS1_PPNS_10ExpressionE
_ZN4wasm6WalkerINS_14LabelUseFinderENS_7VisitorIS1_vEEE19doVisitCallIndirectEPS1_PPNS_10ExpressionE
_ZN4wasm6WalkerINS_14LabelUseFinderENS_7VisitorIS1_vEEE15doVisitGetLocalEPS1_PPNS_10ExpressionE
_ZN4wasm6WalkerINS_14LabelUseFinderENS_7VisitorIS1_vEEE16doVisitGetGlobalEPS1_PPNS_10ExpressionE
_ZN4wasm6WalkerINS_14LabelUseFinderENS_7VisitorIS1_vEEE16doVisitSetGlobalEPS1_PPNS_10ExpressionE
_ZN4wasm6WalkerINS_14LabelUseFinderENS_7VisitorIS1_vEEE11doVisitLoadEPS1_PPNS_10ExpressionE
_ZN4wasm6WalkerINS_14LabelUseFinderENS_7VisitorIS1_vEEE12doVisitStoreEPS1_PPNS_10ExpressionE
_ZN4wasm6WalkerINS_14LabelUseFinderENS_7VisitorIS1_vEEE16doVisitAtomicRMWEPS1_PPNS_10ExpressionE
_ZN4wasm6WalkerINS_14LabelUseFinderENS_7VisitorIS1_vEEE20doVisitAtomicCmpxchgEPS1_PPNS_10ExpressionE
_ZN4wasm6WalkerINS_14LabelUseFinderENS_7VisitorIS1_vEEE17doVisitAtomicWaitEPS1_PPNS_10ExpressionE
_ZN4wasm6WalkerINS_14LabelUseFinderENS_7VisitorIS1_vEEE17doVisitAtomicWakeEPS1_PPNS_10ExpressionE
_ZN4wasm6WalkerINS_14LabelUseFinderENS_7VisitorIS1_vEEE12doVisitConstEPS1_PPNS_10ExpressionE
_ZN4wasm6WalkerINS_14LabelUseFinderENS_7VisitorIS1_vEEE12doVisitUnaryEPS1_PPNS_10ExpressionE
_ZN4wasm6WalkerINS_14LabelUseFinderENS_7VisitorIS1_vEEE13doVisitBinaryEPS1_PPNS_10ExpressionE
_ZN4wasm6WalkerINS_14LabelUseFinderENS_7VisitorIS1_vEEE13doVisitSelectEPS1_PPNS_10ExpressionE
_ZN4wasm6WalkerINS_14LabelUseFinderENS_7VisitorIS1_vEEE11doVisitDropEPS1_PPNS_10ExpressionE
_ZN4wasm6WalkerINS_14LabelUseFinderENS_7VisitorIS1_vEEE13doVisitReturnEPS1_PPNS_10ExpressionE
_ZN4wasm6WalkerINS_14LabelUseFinderENS_7VisitorIS1_vEEE11doVisitHostEPS1_PPNS_10ExpressionE
_ZN4wasm6WalkerINS_14LabelUseFinderENS_7VisitorIS1_vEEE10doVisitNopEPS1_PPNS_10ExpressionE
_ZN4wasm6WalkerINS_14LabelUseFinderENS_7VisitorIS1_vEEE18doVisitUnreachableEPS1_PPNS_10ExpressionE
_ZN4wasm6WalkerIZNS_21RelooperJumpThreading25optimizeJumpsToLabelCheckERPNS_10ExpressionEPNS_2IfEE11JumpUpdaterNS_7VisitorIS7_vEEE12doVisitBlockEPS7_PS3_
_ZN4wasm6WalkerIZNS_21RelooperJumpThreading25optimizeJumpsToLabelCheckERPNS_10ExpressionEPNS_2IfEE11JumpUpdaterNS_7VisitorIS7_vEEE9doVisitIfEPS7_PS3_
_ZN4wasm6WalkerIZNS_21RelooperJumpThreading25optimizeJumpsToLabelCheckERPNS_10ExpressionEPNS_2IfEE11JumpUpdaterNS_7VisitorIS7_vEEE11doVisitLoopEPS7_PS3_
_ZN4wasm6WalkerIZNS_21RelooperJumpThreading25optimizeJumpsToLabelCheckERPNS_10ExpressionEPNS_2IfEE11JumpUpdaterNS_7VisitorIS7_vEEE12doVisitBreakEPS7_PS3_
_ZN4wasm6WalkerIZNS_21RelooperJumpThreading25optimizeJumpsToLabelCheckERPNS_10ExpressionEPNS_2IfEE11JumpUpdaterNS_7VisitorIS7_vEEE13doVisitSwitchEPS7_PS3_
_ZN4wasm6WalkerIZNS_21RelooperJumpThreading25optimizeJumpsToLabelCheckERPNS_10ExpressionEPNS_2IfEE11JumpUpdaterNS_7VisitorIS7_vEEE11doVisitCallEPS7_PS3_
_ZN4wasm6WalkerIZNS_21RelooperJumpThreading25optimizeJumpsToLabelCheckERPNS_10ExpressionEPNS_2IfEE11JumpUpdaterNS_7VisitorIS7_vEEE17doVisitCallImportEPS7_PS3_
_ZN4wasm6WalkerIZNS_21RelooperJumpThreading25optimizeJumpsToLabelCheckERPNS_10ExpressionEPNS_2IfEE11JumpUpdaterNS_7VisitorIS7_vEEE19doVisitCallIndirectEPS7_PS3_
_ZN4wasm6WalkerIZNS_21RelooperJumpThreading25optimizeJumpsToLabelCheckERPNS_10ExpressionEPNS_2IfEE11JumpUpdaterNS_7VisitorIS7_vEEE15doVisitGetLocalEPS7_PS3_
_ZN4wasm6WalkerIZNS_21RelooperJumpThreading25optimizeJumpsToLabelCheckERPNS_10ExpressionEPNS_2IfEE11JumpUpdaterNS_7VisitorIS7_vEEE16doVisitGetGlobalEPS7_PS3_
_ZN4wasm6WalkerIZNS_21RelooperJumpThreading25optimizeJumpsToLabelCheckERPNS_10ExpressionEPNS_2IfEE11JumpUpdaterNS_7VisitorIS7_vEEE16doVisitSetGlobalEPS7_PS3_
_ZN4wasm6WalkerIZNS_21RelooperJumpThreading25optimizeJumpsToLabelCheckERPNS_10ExpressionEPNS_2IfEE11JumpUpdaterNS_7VisitorIS7_vEEE11doVisitLoadEPS7_PS3_
_ZN4wasm6WalkerIZNS_21RelooperJumpThreading25optimizeJumpsToLabelCheckERPNS_10ExpressionEPNS_2IfEE11JumpUpdaterNS_7VisitorIS7_vEEE12doVisitStoreEPS7_PS3_
_ZN4wasm6WalkerIZNS_21RelooperJumpThreading25optimizeJumpsToLabelCheckERPNS_10ExpressionEPNS_2IfEE11JumpUpdaterNS_7VisitorIS7_vEEE16doVisitAtomicRMWEPS7_PS3_
_ZN4wasm6WalkerIZNS_21RelooperJumpThreading25optimizeJumpsToLabelCheckERPNS_10ExpressionEPNS_2IfEE11JumpUpdaterNS_7VisitorIS7_vEEE20doVisitAtomicCmpxchgEPS7_PS3_
_ZN4wasm6WalkerIZNS_21RelooperJumpThreading25optimizeJumpsToLabelCheckERPNS_10ExpressionEPNS_2IfEE11JumpUpdaterNS_7VisitorIS7_vEEE17doVisitAtomicWaitEPS7_PS3_
_ZN4wasm6WalkerIZNS_21RelooperJumpThreading25optimizeJumpsToLabelCheckERPNS_10ExpressionEPNS_2IfEE11JumpUpdaterNS_7VisitorIS7_vEEE17doVisitAtomicWakeEPS7_PS3_
_ZN4wasm6WalkerIZNS_21RelooperJumpThreading25optimizeJumpsToLabelCheckERPNS_10ExpressionEPNS_2IfEE11JumpUpdaterNS_7VisitorIS7_vEEE12doVisitConstEPS7_PS3_
_ZN4wasm6WalkerIZNS_21RelooperJumpThreading25optimizeJumpsToLabelCheckERPNS_10ExpressionEPNS_2IfEE11JumpUpdaterNS_7VisitorIS7_vEEE12doVisitUnaryEPS7_PS3_
_ZN4wasm6WalkerIZNS_21RelooperJumpThreading25optimizeJumpsToLabelCheckERPNS_10ExpressionEPNS_2IfEE11JumpUpdaterNS_7VisitorIS7_vEEE13doVisitBinaryEPS7_PS3_
_ZN4wasm6WalkerIZNS_21RelooperJumpThreading25optimizeJumpsToLabelCheckERPNS_10ExpressionEPNS_2IfEE11JumpUpdaterNS_7VisitorIS7_vEEE13doVisitSelectEPS7_PS3_
_ZN4wasm6WalkerIZNS_21RelooperJumpThreading25optimizeJumpsToLabelCheckERPNS_10ExpressionEPNS_2IfEE11JumpUpdaterNS_7VisitorIS7_vEEE11doVisitDropEPS7_PS3_
_ZN4wasm6WalkerIZNS_21RelooperJumpThreading25optimizeJumpsToLabelCheckERPNS_10ExpressionEPNS_2IfEE11JumpUpdaterNS_7VisitorIS7_vEEE13doVisitReturnEPS7_PS3_
_ZN4wasm6WalkerIZNS_21RelooperJumpThreading25optimizeJumpsToLabelCheckERPNS_10ExpressionEPNS_2IfEE11JumpUpdaterNS_7VisitorIS7_vEEE11doVisitHostEPS7_PS3_
_ZN4wasm6WalkerIZNS_21RelooperJumpThreading25optimizeJumpsToLabelCheckERPNS_10ExpressionEPNS_2IfEE11JumpUpdaterNS_7VisitorIS7_vEEE10doVisitNopEPS7_PS3_
_ZN4wasm6WalkerIZNS_21RelooperJumpThreading25optimizeJumpsToLabelCheckERPNS_10ExpressionEPNS_2IfEE11JumpUpdaterNS_7VisitorIS7_vEEE18doVisitUnreachableEPS7_PS3_
_ZN4wasm6WalkerINS_21RelooperJumpThreadingENS_7VisitorIS1_vEEE9doVisitIfEPS1_PPNS_10ExpressionE
_ZN4wasm6WalkerINS_21RelooperJumpThreadingENS_7VisitorIS1_vEEE11doVisitLoopEPS1_PPNS_10ExpressionE
_ZN4wasm6WalkerINS_21RelooperJumpThreadingENS_7VisitorIS1_vEEE12doVisitBreakEPS1_PPNS_10ExpressionE
_ZN4wasm6WalkerINS_21RelooperJumpThreadingENS_7VisitorIS1_vEEE13doVisitSwitchEPS1_PPNS_10ExpressionE
_ZN4wasm6WalkerINS_21RelooperJumpThreadingENS_7VisitorIS1_vEEE11doVisitCallEPS1_PPNS_10ExpressionE
_ZN4wasm6WalkerINS_21RelooperJumpThreadingENS_7VisitorIS1_vEEE17doVisitCallImportEPS1_PPNS_10ExpressionE
_ZN4wasm6WalkerINS_21RelooperJumpThreadingENS_7VisitorIS1_vEEE19doVisitCallIndirectEPS1_PPNS_10ExpressionE
_ZN4wasm6WalkerINS_21RelooperJumpThreadingENS_7VisitorIS1_vEEE15doVisitGetLocalEPS1_PPNS_10ExpressionE
_ZN4wasm6WalkerINS_21RelooperJumpThreadingENS_7VisitorIS1_vEEE15doVisitSetLocalEPS1_PPNS_10ExpressionE
_ZN4wasm6WalkerINS_21RelooperJumpThreadingENS_7VisitorIS1_vEEE16doVisitGetGlobalEPS1_PPNS_10ExpressionE
_ZN4wasm6WalkerINS_21RelooperJumpThreadingENS_7VisitorIS1_vEEE16doVisitSetGlobalEPS1_PPNS_10ExpressionE
_ZN4wasm6WalkerINS_21RelooperJumpThreadingENS_7VisitorIS1_vEEE11doVisitLoadEPS1_PPNS_10ExpressionE
_ZN4wasm6WalkerINS_21RelooperJumpThreadingENS_7VisitorIS1_vEEE12doVisitStoreEPS1_PPNS_10ExpressionE
_ZN4wasm6WalkerINS_21RelooperJumpThreadingENS_7VisitorIS1_vEEE16doVisitAtomicRMWEPS1_PPNS_10ExpressionE
_ZN4wasm6WalkerINS_21RelooperJumpThreadingENS_7VisitorIS1_vEEE20doVisitAtomicCmpxchgEPS1_PPNS_10ExpressionE
_ZN4wasm6WalkerINS_21RelooperJumpThreadingENS_7VisitorIS1_vEEE17doVisitAtomicWaitEPS1_PPNS_10ExpressionE
_ZN4wasm6WalkerINS_21RelooperJumpThreadingENS_7VisitorIS1_vEEE17doVisitAtomicWakeEPS1_PPNS_10ExpressionE
_ZN4wasm6WalkerINS_21RelooperJumpThreadingENS_7VisitorIS1_vEEE12doVisitConstEPS1_PPNS_10ExpressionE
_ZN4wasm6WalkerINS_21RelooperJumpThreadingENS_7VisitorIS1_vEEE12doVisitUnaryEPS1_PPNS_10ExpressionE
_ZN4wasm6WalkerINS_21RelooperJumpThreadingENS_7VisitorIS1_vEEE13doVisitBinaryEPS1_PPNS_10ExpressionE
_ZN4wasm6WalkerINS_21RelooperJumpThreadingENS_7VisitorIS1_vEEE13doVisitSelectEPS1_PPNS_10ExpressionE
_ZN4wasm6WalkerINS_21RelooperJumpThreadingENS_7VisitorIS1_vEEE11doVisitDropEPS1_PPNS_10ExpressionE
_ZN4wasm6WalkerINS_21RelooperJumpThreadingENS_7VisitorIS1_vEEE13doVisitReturnEPS1_PPNS_10ExpressionE
_ZN4wasm6WalkerINS_21RelooperJumpThreadingENS_7VisitorIS1_vEEE11doVisitHostEPS1_PPNS_10ExpressionE
_ZN4wasm6WalkerINS_21RelooperJumpThreadingENS_7VisitorIS1_vEEE10doVisitNopEPS1_PPNS_10ExpressionE
_ZN4wasm6WalkerINS_21RelooperJumpThreadingENS_7VisitorIS1_vEEE18doVisitUnreachableEPS1_PPNS_10ExpressionE
_ZN4wasm10WalkerPassINS_21ExpressionStackWalkerINS_21RelooperJumpThreadingENS_7VisitorIS2_vEEEEED0Ev
_ZN4wasm21ExpressionStackWalkerINS_21RelooperJumpThreadingENS_7VisitorIS1_vEEE11doPostVisitEPS1_PPNS_10ExpressionE
_ZN4wasm21ExpressionStackWalkerINS_21RelooperJumpThreadingENS_7VisitorIS1_vEEE10doPreVisitEPS1_PPNS_10ExpressionE
_ZN4wasm21RelooperJumpThreadingD2Ev
_ZN4wasm21RelooperJumpThreadingD1Ev
_ZN4wasm21RelooperJumpThreadingD0Ev
_ZN4wasm6WalkerIZNS_21RelooperJumpThreading25optimizeJumpsToLabelCheckERPNS_10ExpressionEPNS_2IfEE11JumpUpdaterNS_7VisitorIS7_vEEE15doVisitSetLocalEPS7_PS3_
_ZNSt8_Rb_treeIjSt4pairIKjjESt10_Select1stIS2_ESt4lessIjESaIS2_EE22_M_emplace_hint_uniqueIJRKSt21piecewise_construct_tSt5tupleIJOjEESD_IJEEEEESt17_Rb_tree_iteratorIS2_ESt23_Rb_tree_const_iteratorIS2_EDpOT_
_ZN4wasm6WalkerINS_14LabelUseFinderENS_7VisitorIS1_vEEE9doVisitIfEPS1_PPNS_10ExpressionE
_ZN4wasm6WalkerINS_14LabelUseFinderENS_7VisitorIS1_vEEE15doVisitSetLocalEPS1_PPNS_10ExpressionE
_ZNSt6vectorIN4wasm6WalkerINS0_14LabelUseFinderENS0_7VisitorIS2_vEEE4TaskESaIS6_EE17_M_realloc_insertIJRPFvPS2_PPNS0_10ExpressionEERSD_EEEvN9__gnu_cxx17__normal_iteratorIPS6_S8_EEDpOT_
_ZNSt6vectorIN4wasm6WalkerINS0_14LabelUseFinderENS0_7VisitorIS2_vEEE4TaskESaIS6_EE12emplace_backIJRPFvPS2_PPNS0_10ExpressionEERSD_EEEvDpOT_
_ZN4wasm6WalkerINS_14LabelUseFinderENS_7VisitorIS1_vEEE8pushTaskEPFvPS1_PPNS_10ExpressionEES8_
_ZN4wasm21RelooperJumpThreading25hasIrreducibleControlFlowEPNS_2IfEPNS_10ExpressionE
_ZN4wasm10PostWalkerINS_14LabelUseFinderENS_7VisitorIS1_vEEE4scanEPS1_PPNS_10ExpressionE
_ZNSt6vectorIN4wasm6WalkerIZNS0_21RelooperJumpThreading25optimizeJumpsToLabelCheckERPNS0_10ExpressionEPNS0_2IfEE11JumpUpdaterNS0_7VisitorIS8_vEEE4TaskESaISC_EE17_M_realloc_insertIJRPFvPS8_PS4_ERSH_EEEvN9__gnu_cxx17__normal_iteratorIPSC_SE_EEDpOT_
_ZNSt6vectorIN4wasm6WalkerIZNS0_21RelooperJumpThreading25optimizeJumpsToLabelCheckERPNS0_10ExpressionEPNS0_2IfEE11JumpUpdaterNS0_7VisitorIS8_vEEE4TaskESaISC_EE12emplace_backIJRPFvPS8_PS4_ERSH_EEEvDpOT_
_ZN4wasm6WalkerIZNS_21RelooperJumpThreading25optimizeJumpsToLabelCheckERPNS_10ExpressionEPNS_2IfEE11JumpUpdaterNS_7VisitorIS7_vEEE8pushTaskEPFvPS7_PS3_ESC_
_ZN4wasm21RelooperJumpThreading25optimizeJumpsToLabelCheckERPNS_10ExpressionEPNS_2IfE
_ZN4wasm10PostWalkerIZNS_21RelooperJumpThreading25optimizeJumpsToLabelCheckERPNS_10ExpressionEPNS_2IfEE11JumpUpdaterNS_7VisitorIS7_vEEE4scanEPS7_PS3_
_ZN4wasm6WalkerINS_21RelooperJumpThreadingENS_7VisitorIS1_vEEE12doVisitBlockEPS1_PPNS_10ExpressionE
_ZNSt6vectorIN4wasm6WalkerINS0_21RelooperJumpThreadingENS0_7VisitorIS2_vEEE4TaskESaIS6_EE17_M_realloc_insertIJRPFvPS2_PPNS0_10ExpressionEERSD_EEEvN9__gnu_cxx17__normal_iteratorIPS6_S8_EEDpOT_
_ZNSt6vectorIN4wasm6WalkerINS0_21RelooperJumpThreadingENS0_7VisitorIS2_vEEE4TaskESaIS6_EE12emplace_backIJRPFvPS2_PPNS0_10ExpressionEERSD_EEEvDpOT_
_ZN4wasm6WalkerINS_21RelooperJumpThreadingENS_7VisitorIS1_vEEE8pushTaskEPFvPS1_PPNS_10ExpressionEES8_
_ZN4wasm10PostWalkerINS_21RelooperJumpThreadingENS_7VisitorIS1_vEEE4scanEPS1_PPNS_10ExpressionE
_ZN4wasm21ExpressionStackWalkerINS_21RelooperJumpThreadingENS_7VisitorIS1_vEEE4scanEPS1_PPNS_10ExpressionE
_ZN4wasm10WalkerPassINS_21ExpressionStackWalkerINS_21RelooperJumpThreadingENS_7VisitorIS2_vEEEEE11runFunctionEPNS_10PassRunnerEPNS_6ModuleEPNS_8FunctionE
_ZN4wasm10WalkerPassINS_21ExpressionStackWalkerINS_21RelooperJumpThreadingENS_7VisitorIS2_vEEEEE3runEPNS_10PassRunnerEPNS_6ModuleE
_ZTSN4wasm7VisitorINS_21RelooperJumpThreadingEvEE
_ZTIN4wasm7VisitorINS_21RelooperJumpThreadingEvEE
_ZTSN4wasm6WalkerINS_21RelooperJumpThreadingENS_7VisitorIS1_vEEEE
_ZTIN4wasm6WalkerINS_21RelooperJumpThreadingENS_7VisitorIS1_vEEEE
_ZTSN4wasm10PostWalkerINS_21RelooperJumpThreadingENS_7VisitorIS1_vEEEE
_ZTIN4wasm10PostWalkerINS_21RelooperJumpThreadingENS_7VisitorIS1_vEEEE
_ZTSN4wasm21ExpressionStackWalkerINS_21RelooperJumpThreadingENS_7VisitorIS1_vEEEE
_ZTIN4wasm21ExpressionStackWalkerINS_21RelooperJumpThreadingENS_7VisitorIS1_vEEEE
_ZTSN4wasm10WalkerPassINS_21ExpressionStackWalkerINS_21RelooperJumpThreadingENS_7VisitorIS2_vEEEEEE
_ZTIN4wasm10WalkerPassINS_21ExpressionStackWalkerINS_21RelooperJumpThreadingENS_7VisitorIS2_vEEEEEE
_ZTSN4wasm21RelooperJumpThreadingE
_ZTIN4wasm21RelooperJumpThreadingE
_ZN4wasm8ReReloop18isFunctionParallelEv
_ZNSt15_Sp_counted_ptrIPN4wasm8ReReloop10TriageTaskELN9__gnu_cxx12_Lock_policyE2EED2Ev
_ZNSt15_Sp_counted_ptrIPN4wasm8ReReloop10TriageTaskELN9__gnu_cxx12_Lock_policyE2EED1Ev
_ZNSt23_Sp_counted_ptr_inplaceIN4wasm8ReReloop6IfTaskESaIS2_ELN9__gnu_cxx12_Lock_policyE2EED2Ev
_ZNSt23_Sp_counted_ptr_inplaceIN4wasm8ReReloop6IfTaskESaIS2_ELN9__gnu_cxx12_Lock_policyE2EED1Ev
_ZNSt23_Sp_counted_ptr_inplaceIN4wasm8ReReloop6IfTaskESaIS2_ELN9__gnu_cxx12_Lock_policyE2EE10_M_disposeEv
_ZNSt23_Sp_counted_ptr_inplaceIN4wasm8ReReloop10TriageTaskESaIS2_ELN9__gnu_cxx12_Lock_policyE2EED2Ev
_ZNSt23_Sp_counted_ptr_inplaceIN4wasm8ReReloop10TriageTaskESaIS2_ELN9__gnu_cxx12_Lock_policyE2EED1Ev
_ZNSt23_Sp_counted_ptr_inplaceIN4wasm8ReReloop10TriageTaskESaIS2_ELN9__gnu_cxx12_Lock_policyE2EE10_M_disposeEv
_ZNSt23_Sp_counted_ptr_inplaceIN4wasm8ReReloop9BlockTaskESaIS2_ELN9__gnu_cxx12_Lock_policyE2EED2Ev
_ZNSt23_Sp_counted_ptr_inplaceIN4wasm8ReReloop9BlockTaskESaIS2_ELN9__gnu_cxx12_Lock_policyE2EED1Ev
_ZNSt23_Sp_counted_ptr_inplaceIN4wasm8ReReloop9BlockTaskESaIS2_ELN9__gnu_cxx12_Lock_policyE2EE10_M_disposeEv
_ZNSt15_Sp_counted_ptrIPN4wasm8ReReloop10TriageTaskELN9__gnu_cxx12_Lock_policyE2EE14_M_get_deleterERKSt9type_info
_ZNSt15_Sp_counted_ptrIPN4wasm8ReReloop10TriageTaskELN9__gnu_cxx12_Lock_policyE2EE10_M_disposeEv
_ZNSt15_Sp_counted_ptrIPN4wasm8ReReloop10TriageTaskELN9__gnu_cxx12_Lock_policyE2EED0Ev
_ZNSt15_Sp_counted_ptrIPN4wasm8ReReloop10TriageTaskELN9__gnu_cxx12_Lock_policyE2EE10_M_destroyEv
_ZNSt23_Sp_counted_ptr_inplaceIN4wasm8ReReloop9BlockTaskESaIS2_ELN9__gnu_cxx12_Lock_policyE2EED0Ev
_ZNSt23_Sp_counted_ptr_inplaceIN4wasm8ReReloop10TriageTaskESaIS2_ELN9__gnu_cxx12_Lock_policyE2EED0Ev
_ZNSt23_Sp_counted_ptr_inplaceIN4wasm8ReReloop6IfTaskESaIS2_ELN9__gnu_cxx12_Lock_policyE2EED0Ev
_ZNSt23_Sp_counted_ptr_inplaceIN4wasm8ReReloop6IfTaskESaIS2_ELN9__gnu_cxx12_Lock_policyE2EE10_M_destroyEv
_ZNSt23_Sp_counted_ptr_inplaceIN4wasm8ReReloop10TriageTaskESaIS2_ELN9__gnu_cxx12_Lock_policyE2EE10_M_destroyEv
_ZNSt23_Sp_counted_ptr_inplaceIN4wasm8ReReloop9BlockTaskESaIS2_ELN9__gnu_cxx12_Lock_policyE2EE10_M_destroyEv
_ZNSt23_Sp_counted_ptr_inplaceIN4wasm8ReReloop9BlockTaskESaIS2_ELN9__gnu_cxx12_Lock_policyE2EE14_M_get_deleterERKSt9type_info
_ZTSSt19_Sp_make_shared_tag
_ZNSt23_Sp_counted_ptr_inplaceIN4wasm8ReReloop10TriageTaskESaIS2_ELN9__gnu_cxx12_Lock_policyE2EE14_M_get_deleterERKSt9type_info
_ZNSt23_Sp_counted_ptr_inplaceIN4wasm8ReReloop6IfTaskESaIS2_ELN9__gnu_cxx12_Lock_policyE2EE14_M_get_deleterERKSt9type_info
_ZN4wasm8ReReloop6createEv
_ZTVN4wasm8ReReloopE
_ZN4wasm8ReReloop9BlockTask3runEv
_ZNSt16_Sp_counted_baseILN9__gnu_cxx12_Lock_policyE2EE10_M_releaseEv
_ZNSt8_Rb_treeIN4wasm4NameESt4pairIKS1_PN3CFG5BlockEESt10_Select1stIS7_ESt4lessIS1_ESaIS7_EE8_M_eraseEPSt13_Rb_tree_nodeIS7_E
_ZN4wasm8ReReloopD2Ev
_ZN4wasm8ReReloopD1Ev
_ZN4wasm8ReReloopD0Ev
_ZNSt8_Rb_treeIN4wasm4NameESt4pairIKS1_St3setIjSt4lessIjESaIjEEESt10_Select1stIS9_ES5_IS1_ESaIS9_EE8_M_eraseEPSt13_Rb_tree_nodeIS9_E
_ZN4wasm8ReReloop13startCFGBlockEv
_ZN4wasm8ReReloop6IfTask3runEv
_ZNSt6vectorISt10shared_ptrIN4wasm8ReReloop4TaskEESaIS4_EE17_M_realloc_insertIJS4_EEEvN9__gnu_cxx17__normal_iteratorIPS4_S6_EEDpOT_
_ZNSt6vectorISt10shared_ptrIN4wasm8ReReloop4TaskEESaIS4_EE12emplace_backIJS4_EEEvDpOT_
_ZNSt8_Rb_treeIN4wasm4NameESt4pairIKS1_PN3CFG5BlockEESt10_Select1stIS7_ESt4lessIS1_ESaIS7_EE24_M_get_insert_unique_posERS3_
_ZNSt8_Rb_treeIN4wasm4NameESt4pairIKS1_PN3CFG5BlockEESt10_Select1stIS7_ESt4lessIS1_ESaIS7_EE29_M_get_insert_hint_unique_posESt23_Rb_tree_const_iteratorIS7_ERS3_
_ZNSt8_Rb_treeIN4wasm4NameESt4pairIKS1_St3setIjSt4lessIjESaIjEEESt10_Select1stIS9_ES5_IS1_ESaIS9_EE24_M_get_insert_unique_posERS3_
_ZNSt8_Rb_treeIN4wasm4NameESt4pairIKS1_St3setIjSt4lessIjESaIjEEESt10_Select1stIS9_ES5_IS1_ESaIS9_EE29_M_get_insert_hint_unique_posESt23_Rb_tree_const_iteratorIS9_ERS3_
_ZNSt8_Rb_treeIN4wasm4NameESt4pairIKS1_St3setIjSt4lessIjESaIjEEESt10_Select1stIS9_ES5_IS1_ESaIS9_EE22_M_emplace_hint_uniqueIJRKSt21piecewise_construct_tSt5tupleIJRS3_EESJ_IJEEEEESt17_Rb_tree_iteratorIS9_ESt23_Rb_tree_const_iteratorIS9_EDpOT_
_ZN4wasm8ReReloop10SwitchTask6handleERS0_PNS_6SwitchE
_ZN4wasm8ReReloop10TriageTask3runEv
_ZTVSt23_Sp_counted_ptr_inplaceIN4wasm8ReReloop9BlockTaskESaIS2_ELN9__gnu_cxx12_Lock_policyE2EE
_ZTVN4wasm8ReReloop9BlockTaskE
_ZTVSt23_Sp_counted_ptr_inplaceIN4wasm8ReReloop10TriageTaskESaIS2_ELN9__gnu_cxx12_Lock_policyE2EE
_ZTVN4wasm8ReReloop10TriageTaskE
_ZTVSt23_Sp_counted_ptr_inplaceIN4wasm8ReReloop6IfTaskESaIS2_ELN9__gnu_cxx12_Lock_policyE2EE
_ZTVN4wasm8ReReloop6IfTaskE
_ZN4wasm8ReReloop11runFunctionEPNS_10PassRunnerEPNS_6ModuleEPNS_8FunctionE
_ZTVSt15_Sp_counted_ptrIPN4wasm8ReReloop10TriageTaskELN9__gnu_cxx12_Lock_policyE2EE
_ZTSSt11_Mutex_baseILN9__gnu_cxx12_Lock_policyE2EE
_ZTISt11_Mutex_baseILN9__gnu_cxx12_Lock_policyE2EE
_ZTSSt16_Sp_counted_baseILN9__gnu_cxx12_Lock_policyE2EE
_ZTISt16_Sp_counted_baseILN9__gnu_cxx12_Lock_policyE2EE
_ZTSN4wasm8ReReloop4TaskE
_ZTIN4wasm8ReReloop4TaskE
_ZTSN4wasm8ReReloop10TriageTaskE
_ZTIN4wasm8ReReloop10TriageTaskE
_ZTSN4wasm8ReReloop9BlockTaskE
_ZTIN4wasm8ReReloop9BlockTaskE
_ZTSN4wasm8ReReloop6IfTaskE
_ZTIN4wasm8ReReloop6IfTaskE
_ZTSN4wasm8ReReloopE
_ZTIN4wasm8ReReloopE
_ZTSSt15_Sp_counted_ptrIPN4wasm8ReReloop10TriageTaskELN9__gnu_cxx12_Lock_policyE2EE
_ZTISt15_Sp_counted_ptrIPN4wasm8ReReloop10TriageTaskELN9__gnu_cxx12_Lock_policyE2EE
_ZTSSt23_Sp_counted_ptr_inplaceIN4wasm8ReReloop9BlockTaskESaIS2_ELN9__gnu_cxx12_Lock_policyE2EE
_ZTISt23_Sp_counted_ptr_inplaceIN4wasm8ReReloop9BlockTaskESaIS2_ELN9__gnu_cxx12_Lock_policyE2EE
_ZTSSt23_Sp_counted_ptr_inplaceIN4wasm8ReReloop10TriageTaskESaIS2_ELN9__gnu_cxx12_Lock_policyE2EE
_ZTISt23_Sp_counted_ptr_inplaceIN4wasm8ReReloop10TriageTaskESaIS2_ELN9__gnu_cxx12_Lock_policyE2EE
_ZTSSt23_Sp_counted_ptr_inplaceIN4wasm8ReReloop6IfTaskESaIS2_ELN9__gnu_cxx12_Lock_policyE2EE
_ZTISt23_Sp_counted_ptr_inplaceIN4wasm8ReReloop6IfTaskESaIS2_ELN9__gnu_cxx12_Lock_policyE2EE
_ZN4wasm6WalkerINS_13RemoveImportsENS_7VisitorIS1_vEEE12doVisitBlockEPS1_PPNS_10ExpressionE
_ZN4wasm6WalkerINS_13RemoveImportsENS_7VisitorIS1_vEEE9doVisitIfEPS1_PPNS_10ExpressionE
_ZN4wasm6WalkerINS_13RemoveImportsENS_7VisitorIS1_vEEE11doVisitLoopEPS1_PPNS_10ExpressionE
_ZN4wasm6WalkerINS_13RemoveImportsENS_7VisitorIS1_vEEE12doVisitBreakEPS1_PPNS_10ExpressionE
_ZN4wasm6WalkerINS_13RemoveImportsENS_7VisitorIS1_vEEE13doVisitSwitchEPS1_PPNS_10ExpressionE
_ZN4wasm6WalkerINS_13RemoveImportsENS_7VisitorIS1_vEEE11doVisitCallEPS1_PPNS_10ExpressionE
_ZN4wasm6WalkerINS_13RemoveImportsENS_7VisitorIS1_vEEE19doVisitCallIndirectEPS1_PPNS_10ExpressionE
_ZN4wasm6WalkerINS_13RemoveImportsENS_7VisitorIS1_vEEE15doVisitGetLocalEPS1_PPNS_10ExpressionE
_ZN4wasm6WalkerINS_13RemoveImportsENS_7VisitorIS1_vEEE15doVisitSetLocalEPS1_PPNS_10ExpressionE
_ZN4wasm6WalkerINS_13RemoveImportsENS_7VisitorIS1_vEEE16doVisitGetGlobalEPS1_PPNS_10ExpressionE
_ZN4wasm6WalkerINS_13RemoveImportsENS_7VisitorIS1_vEEE16doVisitSetGlobalEPS1_PPNS_10ExpressionE
_ZN4wasm6WalkerINS_13RemoveImportsENS_7VisitorIS1_vEEE11doVisitLoadEPS1_PPNS_10ExpressionE
_ZN4wasm6WalkerINS_13RemoveImportsENS_7VisitorIS1_vEEE12doVisitStoreEPS1_PPNS_10ExpressionE
_ZN4wasm6WalkerINS_13RemoveImportsENS_7VisitorIS1_vEEE16doVisitAtomicRMWEPS1_PPNS_10ExpressionE
_ZN4wasm6WalkerINS_13RemoveImportsENS_7VisitorIS1_vEEE20doVisitAtomicCmpxchgEPS1_PPNS_10ExpressionE
_ZN4wasm6WalkerINS_13RemoveImportsENS_7VisitorIS1_vEEE17doVisitAtomicWaitEPS1_PPNS_10ExpressionE
_ZN4wasm6WalkerINS_13RemoveImportsENS_7VisitorIS1_vEEE17doVisitAtomicWakeEPS1_PPNS_10ExpressionE
_ZN4wasm6WalkerINS_13RemoveImportsENS_7VisitorIS1_vEEE12doVisitConstEPS1_PPNS_10ExpressionE
_ZN4wasm6WalkerINS_13RemoveImportsENS_7VisitorIS1_vEEE12doVisitUnaryEPS1_PPNS_10ExpressionE
_ZN4wasm6WalkerINS_13RemoveImportsENS_7VisitorIS1_vEEE13doVisitBinaryEPS1_PPNS_10ExpressionE
_ZN4wasm6WalkerINS_13RemoveImportsENS_7VisitorIS1_vEEE13doVisitSelectEPS1_PPNS_10ExpressionE
_ZN4wasm6WalkerINS_13RemoveImportsENS_7VisitorIS1_vEEE11doVisitDropEPS1_PPNS_10ExpressionE
_ZN4wasm6WalkerINS_13RemoveImportsENS_7VisitorIS1_vEEE13doVisitReturnEPS1_PPNS_10ExpressionE
_ZN4wasm6WalkerINS_13RemoveImportsENS_7VisitorIS1_vEEE11doVisitHostEPS1_PPNS_10ExpressionE
_ZN4wasm6WalkerINS_13RemoveImportsENS_7VisitorIS1_vEEE10doVisitNopEPS1_PPNS_10ExpressionE
_ZN4wasm6WalkerINS_13RemoveImportsENS_7VisitorIS1_vEEE18doVisitUnreachableEPS1_PPNS_10ExpressionE
_ZN4wasm10WalkerPassINS_10PostWalkerINS_13RemoveImportsENS_7VisitorIS2_vEEEEED2Ev
_ZTVN4wasm10WalkerPassINS_10PostWalkerINS_13RemoveImportsENS_7VisitorIS2_vEEEEEE
_ZN4wasm10WalkerPassINS_10PostWalkerINS_13RemoveImportsENS_7VisitorIS2_vEEEEED1Ev
_ZN4wasm13RemoveImportsD2Ev
_ZN4wasm13RemoveImportsD1Ev
_ZN4wasm10WalkerPassINS_10PostWalkerINS_13RemoveImportsENS_7VisitorIS2_vEEEEED0Ev
_ZN4wasm13RemoveImportsD0Ev
_ZTVN4wasm13RemoveImportsE
_ZN4wasm6WalkerINS_13RemoveImportsENS_7VisitorIS1_vEEE17doVisitCallImportEPS1_PPNS_10ExpressionE
_ZNSt6vectorIN4wasm6WalkerINS0_13RemoveImportsENS0_7VisitorIS2_vEEE4TaskESaIS6_EE17_M_realloc_insertIJRPFvPS2_PPNS0_10ExpressionEERSD_EEEvN9__gnu_cxx17__normal_iteratorIPS6_S8_EEDpOT_
_ZNSt6vectorIN4wasm6WalkerINS0_13RemoveImportsENS0_7VisitorIS2_vEEE4TaskESaIS6_EE12emplace_backIJRPFvPS2_PPNS0_10ExpressionEERSD_EEEvDpOT_
_ZN4wasm10WalkerPassINS_10PostWalkerINS_13RemoveImportsENS_7VisitorIS2_vEEEEE11runFunctionEPNS_10PassRunnerEPNS_6ModuleEPNS_8FunctionE
_ZN4wasm10PostWalkerINS_13RemoveImportsENS_7VisitorIS1_vEEE4scanEPS1_PPNS_10ExpressionE
_ZN4wasm10WalkerPassINS_10PostWalkerINS_13RemoveImportsENS_7VisitorIS2_vEEEEE3runEPNS_10PassRunnerEPNS_6ModuleE
_ZTSN4wasm7VisitorINS_13RemoveImportsEvEE
_ZTIN4wasm7VisitorINS_13RemoveImportsEvEE
_ZTSN4wasm6WalkerINS_13RemoveImportsENS_7VisitorIS1_vEEEE
_ZTIN4wasm6WalkerINS_13RemoveImportsENS_7VisitorIS1_vEEEE
_ZTSN4wasm10PostWalkerINS_13RemoveImportsENS_7VisitorIS1_vEEEE
_ZTIN4wasm10PostWalkerINS_13RemoveImportsENS_7VisitorIS1_vEEEE
_ZTSN4wasm10WalkerPassINS_10PostWalkerINS_13RemoveImportsENS_7VisitorIS2_vEEEEEE
_ZTIN4wasm10WalkerPassINS_10PostWalkerINS_13RemoveImportsENS_7VisitorIS2_vEEEEEE
_ZTSN4wasm13RemoveImportsE
_ZTIN4wasm13RemoveImportsE
_ZN4wasm12RemoveMemoryD2Ev
_ZN4wasm12RemoveMemoryD1Ev
_ZN4wasm12RemoveMemoryD0Ev
_ZN4wasm12RemoveMemory3runEPNS_10PassRunnerEPNS_6ModuleE
_ZTVN4wasm12RemoveMemoryE
_ZTSN4wasm12RemoveMemoryE
_ZTIN4wasm12RemoveMemoryE
_ZN4wasm15RemoveUnusedBrs18isFunctionParallelEv
_ZN4wasm15RemoveUnusedBrs5clearEPS0_PPNS_10ExpressionE
_ZN4wasm15RemoveUnusedBrs6createEv
_ZTVN4wasm15RemoveUnusedBrsE
_ZN4wasm6WalkerINS_15RemoveUnusedBrsENS_7VisitorIS1_vEEE12doVisitBlockEPS1_PPNS_10ExpressionE
_ZN4wasm6WalkerINS_15RemoveUnusedBrsENS_7VisitorIS1_vEEE12doVisitBreakEPS1_PPNS_10ExpressionE
_ZN4wasm6WalkerINS_15RemoveUnusedBrsENS_7VisitorIS1_vEEE13doVisitSwitchEPS1_PPNS_10ExpressionE
_ZN4wasm6WalkerINS_15RemoveUnusedBrsENS_7VisitorIS1_vEEE11doVisitCallEPS1_PPNS_10ExpressionE
_ZN4wasm6WalkerINS_15RemoveUnusedBrsENS_7VisitorIS1_vEEE17doVisitCallImportEPS1_PPNS_10ExpressionE
_ZN4wasm6WalkerINS_15RemoveUnusedBrsENS_7VisitorIS1_vEEE19doVisitCallIndirectEPS1_PPNS_10ExpressionE
_ZN4wasm6WalkerINS_15RemoveUnusedBrsENS_7VisitorIS1_vEEE15doVisitGetLocalEPS1_PPNS_10ExpressionE
_ZN4wasm6WalkerINS_15RemoveUnusedBrsENS_7VisitorIS1_vEEE15doVisitSetLocalEPS1_PPNS_10ExpressionE
_ZN4wasm6WalkerINS_15RemoveUnusedBrsENS_7VisitorIS1_vEEE16doVisitGetGlobalEPS1_PPNS_10ExpressionE
_ZN4wasm6WalkerINS_15RemoveUnusedBrsENS_7VisitorIS1_vEEE16doVisitSetGlobalEPS1_PPNS_10ExpressionE
_ZN4wasm6WalkerINS_15RemoveUnusedBrsENS_7VisitorIS1_vEEE11doVisitLoadEPS1_PPNS_10ExpressionE
_ZN4wasm6WalkerINS_15RemoveUnusedBrsENS_7VisitorIS1_vEEE12doVisitStoreEPS1_PPNS_10ExpressionE
_ZN4wasm6WalkerINS_15RemoveUnusedBrsENS_7VisitorIS1_vEEE16doVisitAtomicRMWEPS1_PPNS_10ExpressionE
_ZN4wasm6WalkerINS_15RemoveUnusedBrsENS_7VisitorIS1_vEEE20doVisitAtomicCmpxchgEPS1_PPNS_10ExpressionE
_ZN4wasm6WalkerINS_15RemoveUnusedBrsENS_7VisitorIS1_vEEE17doVisitAtomicWaitEPS1_PPNS_10ExpressionE
_ZN4wasm6WalkerINS_15RemoveUnusedBrsENS_7VisitorIS1_vEEE17doVisitAtomicWakeEPS1_PPNS_10ExpressionE
_ZN4wasm6WalkerINS_15RemoveUnusedBrsENS_7VisitorIS1_vEEE12doVisitConstEPS1_PPNS_10ExpressionE
_ZN4wasm6WalkerINS_15RemoveUnusedBrsENS_7VisitorIS1_vEEE12doVisitUnaryEPS1_PPNS_10ExpressionE
_ZN4wasm6WalkerINS_15RemoveUnusedBrsENS_7VisitorIS1_vEEE13doVisitBinaryEPS1_PPNS_10ExpressionE
_ZN4wasm6WalkerINS_15RemoveUnusedBrsENS_7VisitorIS1_vEEE13doVisitSelectEPS1_PPNS_10ExpressionE
_ZN4wasm6WalkerINS_15RemoveUnusedBrsENS_7VisitorIS1_vEEE11doVisitDropEPS1_PPNS_10ExpressionE
_ZN4wasm6WalkerINS_15RemoveUnusedBrsENS_7VisitorIS1_vEEE13doVisitReturnEPS1_PPNS_10ExpressionE
_ZN4wasm6WalkerINS_15RemoveUnusedBrsENS_7VisitorIS1_vEEE11doVisitHostEPS1_PPNS_10ExpressionE
_ZN4wasm6WalkerINS_15RemoveUnusedBrsENS_7VisitorIS1_vEEE10doVisitNopEPS1_PPNS_10ExpressionE
_ZN4wasm6WalkerINS_15RemoveUnusedBrsENS_7VisitorIS1_vEEE18doVisitUnreachableEPS1_PPNS_10ExpressionE
_ZN4wasm6WalkerIZNS_15RemoveUnusedBrs14doWalkFunctionEPNS_8FunctionEE14FinalOptimizerNS_7VisitorIS4_vEEE11doVisitLoopEPS4_PPNS_10ExpressionE
_ZN4wasm6WalkerIZNS_15RemoveUnusedBrs14doWalkFunctionEPNS_8FunctionEE14FinalOptimizerNS_7VisitorIS4_vEEE12doVisitBreakEPS4_PPNS_10ExpressionE
_ZN4wasm6WalkerIZNS_15RemoveUnusedBrs14doWalkFunctionEPNS_8FunctionEE14FinalOptimizerNS_7VisitorIS4_vEEE13doVisitSwitchEPS4_PPNS_10ExpressionE
_ZN4wasm6WalkerIZNS_15RemoveUnusedBrs14doWalkFunctionEPNS_8FunctionEE14FinalOptimizerNS_7VisitorIS4_vEEE11doVisitCallEPS4_PPNS_10ExpressionE
_ZN4wasm6WalkerIZNS_15RemoveUnusedBrs14doWalkFunctionEPNS_8FunctionEE14FinalOptimizerNS_7VisitorIS4_vEEE17doVisitCallImportEPS4_PPNS_10ExpressionE
_ZN4wasm6WalkerIZNS_15RemoveUnusedBrs14doWalkFunctionEPNS_8FunctionEE14FinalOptimizerNS_7VisitorIS4_vEEE19doVisitCallIndirectEPS4_PPNS_10ExpressionE
_ZN4wasm6WalkerIZNS_15RemoveUnusedBrs14doWalkFunctionEPNS_8FunctionEE14FinalOptimizerNS_7VisitorIS4_vEEE15doVisitGetLocalEPS4_PPNS_10ExpressionE
_ZN4wasm6WalkerIZNS_15RemoveUnusedBrs14doWalkFunctionEPNS_8FunctionEE14FinalOptimizerNS_7VisitorIS4_vEEE15doVisitSetLocalEPS4_PPNS_10ExpressionE
_ZN4wasm6WalkerIZNS_15RemoveUnusedBrs14doWalkFunctionEPNS_8FunctionEE14FinalOptimizerNS_7VisitorIS4_vEEE16doVisitGetGlobalEPS4_PPNS_10ExpressionE
_ZN4wasm6WalkerIZNS_15RemoveUnusedBrs14doWalkFunctionEPNS_8FunctionEE14FinalOptimizerNS_7VisitorIS4_vEEE16doVisitSetGlobalEPS4_PPNS_10ExpressionE
_ZN4wasm6WalkerIZNS_15RemoveUnusedBrs14doWalkFunctionEPNS_8FunctionEE14FinalOptimizerNS_7VisitorIS4_vEEE11doVisitLoadEPS4_PPNS_10ExpressionE
_ZN4wasm6WalkerIZNS_15RemoveUnusedBrs14doWalkFunctionEPNS_8FunctionEE14FinalOptimizerNS_7VisitorIS4_vEEE12doVisitStoreEPS4_PPNS_10ExpressionE
_ZN4wasm6WalkerIZNS_15RemoveUnusedBrs14doWalkFunctionEPNS_8FunctionEE14FinalOptimizerNS_7VisitorIS4_vEEE16doVisitAtomicRMWEPS4_PPNS_10ExpressionE
_ZN4wasm6WalkerIZNS_15RemoveUnusedBrs14doWalkFunctionEPNS_8FunctionEE14FinalOptimizerNS_7VisitorIS4_vEEE20doVisitAtomicCmpxchgEPS4_PPNS_10ExpressionE
_ZN4wasm6WalkerIZNS_15RemoveUnusedBrs14doWalkFunctionEPNS_8FunctionEE14FinalOptimizerNS_7VisitorIS4_vEEE17doVisitAtomicWaitEPS4_PPNS_10ExpressionE
_ZN4wasm6WalkerIZNS_15RemoveUnusedBrs14doWalkFunctionEPNS_8FunctionEE14FinalOptimizerNS_7VisitorIS4_vEEE17doVisitAtomicWakeEPS4_PPNS_10ExpressionE
_ZN4wasm6WalkerIZNS_15RemoveUnusedBrs14doWalkFunctionEPNS_8FunctionEE14FinalOptimizerNS_7VisitorIS4_vEEE12doVisitConstEPS4_PPNS_10ExpressionE
_ZN4wasm6WalkerIZNS_15RemoveUnusedBrs14doWalkFunctionEPNS_8FunctionEE14FinalOptimizerNS_7VisitorIS4_vEEE12doVisitUnaryEPS4_PPNS_10ExpressionE
_ZN4wasm6WalkerIZNS_15RemoveUnusedBrs14doWalkFunctionEPNS_8FunctionEE14FinalOptimizerNS_7VisitorIS4_vEEE13doVisitBinaryEPS4_PPNS_10ExpressionE
_ZN4wasm6WalkerIZNS_15RemoveUnusedBrs14doWalkFunctionEPNS_8FunctionEE14FinalOptimizerNS_7VisitorIS4_vEEE13doVisitSelectEPS4_PPNS_10ExpressionE
_ZN4wasm6WalkerIZNS_15RemoveUnusedBrs14doWalkFunctionEPNS_8FunctionEE14FinalOptimizerNS_7VisitorIS4_vEEE11doVisitDropEPS4_PPNS_10ExpressionE
_ZN4wasm6WalkerIZNS_15RemoveUnusedBrs14doWalkFunctionEPNS_8FunctionEE14FinalOptimizerNS_7VisitorIS4_vEEE13doVisitReturnEPS4_PPNS_10ExpressionE
_ZN4wasm6WalkerIZNS_15RemoveUnusedBrs14doWalkFunctionEPNS_8FunctionEE14FinalOptimizerNS_7VisitorIS4_vEEE11doVisitHostEPS4_PPNS_10ExpressionE
_ZN4wasm6WalkerIZNS_15RemoveUnusedBrs14doWalkFunctionEPNS_8FunctionEE14FinalOptimizerNS_7VisitorIS4_vEEE10doVisitNopEPS4_PPNS_10ExpressionE
_ZN4wasm6WalkerIZNS_15RemoveUnusedBrs14doWalkFunctionEPNS_8FunctionEE14FinalOptimizerNS_7VisitorIS4_vEEE18doVisitUnreachableEPS4_PPNS_10ExpressionE
_ZN4wasm6WalkerIZNS_15RemoveUnusedBrs14doWalkFunctionEPNS_8FunctionEE12JumpThreaderNS_7VisitorIS4_vEEE9doVisitIfEPS4_PPNS_10ExpressionE
_ZN4wasm6WalkerIZNS_15RemoveUnusedBrs14doWalkFunctionEPNS_8FunctionEE12JumpThreaderNS_7VisitorIS4_vEEE11doVisitLoopEPS4_PPNS_10ExpressionE
_ZN4wasm6WalkerIZNS_15RemoveUnusedBrs14doWalkFunctionEPNS_8FunctionEE12JumpThreaderNS_7VisitorIS4_vEEE13doVisitSwitchEPS4_PPNS_10ExpressionE
_ZN4wasm6WalkerIZNS_15RemoveUnusedBrs14doWalkFunctionEPNS_8FunctionEE12JumpThreaderNS_7VisitorIS4_vEEE11doVisitCallEPS4_PPNS_10ExpressionE
_ZN4wasm6WalkerIZNS_15RemoveUnusedBrs14doWalkFunctionEPNS_8FunctionEE12JumpThreaderNS_7VisitorIS4_vEEE17doVisitCallImportEPS4_PPNS_10ExpressionE
_ZN4wasm6WalkerIZNS_15RemoveUnusedBrs14doWalkFunctionEPNS_8FunctionEE12JumpThreaderNS_7VisitorIS4_vEEE19doVisitCallIndirectEPS4_PPNS_10ExpressionE
_ZN4wasm6WalkerIZNS_15RemoveUnusedBrs14doWalkFunctionEPNS_8FunctionEE12JumpThreaderNS_7VisitorIS4_vEEE15doVisitGetLocalEPS4_PPNS_10ExpressionE
_ZN4wasm6WalkerIZNS_15RemoveUnusedBrs14doWalkFunctionEPNS_8FunctionEE12JumpThreaderNS_7VisitorIS4_vEEE15doVisitSetLocalEPS4_PPNS_10ExpressionE
_ZN4wasm6WalkerIZNS_15RemoveUnusedBrs14doWalkFunctionEPNS_8FunctionEE12JumpThreaderNS_7VisitorIS4_vEEE16doVisitGetGlobalEPS4_PPNS_10ExpressionE
_ZN4wasm6WalkerIZNS_15RemoveUnusedBrs14doWalkFunctionEPNS_8FunctionEE12JumpThreaderNS_7VisitorIS4_vEEE16doVisitSetGlobalEPS4_PPNS_10ExpressionE
_ZN4wasm6WalkerIZNS_15RemoveUnusedBrs14doWalkFunctionEPNS_8FunctionEE12JumpThreaderNS_7VisitorIS4_vEEE11doVisitLoadEPS4_PPNS_10ExpressionE
_ZN4wasm6WalkerIZNS_15RemoveUnusedBrs14doWalkFunctionEPNS_8FunctionEE12JumpThreaderNS_7VisitorIS4_vEEE12doVisitStoreEPS4_PPNS_10ExpressionE
_ZN4wasm6WalkerIZNS_15RemoveUnusedBrs14doWalkFunctionEPNS_8FunctionEE12JumpThreaderNS_7VisitorIS4_vEEE16doVisitAtomicRMWEPS4_PPNS_10ExpressionE
_ZN4wasm6WalkerIZNS_15RemoveUnusedBrs14doWalkFunctionEPNS_8FunctionEE12JumpThreaderNS_7VisitorIS4_vEEE20doVisitAtomicCmpxchgEPS4_PPNS_10ExpressionE
_ZN4wasm6WalkerIZNS_15RemoveUnusedBrs14doWalkFunctionEPNS_8FunctionEE12JumpThreaderNS_7VisitorIS4_vEEE17doVisitAtomicWaitEPS4_PPNS_10ExpressionE
_ZN4wasm6WalkerIZNS_15RemoveUnusedBrs14doWalkFunctionEPNS_8FunctionEE12JumpThreaderNS_7VisitorIS4_vEEE17doVisitAtomicWakeEPS4_PPNS_10ExpressionE
_ZN4wasm6WalkerIZNS_15RemoveUnusedBrs14doWalkFunctionEPNS_8FunctionEE12JumpThreaderNS_7VisitorIS4_vEEE12doVisitConstEPS4_PPNS_10ExpressionE
_ZN4wasm6WalkerIZNS_15RemoveUnusedBrs14doWalkFunctionEPNS_8FunctionEE12JumpThreaderNS_7VisitorIS4_vEEE12doVisitUnaryEPS4_PPNS_10ExpressionE
_ZN4wasm6WalkerIZNS_15RemoveUnusedBrs14doWalkFunctionEPNS_8FunctionEE12JumpThreaderNS_7VisitorIS4_vEEE13doVisitBinaryEPS4_PPNS_10ExpressionE
_ZN4wasm6WalkerIZNS_15RemoveUnusedBrs14doWalkFunctionEPNS_8FunctionEE12JumpThreaderNS_7VisitorIS4_vEEE13doVisitSelectEPS4_PPNS_10ExpressionE
_ZN4wasm6WalkerIZNS_15RemoveUnusedBrs14doWalkFunctionEPNS_8FunctionEE12JumpThreaderNS_7VisitorIS4_vEEE11doVisitDropEPS4_PPNS_10ExpressionE
_ZN4wasm6WalkerIZNS_15RemoveUnusedBrs14doWalkFunctionEPNS_8FunctionEE12JumpThreaderNS_7VisitorIS4_vEEE13doVisitReturnEPS4_PPNS_10ExpressionE
_ZN4wasm6WalkerIZNS_15RemoveUnusedBrs14doWalkFunctionEPNS_8FunctionEE12JumpThreaderNS_7VisitorIS4_vEEE11doVisitHostEPS4_PPNS_10ExpressionE
_ZN4wasm6WalkerIZNS_15RemoveUnusedBrs14doWalkFunctionEPNS_8FunctionEE12JumpThreaderNS_7VisitorIS4_vEEE10doVisitNopEPS4_PPNS_10ExpressionE
_ZN4wasm6WalkerIZNS_15RemoveUnusedBrs14doWalkFunctionEPNS_8FunctionEE12JumpThreaderNS_7VisitorIS4_vEEE18doVisitUnreachableEPS4_PPNS_10ExpressionE
_ZN4wasm10WalkerPassINS_10PostWalkerINS_15RemoveUnusedBrsENS_7VisitorIS2_vEEEEED2Ev
_ZTVN4wasm10WalkerPassINS_10PostWalkerINS_15RemoveUnusedBrsENS_7VisitorIS2_vEEEEEE
_ZN4wasm10WalkerPassINS_10PostWalkerINS_15RemoveUnusedBrsENS_7VisitorIS2_vEEEEED1Ev
_ZN4wasm10WalkerPassINS_10PostWalkerINS_15RemoveUnusedBrsENS_7VisitorIS2_vEEEEED0Ev
_ZN4wasm15RemoveUnusedBrsD2Ev
_ZN4wasm15RemoveUnusedBrsD1Ev
_ZN4wasm15RemoveUnusedBrsD0Ev
_ZN4wasm17ControlFlowWalkerIZNS_15RemoveUnusedBrs14doWalkFunctionEPNS_8FunctionEE12JumpThreaderNS_7VisitorIS4_vEEE22doPostVisitControlFlowEPS4_PPNS_10ExpressionE
_ZN4wasm17ControlFlowWalkerIZNS_15RemoveUnusedBrs14doWalkFunctionEPNS_8FunctionEE12JumpThreaderNS_7VisitorIS4_vEEE21doPreVisitControlFlowEPS4_PPNS_10ExpressionE
_ZNSt6vectorIPPN4wasm10ExpressionESaIS3_EE17_M_realloc_insertIJRKS3_EEEvN9__gnu_cxx17__normal_iteratorIPS3_S5_EEDpOT_
_ZNSt6vectorIPN4wasm4LoopESaIS2_EE17_M_realloc_insertIJRKS2_EEEvN9__gnu_cxx17__normal_iteratorIPS2_S4_EEDpOT_
_ZN4wasm6WalkerINS_15RemoveUnusedBrsENS_7VisitorIS1_vEEE11doVisitLoopEPS1_PPNS_10ExpressionE
_ZNSt6vectorIPN4wasm5BreakESaIS2_EE17_M_realloc_insertIJRKS2_EEEvN9__gnu_cxx17__normal_iteratorIPS2_S4_EEDpOT_
_ZNSt8_Rb_treeIPN4wasm5BlockESt4pairIKS2_St6vectorIPNS0_5BreakESaIS7_EEESt10_Select1stISA_ESt4lessIS2_ESaISA_EE8_M_eraseEPSt13_Rb_tree_nodeISA_E
_ZNSt8_Rb_treeIPN4wasm5BlockESt4pairIKS2_St6vectorIPNS0_5BreakESaIS7_EEESt10_Select1stISA_ESt4lessIS2_ESaISA_EE5eraseERS4_
_ZNSt8_Rb_treeIPN4wasm5BreakESt4pairIKS2_NS0_4NameEESt10_Select1stIS6_ESt4lessIS2_ESaIS6_EE8_M_eraseEPSt13_Rb_tree_nodeIS6_E
_ZN4wasm7Builder10stealSliceEPNS_5BlockEjj
_ZZN4wasm15RemoveUnusedBrs12optimizeLoopEPNS_4LoopEENKUlPNS_10ExpressionES4_E_clES4_S4_
_ZNSt6vectorIS_IPPN4wasm10ExpressionESaIS3_EESaIS5_EE17_M_realloc_insertIJS5_EEEvN9__gnu_cxx17__normal_iteratorIPS5_S7_EEDpOT_
_ZN4wasm15RemoveUnusedBrs10saveIfTrueEPS0_PPNS_10ExpressionE
_ZNSt6vectorIN4wasm6WalkerINS0_15RemoveUnusedBrsENS0_7VisitorIS2_vEEE4TaskESaIS6_EE17_M_realloc_insertIJRPFvPS2_PPNS0_10ExpressionEERSD_EEEvN9__gnu_cxx17__normal_iteratorIPS6_S8_EEDpOT_
_ZNSt6vectorIN4wasm6WalkerINS0_15RemoveUnusedBrsENS0_7VisitorIS2_vEEE4TaskESaIS6_EE12emplace_backIJRPFvPS2_PPNS0_10ExpressionEERSD_EEEvDpOT_
_ZN4wasm6WalkerINS_15RemoveUnusedBrsENS_7VisitorIS1_vEEE8pushTaskEPFvPS1_PPNS_10ExpressionEES8_
_ZN4wasm10PostWalkerINS_15RemoveUnusedBrsENS_7VisitorIS1_vEEE4scanEPS1_PPNS_10ExpressionE
_ZN4wasm15RemoveUnusedBrs4scanEPS0_PPNS_10ExpressionE
_ZN4wasm6WalkerINS_15RemoveUnusedBrsENS_7VisitorIS1_vEEE9doVisitIfEPS1_PPNS_10ExpressionE
_ZN4wasm15RemoveUnusedBrs8visitAnyEPS0_PPNS_10ExpressionE
_ZN4wasm11BranchUtils12BranchSeeker10countNamedEPNS_10ExpressionENS_4NameE
_ZZN4wasm15RemoveUnusedBrs14doWalkFunctionEPNS_8FunctionEEN14FinalOptimizer7visitIfEPNS_2IfE
_ZN4wasm6WalkerIZNS_15RemoveUnusedBrs14doWalkFunctionEPNS_8FunctionEE14FinalOptimizerNS_7VisitorIS4_vEEE9doVisitIfEPS4_PPNS_10ExpressionE
_ZZN4wasm15RemoveUnusedBrs14doWalkFunctionEPNS_8FunctionEEN14FinalOptimizer10visitBlockEPNS_5BlockE
_ZN4wasm6WalkerIZNS_15RemoveUnusedBrs14doWalkFunctionEPNS_8FunctionEE14FinalOptimizerNS_7VisitorIS4_vEEE12doVisitBlockEPS4_PPNS_10ExpressionE
_ZSt9__find_ifIN9__gnu_cxx17__normal_iteratorIPPPN4wasm10ExpressionESt6vectorIS5_SaIS5_EEEENS0_5__ops10_Iter_predIZNS2_15RemoveUnusedBrs13stopValueFlowEvEUlS5_E_EEET_SG_SG_T0_St26random_access_iterator_tag
_ZNSt8_Rb_treeIPN4wasm5BlockESt4pairIKS2_St6vectorIPNS0_5BreakESaIS7_EEESt10_Select1stISA_ESt4lessIS2_ESaISA_EE24_M_get_insert_unique_posERS4_
_ZNSt8_Rb_treeIPN4wasm5BlockESt4pairIKS2_St6vectorIPNS0_5BreakESaIS7_EEESt10_Select1stISA_ESt4lessIS2_ESaISA_EE29_M_get_insert_hint_unique_posESt23_Rb_tree_const_iteratorISA_ERS4_
_ZNSt3mapIPN4wasm5BlockESt6vectorIPNS0_5BreakESaIS5_EESt4lessIS2_ESaISt4pairIKS2_S7_EEEixERSB_
_ZN4wasm6WalkerIZNS_15RemoveUnusedBrs14doWalkFunctionEPNS_8FunctionEE12JumpThreaderNS_7VisitorIS4_vEEE12doVisitBreakEPS4_PPNS_10ExpressionE
_ZNSt8_Rb_treeIPN4wasm5BreakESt4pairIKS2_NS0_4NameEESt10_Select1stIS6_ESt4lessIS2_ESaIS6_EE24_M_get_insert_unique_posERS4_
_ZNSt8_Rb_treeIPN4wasm5BreakESt4pairIKS2_NS0_4NameEESt10_Select1stIS6_ESt4lessIS2_ESaIS6_EE29_M_get_insert_hint_unique_posESt23_Rb_tree_const_iteratorIS6_ERS4_
_ZN4wasm6WalkerIZNS_15RemoveUnusedBrs14doWalkFunctionEPNS_8FunctionEE12JumpThreaderNS_7VisitorIS4_vEEE12doVisitBlockEPS4_PPNS_10ExpressionE
_ZNSt6vectorIN4wasm6WalkerIZNS0_15RemoveUnusedBrs14doWalkFunctionEPNS0_8FunctionEE12JumpThreaderNS0_7VisitorIS5_vEEE4TaskESaIS9_EE17_M_realloc_insertIJRPFvPS5_PPNS0_10ExpressionEERSG_EEEvN9__gnu_cxx17__normal_iteratorIPS9_SB_EEDpOT_
_ZNSt6vectorIN4wasm6WalkerIZNS0_15RemoveUnusedBrs14doWalkFunctionEPNS0_8FunctionEE12JumpThreaderNS0_7VisitorIS5_vEEE4TaskESaIS9_EE12emplace_backIJRPFvPS5_PPNS0_10ExpressionEERSG_EEEvDpOT_
_ZN4wasm6WalkerIZNS_15RemoveUnusedBrs14doWalkFunctionEPNS_8FunctionEE12JumpThreaderNS_7VisitorIS4_vEEE8pushTaskEPFvPS4_PPNS_10ExpressionEESB_
_ZN4wasm10PostWalkerIZNS_15RemoveUnusedBrs14doWalkFunctionEPNS_8FunctionEE12JumpThreaderNS_7VisitorIS4_vEEE4scanEPS4_PPNS_10ExpressionE
_ZN4wasm17ControlFlowWalkerIZNS_15RemoveUnusedBrs14doWalkFunctionEPNS_8FunctionEE12JumpThreaderNS_7VisitorIS4_vEEE4scanEPS4_PPNS_10ExpressionE
_ZNSt6vectorIN4wasm6WalkerIZNS0_15RemoveUnusedBrs14doWalkFunctionEPNS0_8FunctionEE14FinalOptimizerNS0_7VisitorIS5_vEEE4TaskESaIS9_EE17_M_realloc_insertIJRPFvPS5_PPNS0_10ExpressionEERSG_EEEvN9__gnu_cxx17__normal_iteratorIPS9_SB_EEDpOT_
_ZNSt6vectorIN4wasm6WalkerIZNS0_15RemoveUnusedBrs14doWalkFunctionEPNS0_8FunctionEE14FinalOptimizerNS0_7VisitorIS5_vEEE4TaskESaIS9_EE12emplace_backIJRPFvPS5_PPNS0_10ExpressionEERSG_EEEvDpOT_
_ZN4wasm6WalkerIZNS_15RemoveUnusedBrs14doWalkFunctionEPNS_8FunctionEE14FinalOptimizerNS_7VisitorIS4_vEEE8pushTaskEPFvPS4_PPNS_10ExpressionEESB_
_ZN4wasm15RemoveUnusedBrs14doWalkFunctionEPNS_8FunctionE
_ZN4wasm10PostWalkerIZNS_15RemoveUnusedBrs14doWalkFunctionEPNS_8FunctionEE14FinalOptimizerNS_7VisitorIS4_vEEE4scanEPS4_PPNS_10ExpressionE
_ZN4wasm10WalkerPassINS_10PostWalkerINS_15RemoveUnusedBrsENS_7VisitorIS2_vEEEEE11runFunctionEPNS_10PassRunnerEPNS_6ModuleEPNS_8FunctionE
_ZN4wasm10WalkerPassINS_10PostWalkerINS_15RemoveUnusedBrsENS_7VisitorIS2_vEEEEE3runEPNS_10PassRunnerEPNS_6ModuleE
_ZTSN4wasm7VisitorINS_15RemoveUnusedBrsEvEE
_ZTIN4wasm7VisitorINS_15RemoveUnusedBrsEvEE
_ZTSN4wasm6WalkerINS_15RemoveUnusedBrsENS_7VisitorIS1_vEEEE
_ZTIN4wasm6WalkerINS_15RemoveUnusedBrsENS_7VisitorIS1_vEEEE
_ZTSN4wasm10PostWalkerINS_15RemoveUnusedBrsENS_7VisitorIS1_vEEEE
_ZTIN4wasm10PostWalkerINS_15RemoveUnusedBrsENS_7VisitorIS1_vEEEE
_ZTSN4wasm10WalkerPassINS_10PostWalkerINS_15RemoveUnusedBrsENS_7VisitorIS2_vEEEEEE
_ZTIN4wasm10WalkerPassINS_10PostWalkerINS_15RemoveUnusedBrsENS_7VisitorIS2_vEEEEEE
_ZTSN4wasm15RemoveUnusedBrsE
_ZTIN4wasm15RemoveUnusedBrsE
_ZN4wasm17RemoveUnusedNames18isFunctionParallelEv
_ZN4wasm17RemoveUnusedNames6createEv
_ZTVN4wasm17RemoveUnusedNamesE
_ZN4wasm6WalkerINS_17RemoveUnusedNamesENS_7VisitorIS1_vEEE9doVisitIfEPS1_PPNS_10ExpressionE
_ZN4wasm6WalkerINS_17RemoveUnusedNamesENS_7VisitorIS1_vEEE11doVisitCallEPS1_PPNS_10ExpressionE
_ZN4wasm6WalkerINS_17RemoveUnusedNamesENS_7VisitorIS1_vEEE17doVisitCallImportEPS1_PPNS_10ExpressionE
_ZN4wasm6WalkerINS_17RemoveUnusedNamesENS_7VisitorIS1_vEEE19doVisitCallIndirectEPS1_PPNS_10ExpressionE
_ZN4wasm6WalkerINS_17RemoveUnusedNamesENS_7VisitorIS1_vEEE15doVisitGetLocalEPS1_PPNS_10ExpressionE
_ZN4wasm6WalkerINS_17RemoveUnusedNamesENS_7VisitorIS1_vEEE15doVisitSetLocalEPS1_PPNS_10ExpressionE
_ZN4wasm6WalkerINS_17RemoveUnusedNamesENS_7VisitorIS1_vEEE16doVisitGetGlobalEPS1_PPNS_10ExpressionE
_ZN4wasm6WalkerINS_17RemoveUnusedNamesENS_7VisitorIS1_vEEE16doVisitSetGlobalEPS1_PPNS_10ExpressionE
_ZN4wasm6WalkerINS_17RemoveUnusedNamesENS_7VisitorIS1_vEEE11doVisitLoadEPS1_PPNS_10ExpressionE
_ZN4wasm6WalkerINS_17RemoveUnusedNamesENS_7VisitorIS1_vEEE12doVisitStoreEPS1_PPNS_10ExpressionE
_ZN4wasm6WalkerINS_17RemoveUnusedNamesENS_7VisitorIS1_vEEE16doVisitAtomicRMWEPS1_PPNS_10ExpressionE
_ZN4wasm6WalkerINS_17RemoveUnusedNamesENS_7VisitorIS1_vEEE20doVisitAtomicCmpxchgEPS1_PPNS_10ExpressionE
_ZN4wasm6WalkerINS_17RemoveUnusedNamesENS_7VisitorIS1_vEEE17doVisitAtomicWaitEPS1_PPNS_10ExpressionE
_ZN4wasm6WalkerINS_17RemoveUnusedNamesENS_7VisitorIS1_vEEE17doVisitAtomicWakeEPS1_PPNS_10ExpressionE
_ZN4wasm6WalkerINS_17RemoveUnusedNamesENS_7VisitorIS1_vEEE12doVisitConstEPS1_PPNS_10ExpressionE
_ZN4wasm6WalkerINS_17RemoveUnusedNamesENS_7VisitorIS1_vEEE12doVisitUnaryEPS1_PPNS_10ExpressionE
_ZN4wasm6WalkerINS_17RemoveUnusedNamesENS_7VisitorIS1_vEEE13doVisitBinaryEPS1_PPNS_10ExpressionE
_ZN4wasm6WalkerINS_17RemoveUnusedNamesENS_7VisitorIS1_vEEE13doVisitSelectEPS1_PPNS_10ExpressionE
_ZN4wasm6WalkerINS_17RemoveUnusedNamesENS_7VisitorIS1_vEEE11doVisitDropEPS1_PPNS_10ExpressionE
_ZN4wasm6WalkerINS_17RemoveUnusedNamesENS_7VisitorIS1_vEEE13doVisitReturnEPS1_PPNS_10ExpressionE
_ZN4wasm6WalkerINS_17RemoveUnusedNamesENS_7VisitorIS1_vEEE11doVisitHostEPS1_PPNS_10ExpressionE
_ZN4wasm6WalkerINS_17RemoveUnusedNamesENS_7VisitorIS1_vEEE10doVisitNopEPS1_PPNS_10ExpressionE
_ZN4wasm6WalkerINS_17RemoveUnusedNamesENS_7VisitorIS1_vEEE18doVisitUnreachableEPS1_PPNS_10ExpressionE
_ZN4wasm10WalkerPassINS_10PostWalkerINS_17RemoveUnusedNamesENS_7VisitorIS2_vEEEEED2Ev
_ZTVN4wasm10WalkerPassINS_10PostWalkerINS_17RemoveUnusedNamesENS_7VisitorIS2_vEEEEEE
_ZN4wasm10WalkerPassINS_10PostWalkerINS_17RemoveUnusedNamesENS_7VisitorIS2_vEEEEED1Ev
_ZN4wasm10WalkerPassINS_10PostWalkerINS_17RemoveUnusedNamesENS_7VisitorIS2_vEEEEED0Ev
_ZNSt8_Rb_treeIPN4wasm10ExpressionES2_St9_IdentityIS2_ESt4lessIS2_ESaIS2_EE16_M_insert_uniqueIS2_EESt4pairISt17_Rb_tree_iteratorIS2_EbEOT_
_ZNSt8_Rb_treeIN4wasm4NameESt4pairIKS1_St3setIPNS0_10ExpressionESt4lessIS6_ESaIS6_EEESt10_Select1stISB_ES7_IS1_ESaISB_EE4findERS3_
_ZNSt8_Rb_treeIN4wasm4NameESt4pairIKS1_St3setIPNS0_10ExpressionESt4lessIS6_ESaIS6_EEESt10_Select1stISB_ES7_IS1_ESaISB_EE11equal_rangeERS3_
_ZNSt8_Rb_treeIN4wasm4NameESt4pairIKS1_St3setIPNS0_10ExpressionESt4lessIS6_ESaIS6_EEESt10_Select1stISB_ES7_IS1_ESaISB_EE24_M_get_insert_unique_posERS3_
_ZNSt8_Rb_treeIN4wasm4NameESt4pairIKS1_St3setIPNS0_10ExpressionESt4lessIS6_ESaIS6_EEESt10_Select1stISB_ES7_IS1_ESaISB_EE29_M_get_insert_hint_unique_posESt23_Rb_tree_const_iteratorISB_ERS3_
_ZNSt8_Rb_treeIN4wasm4NameESt4pairIKS1_St3setIPNS0_10ExpressionESt4lessIS6_ESaIS6_EEESt10_Select1stISB_ES7_IS1_ESaISB_EE22_M_emplace_hint_uniqueIJRKSt21piecewise_construct_tSt5tupleIJRS3_EESL_IJEEEEESt17_Rb_tree_iteratorISB_ESt23_Rb_tree_const_iteratorISB_EDpOT_
_ZN4wasm6WalkerINS_17RemoveUnusedNamesENS_7VisitorIS1_vEEE12doVisitBreakEPS1_PPNS_10ExpressionE
_ZN4wasm6WalkerINS_17RemoveUnusedNamesENS_7VisitorIS1_vEEE13doVisitSwitchEPS1_PPNS_10ExpressionE
_ZNSt8_Rb_treeIN4wasm4NameESt4pairIKS1_St3setIPNS0_10ExpressionESt4lessIS6_ESaIS6_EEESt10_Select1stISB_ES7_IS1_ESaISB_EE8_M_eraseEPSt13_Rb_tree_nodeISB_E
_ZN4wasm17RemoveUnusedNamesD2Ev
_ZN4wasm17RemoveUnusedNamesD1Ev
_ZN4wasm17RemoveUnusedNamesD0Ev
_ZNSt8_Rb_treeIN4wasm4NameESt4pairIKS1_St3setIPNS0_10ExpressionESt4lessIS6_ESaIS6_EEESt10_Select1stISB_ES7_IS1_ESaISB_EE5eraseERS3_
_ZN4wasm6WalkerINS_17RemoveUnusedNamesENS_7VisitorIS1_vEEE12doVisitBlockEPS1_PPNS_10ExpressionE
_ZN4wasm6WalkerINS_17RemoveUnusedNamesENS_7VisitorIS1_vEEE11doVisitLoopEPS1_PPNS_10ExpressionE
_ZNSt6vectorIN4wasm6WalkerINS0_17RemoveUnusedNamesENS0_7VisitorIS2_vEEE4TaskESaIS6_EE17_M_realloc_insertIJRPFvPS2_PPNS0_10ExpressionEERSD_EEEvN9__gnu_cxx17__normal_iteratorIPS6_S8_EEDpOT_
_ZNSt6vectorIN4wasm6WalkerINS0_17RemoveUnusedNamesENS0_7VisitorIS2_vEEE4TaskESaIS6_EE12emplace_backIJRPFvPS2_PPNS0_10ExpressionEERSD_EEEvDpOT_
_ZN4wasm10WalkerPassINS_10PostWalkerINS_17RemoveUnusedNamesENS_7VisitorIS2_vEEEEE11runFunctionEPNS_10PassRunnerEPNS_6ModuleEPNS_8FunctionE
_ZN4wasm10PostWalkerINS_17RemoveUnusedNamesENS_7VisitorIS1_vEEE4scanEPS1_PPNS_10ExpressionE
_ZN4wasm10WalkerPassINS_10PostWalkerINS_17RemoveUnusedNamesENS_7VisitorIS2_vEEEEE3runEPNS_10PassRunnerEPNS_6ModuleE
_ZTSN4wasm7VisitorINS_17RemoveUnusedNamesEvEE
_ZTIN4wasm7VisitorINS_17RemoveUnusedNamesEvEE
_ZTSN4wasm6WalkerINS_17RemoveUnusedNamesENS_7VisitorIS1_vEEEE
_ZTIN4wasm6WalkerINS_17RemoveUnusedNamesENS_7VisitorIS1_vEEEE
_ZTSN4wasm10PostWalkerINS_17RemoveUnusedNamesENS_7VisitorIS1_vEEEE
_ZTIN4wasm10PostWalkerINS_17RemoveUnusedNamesENS_7VisitorIS1_vEEEE
_ZTSN4wasm10WalkerPassINS_10PostWalkerINS_17RemoveUnusedNamesENS_7VisitorIS2_vEEEEEE
_ZTIN4wasm10WalkerPassINS_10PostWalkerINS_17RemoveUnusedNamesENS_7VisitorIS2_vEEEEEE
_ZTSN4wasm17RemoveUnusedNamesE
_ZTIN4wasm17RemoveUnusedNamesE
_ZN4wasm26RemoveUnusedModuleElementsD2Ev
_ZN4wasm26RemoveUnusedModuleElementsD1Ev
_ZN4wasm26RemoveUnusedModuleElementsD0Ev
_ZN4wasm6WalkerINS_20ReachabilityAnalyzerENS_7VisitorIS1_vEEE12doVisitBlockEPS1_PPNS_10ExpressionE
_ZN4wasm6WalkerINS_20ReachabilityAnalyzerENS_7VisitorIS1_vEEE9doVisitIfEPS1_PPNS_10ExpressionE
_ZN4wasm6WalkerINS_20ReachabilityAnalyzerENS_7VisitorIS1_vEEE11doVisitLoopEPS1_PPNS_10ExpressionE
_ZN4wasm6WalkerINS_20ReachabilityAnalyzerENS_7VisitorIS1_vEEE12doVisitBreakEPS1_PPNS_10ExpressionE
_ZN4wasm6WalkerINS_20ReachabilityAnalyzerENS_7VisitorIS1_vEEE13doVisitSwitchEPS1_PPNS_10ExpressionE
_ZN4wasm6WalkerINS_20ReachabilityAnalyzerENS_7VisitorIS1_vEEE19doVisitCallIndirectEPS1_PPNS_10ExpressionE
_ZN4wasm6WalkerINS_20ReachabilityAnalyzerENS_7VisitorIS1_vEEE15doVisitGetLocalEPS1_PPNS_10ExpressionE
_ZN4wasm6WalkerINS_20ReachabilityAnalyzerENS_7VisitorIS1_vEEE15doVisitSetLocalEPS1_PPNS_10ExpressionE
_ZN4wasm6WalkerINS_20ReachabilityAnalyzerENS_7VisitorIS1_vEEE11doVisitLoadEPS1_PPNS_10ExpressionE
_ZN4wasm6WalkerINS_20ReachabilityAnalyzerENS_7VisitorIS1_vEEE12doVisitStoreEPS1_PPNS_10ExpressionE
_ZN4wasm6WalkerINS_20ReachabilityAnalyzerENS_7VisitorIS1_vEEE16doVisitAtomicRMWEPS1_PPNS_10ExpressionE
_ZN4wasm6WalkerINS_20ReachabilityAnalyzerENS_7VisitorIS1_vEEE20doVisitAtomicCmpxchgEPS1_PPNS_10ExpressionE
_ZN4wasm6WalkerINS_20ReachabilityAnalyzerENS_7VisitorIS1_vEEE17doVisitAtomicWaitEPS1_PPNS_10ExpressionE
_ZN4wasm6WalkerINS_20ReachabilityAnalyzerENS_7VisitorIS1_vEEE17doVisitAtomicWakeEPS1_PPNS_10ExpressionE
_ZN4wasm6WalkerINS_20ReachabilityAnalyzerENS_7VisitorIS1_vEEE12doVisitConstEPS1_PPNS_10ExpressionE
_ZN4wasm6WalkerINS_20ReachabilityAnalyzerENS_7VisitorIS1_vEEE12doVisitUnaryEPS1_PPNS_10ExpressionE
_ZN4wasm6WalkerINS_20ReachabilityAnalyzerENS_7VisitorIS1_vEEE13doVisitBinaryEPS1_PPNS_10ExpressionE
_ZN4wasm6WalkerINS_20ReachabilityAnalyzerENS_7VisitorIS1_vEEE13doVisitSelectEPS1_PPNS_10ExpressionE
_ZN4wasm6WalkerINS_20ReachabilityAnalyzerENS_7VisitorIS1_vEEE11doVisitDropEPS1_PPNS_10ExpressionE
_ZN4wasm6WalkerINS_20ReachabilityAnalyzerENS_7VisitorIS1_vEEE13doVisitReturnEPS1_PPNS_10ExpressionE
_ZN4wasm6WalkerINS_20ReachabilityAnalyzerENS_7VisitorIS1_vEEE11doVisitHostEPS1_PPNS_10ExpressionE
_ZN4wasm6WalkerINS_20ReachabilityAnalyzerENS_7VisitorIS1_vEEE10doVisitNopEPS1_PPNS_10ExpressionE
_ZN4wasm6WalkerINS_20ReachabilityAnalyzerENS_7VisitorIS1_vEEE18doVisitUnreachableEPS1_PPNS_10ExpressionE
_ZN4wasm6WalkerINS_20FunctionTypeAnalyzerENS_7VisitorIS1_vEEE12doVisitBlockEPS1_PPNS_10ExpressionE
_ZN4wasm6WalkerINS_20FunctionTypeAnalyzerENS_7VisitorIS1_vEEE9doVisitIfEPS1_PPNS_10ExpressionE
_ZN4wasm6WalkerINS_20FunctionTypeAnalyzerENS_7VisitorIS1_vEEE11doVisitLoopEPS1_PPNS_10ExpressionE
_ZN4wasm6WalkerINS_20FunctionTypeAnalyzerENS_7VisitorIS1_vEEE12doVisitBreakEPS1_PPNS_10ExpressionE
_ZN4wasm6WalkerINS_20FunctionTypeAnalyzerENS_7VisitorIS1_vEEE13doVisitSwitchEPS1_PPNS_10ExpressionE
_ZN4wasm6WalkerINS_20FunctionTypeAnalyzerENS_7VisitorIS1_vEEE11doVisitCallEPS1_PPNS_10ExpressionE
_ZN4wasm6WalkerINS_20FunctionTypeAnalyzerENS_7VisitorIS1_vEEE17doVisitCallImportEPS1_PPNS_10ExpressionE
_ZN4wasm6WalkerINS_20FunctionTypeAnalyzerENS_7VisitorIS1_vEEE15doVisitGetLocalEPS1_PPNS_10ExpressionE
_ZN4wasm6WalkerINS_20FunctionTypeAnalyzerENS_7VisitorIS1_vEEE15doVisitSetLocalEPS1_PPNS_10ExpressionE
_ZN4wasm6WalkerINS_20FunctionTypeAnalyzerENS_7VisitorIS1_vEEE16doVisitGetGlobalEPS1_PPNS_10ExpressionE
_ZN4wasm6WalkerINS_20FunctionTypeAnalyzerENS_7VisitorIS1_vEEE16doVisitSetGlobalEPS1_PPNS_10ExpressionE
_ZN4wasm6WalkerINS_20FunctionTypeAnalyzerENS_7VisitorIS1_vEEE11doVisitLoadEPS1_PPNS_10ExpressionE
_ZN4wasm6WalkerINS_20FunctionTypeAnalyzerENS_7VisitorIS1_vEEE12doVisitStoreEPS1_PPNS_10ExpressionE
_ZN4wasm6WalkerINS_20FunctionTypeAnalyzerENS_7VisitorIS1_vEEE16doVisitAtomicRMWEPS1_PPNS_10ExpressionE
_ZN4wasm6WalkerINS_20FunctionTypeAnalyzerENS_7VisitorIS1_vEEE20doVisitAtomicCmpxchgEPS1_PPNS_10ExpressionE
_ZN4wasm6WalkerINS_20FunctionTypeAnalyzerENS_7VisitorIS1_vEEE17doVisitAtomicWaitEPS1_PPNS_10ExpressionE
_ZN4wasm6WalkerINS_20FunctionTypeAnalyzerENS_7VisitorIS1_vEEE17doVisitAtomicWakeEPS1_PPNS_10ExpressionE
_ZN4wasm6WalkerINS_20FunctionTypeAnalyzerENS_7VisitorIS1_vEEE12doVisitConstEPS1_PPNS_10ExpressionE
_ZN4wasm6WalkerINS_20FunctionTypeAnalyzerENS_7VisitorIS1_vEEE12doVisitUnaryEPS1_PPNS_10ExpressionE
_ZN4wasm6WalkerINS_20FunctionTypeAnalyzerENS_7VisitorIS1_vEEE13doVisitBinaryEPS1_PPNS_10ExpressionE
_ZN4wasm6WalkerINS_20FunctionTypeAnalyzerENS_7VisitorIS1_vEEE13doVisitSelectEPS1_PPNS_10ExpressionE
_ZN4wasm6WalkerINS_20FunctionTypeAnalyzerENS_7VisitorIS1_vEEE11doVisitDropEPS1_PPNS_10ExpressionE
_ZN4wasm6WalkerINS_20FunctionTypeAnalyzerENS_7VisitorIS1_vEEE13doVisitReturnEPS1_PPNS_10ExpressionE
_ZN4wasm6WalkerINS_20FunctionTypeAnalyzerENS_7VisitorIS1_vEEE11doVisitHostEPS1_PPNS_10ExpressionE
_ZN4wasm6WalkerINS_20FunctionTypeAnalyzerENS_7VisitorIS1_vEEE10doVisitNopEPS1_PPNS_10ExpressionE
_ZN4wasm6WalkerINS_20FunctionTypeAnalyzerENS_7VisitorIS1_vEEE18doVisitUnreachableEPS1_PPNS_10ExpressionE
_ZTVN4wasm26RemoveUnusedModuleElementsE
_ZNSt6vectorISt4pairIN4wasm17ModuleElementKindENS1_4NameEESaIS4_EEaSERKS6_
_ZNSt10_HashtableINSt7__cxx1112basic_stringIcSt11char_traitsIcESaIcEEESt4pairIKS5_PN4wasm12FunctionTypeEESaISB_ENSt8__detail10_Select1stESt8equal_toIS5_ESt4hashIS5_ENSD_18_Mod_range_hashingENSD_20_Default_ranged_hashENSD_20_Prime_rehash_policyENSD_17_Hashtable_traitsILb1ELb0ELb1EEEED2Ev
_ZNSt10_HashtableINSt7__cxx1112basic_stringIcSt11char_traitsIcESaIcEEESt4pairIKS5_PN4wasm12FunctionTypeEESaISB_ENSt8__detail10_Select1stESt8equal_toIS5_ESt4hashIS5_ENSD_18_Mod_range_hashingENSD_20_Default_ranged_hashENSD_20_Prime_rehash_policyENSD_17_Hashtable_traitsILb1ELb0ELb1EEEED1Ev
_ZNSt10_HashtableIPN4wasm12FunctionTypeES2_SaIS2_ENSt8__detail9_IdentityESt8equal_toIS2_ESt4hashIS2_ENS4_18_Mod_range_hashingENS4_20_Default_ranged_hashENS4_20_Prime_rehash_policyENS4_17_Hashtable_traitsILb0ELb1ELb1EEEED2Ev
_ZNSt10_HashtableIPN4wasm12FunctionTypeES2_SaIS2_ENSt8__detail9_IdentityESt8equal_toIS2_ESt4hashIS2_ENS4_18_Mod_range_hashingENS4_20_Default_ranged_hashENS4_20_Prime_rehash_policyENS4_17_Hashtable_traitsILb0ELb1ELb1EEEED1Ev
_ZNSt8_Rb_treeISt4pairIN4wasm17ModuleElementKindENS1_4NameEES4_St9_IdentityIS4_ESt4lessIS4_ESaIS4_EE8_M_eraseEPSt13_Rb_tree_nodeIS4_E
_ZNKSt8_Rb_treeISt4pairIN4wasm17ModuleElementKindENS1_4NameEES4_St9_IdentityIS4_ESt4lessIS4_ESaIS4_EE4findERKS4_
_ZNSt8_Rb_treeISt4pairIN4wasm17ModuleElementKindENS1_4NameEES4_St9_IdentityIS4_ESt4lessIS4_ESaIS4_EE16_M_insert_uniqueIRKS4_EES0_ISt17_Rb_tree_iteratorIS4_EbEOT_
_ZNSt6vectorISt4pairIN4wasm17ModuleElementKindENS1_4NameEESaIS4_EE17_M_realloc_insertIJS2_RS3_EEEvN9__gnu_cxx17__normal_iteratorIPS4_S6_EEDpOT_
_ZNSt6vectorISt4pairIN4wasm17ModuleElementKindENS1_4NameEESaIS4_EE12emplace_backIJS2_RS3_EEEvDpOT_
_ZN4wasm6WalkerINS_20ReachabilityAnalyzerENS_7VisitorIS1_vEEE16doVisitSetGlobalEPS1_PPNS_10ExpressionE
_ZN4wasm6WalkerINS_20ReachabilityAnalyzerENS_7VisitorIS1_vEEE16doVisitGetGlobalEPS1_PPNS_10ExpressionE
_ZN4wasm6WalkerINS_20ReachabilityAnalyzerENS_7VisitorIS1_vEEE17doVisitCallImportEPS1_PPNS_10ExpressionE
_ZN4wasm6WalkerINS_20ReachabilityAnalyzerENS_7VisitorIS1_vEEE11doVisitCallEPS1_PPNS_10ExpressionE
_ZNSt6vectorIPN4wasm8FunctionESaIS2_EE17_M_realloc_insertIJRKS2_EEEvN9__gnu_cxx17__normal_iteratorIPS2_S4_EEDpOT_
_ZNSt6vectorIPN4wasm12CallIndirectESaIS2_EE17_M_realloc_insertIJRKS2_EEEvN9__gnu_cxx17__normal_iteratorIPS2_S4_EEDpOT_
_ZN4wasm6WalkerINS_20FunctionTypeAnalyzerENS_7VisitorIS1_vEEE19doVisitCallIndirectEPS1_PPNS_10ExpressionE
_ZNKSt10_HashtableIPN4wasm12FunctionTypeES2_SaIS2_ENSt8__detail9_IdentityESt8equal_toIS2_ESt4hashIS2_ENS4_18_Mod_range_hashingENS4_20_Default_ranged_hashENS4_20_Prime_rehash_policyENS4_17_Hashtable_traitsILb0ELb1ELb1EEEE5countERKS2_
_ZNSt8__detail16_Hashtable_allocISaINS_10_Hash_nodeISt4pairIKNSt7__cxx1112basic_stringIcSt11char_traitsIcESaIcEEEPN4wasm12FunctionTypeEELb1EEEEE16_M_allocate_nodeIJRKSt21piecewise_construct_tSt5tupleIJRS9_EESL_IJEEEEEPSE_DpOT_
_ZNSt6vectorIN4wasm6WalkerINS0_20ReachabilityAnalyzerENS0_7VisitorIS2_vEEE4TaskESaIS6_EE17_M_realloc_insertIJRPFvPS2_PPNS0_10ExpressionEERSD_EEEvN9__gnu_cxx17__normal_iteratorIPS6_S8_EEDpOT_
_ZNSt6vectorIN4wasm6WalkerINS0_20ReachabilityAnalyzerENS0_7VisitorIS2_vEEE4TaskESaIS6_EE12emplace_backIJRPFvPS2_PPNS0_10ExpressionEERSD_EEEvDpOT_
_ZN4wasm10PostWalkerINS_20ReachabilityAnalyzerENS_7VisitorIS1_vEEE4scanEPS1_PPNS_10ExpressionE
_ZSt9__find_ifIN9__gnu_cxx17__normal_iteratorIPSt10unique_ptrIN4wasm8FunctionESt14default_deleteIS4_EESt6vectorIS7_SaIS7_EEEENS0_5__ops10_Iter_predIZNS3_26RemoveUnusedModuleElements27optimizeGlobalsAndFunctionsEPNS3_6ModuleEEUlRKS7_E_EEET_SM_SM_T0_St26random_access_iterator_tag
_ZSt11__remove_ifIN9__gnu_cxx17__normal_iteratorIPSt10unique_ptrIN4wasm8FunctionESt14default_deleteIS4_EESt6vectorIS7_SaIS7_EEEENS0_5__ops10_Iter_predIZNS3_26RemoveUnusedModuleElements27optimizeGlobalsAndFunctionsEPNS3_6ModuleEEUlRKS7_E_EEET_SM_SM_T0_
_ZSt9__find_ifIN9__gnu_cxx17__normal_iteratorIPSt10unique_ptrIN4wasm6GlobalESt14default_deleteIS4_EESt6vectorIS7_SaIS7_EEEENS0_5__ops10_Iter_predIZNS3_26RemoveUnusedModuleElements27optimizeGlobalsAndFunctionsEPNS3_6ModuleEEUlRKS7_E0_EEET_SM_SM_T0_St26random_access_iterator_tag
_ZSt9__find_ifIN9__gnu_cxx17__normal_iteratorIPSt10unique_ptrIN4wasm6ImportESt14default_deleteIS4_EESt6vectorIS7_SaIS7_EEEENS0_5__ops10_Iter_predIZNS3_26RemoveUnusedModuleElements27optimizeGlobalsAndFunctionsEPNS3_6ModuleEEUlRKS7_E1_EEET_SM_SM_T0_St26random_access_iterator_tag
_ZN4wasm26RemoveUnusedModuleElements27optimizeGlobalsAndFunctionsEPNS_6ModuleE
_ZNKSt10_HashtableINSt7__cxx1112basic_stringIcSt11char_traitsIcESaIcEEESt4pairIKS5_PN4wasm12FunctionTypeEESaISB_ENSt8__detail10_Select1stESt8equal_toIS5_ESt4hashIS5_ENSD_18_Mod_range_hashingENSD_20_Default_ranged_hashENSD_20_Prime_rehash_policyENSD_17_Hashtable_traitsILb1ELb0ELb1EEEE19_M_find_before_nodeEmRS7_m
_ZNSt10_HashtableINSt7__cxx1112basic_stringIcSt11char_traitsIcESaIcEEESt4pairIKS5_PN4wasm12FunctionTypeEESaISB_ENSt8__detail10_Select1stESt8equal_toIS5_ESt4hashIS5_ENSD_18_Mod_range_hashingENSD_20_Default_ranged_hashENSD_20_Prime_rehash_policyENSD_17_Hashtable_traitsILb1ELb0ELb1EEEE9_M_rehashEmRKm
_ZNSt8__detail9_Map_baseINSt7__cxx1112basic_stringIcSt11char_traitsIcESaIcEEESt4pairIKS6_PN4wasm12FunctionTypeEESaISC_ENS_10_Select1stESt8equal_toIS6_ESt4hashIS6_ENS_18_Mod_range_hashingENS_20_Default_ranged_hashENS_20_Prime_rehash_policyENS_17_Hashtable_traitsILb1ELb0ELb1EEELb1EEixERS8_
_ZSt11_Hash_bytesPKvmm
_ZSt9__find_ifIN9__gnu_cxx17__normal_iteratorIPSt10unique_ptrIN4wasm12FunctionTypeESt14default_deleteIS4_EESt6vectorIS7_SaIS7_EEEENS0_5__ops10_Iter_predIZNS3_26RemoveUnusedModuleElements21optimizeFunctionTypesEPNS3_6ModuleEEUlRS7_E0_EEET_SL_SL_T0_St26random_access_iterator_tag
_ZNSt10_HashtableIPN4wasm12FunctionTypeES2_SaIS2_ENSt8__detail9_IdentityESt8equal_toIS2_ESt4hashIS2_ENS4_18_Mod_range_hashingENS4_20_Default_ranged_hashENS4_20_Prime_rehash_policyENS4_17_Hashtable_traitsILb0ELb1ELb1EEEE9_M_rehashEmRKm
_ZNSt10_HashtableIPN4wasm12FunctionTypeES2_SaIS2_ENSt8__detail9_IdentityESt8equal_toIS2_ESt4hashIS2_ENS4_18_Mod_range_hashingENS4_20_Default_ranged_hashENS4_20_Prime_rehash_policyENS4_17_Hashtable_traitsILb0ELb1ELb1EEEE9_M_insertIRKS2_NS4_10_AllocNodeISaINS4_10_Hash_nodeIS2_Lb0EEEEEEEESt4pairINS4_14_Node_iteratorIS2_Lb1ELb0EEEbEOT_RKT0_St17integral_constantIbLb1EEm
_ZNSt6vectorIN4wasm6WalkerINS0_20FunctionTypeAnalyzerENS0_7VisitorIS2_vEEE4TaskESaIS6_EE17_M_realloc_insertIJRPFvPS2_PPNS0_10ExpressionEERSD_EEEvN9__gnu_cxx17__normal_iteratorIPS6_S8_EEDpOT_
_ZNSt6vectorIN4wasm6WalkerINS0_20FunctionTypeAnalyzerENS0_7VisitorIS2_vEEE4TaskESaIS6_EE12emplace_backIJRPFvPS2_PPNS0_10ExpressionEERSD_EEEvDpOT_
_ZN4wasm26RemoveUnusedModuleElements21optimizeFunctionTypesEPNS_6ModuleE
_ZN4wasm10PostWalkerINS_20FunctionTypeAnalyzerENS_7VisitorIS1_vEEE4scanEPS1_PPNS_10ExpressionE
_ZN4wasm26RemoveUnusedModuleElements3runEPNS_10PassRunnerEPNS_6ModuleE
_ZTSN4wasm26RemoveUnusedModuleElementsE
_ZTIN4wasm26RemoveUnusedModuleElementsE
_ZN4wasm13ReorderLocals18isFunctionParallelEv
_ZN4wasm13ReorderLocals6createEv
_ZTVN4wasm13ReorderLocalsE
_ZN4wasm6WalkerIZNS_13ReorderLocals13visitFunctionEPNS_8FunctionEE9ReIndexerNS_7VisitorIS4_vEEE12doVisitBlockEPS4_PPNS_10ExpressionE
_ZN4wasm6WalkerIZNS_13ReorderLocals13visitFunctionEPNS_8FunctionEE9ReIndexerNS_7VisitorIS4_vEEE9doVisitIfEPS4_PPNS_10ExpressionE
_ZN4wasm6WalkerIZNS_13ReorderLocals13visitFunctionEPNS_8FunctionEE9ReIndexerNS_7VisitorIS4_vEEE11doVisitLoopEPS4_PPNS_10ExpressionE
_ZN4wasm6WalkerIZNS_13ReorderLocals13visitFunctionEPNS_8FunctionEE9ReIndexerNS_7VisitorIS4_vEEE12doVisitBreakEPS4_PPNS_10ExpressionE
_ZN4wasm6WalkerIZNS_13ReorderLocals13visitFunctionEPNS_8FunctionEE9ReIndexerNS_7VisitorIS4_vEEE13doVisitSwitchEPS4_PPNS_10ExpressionE
_ZN4wasm6WalkerIZNS_13ReorderLocals13visitFunctionEPNS_8FunctionEE9ReIndexerNS_7VisitorIS4_vEEE11doVisitCallEPS4_PPNS_10ExpressionE
_ZN4wasm6WalkerIZNS_13ReorderLocals13visitFunctionEPNS_8FunctionEE9ReIndexerNS_7VisitorIS4_vEEE17doVisitCallImportEPS4_PPNS_10ExpressionE
_ZN4wasm6WalkerIZNS_13ReorderLocals13visitFunctionEPNS_8FunctionEE9ReIndexerNS_7VisitorIS4_vEEE19doVisitCallIndirectEPS4_PPNS_10ExpressionE
_ZN4wasm6WalkerIZNS_13ReorderLocals13visitFunctionEPNS_8FunctionEE9ReIndexerNS_7VisitorIS4_vEEE16doVisitGetGlobalEPS4_PPNS_10ExpressionE
_ZN4wasm6WalkerIZNS_13ReorderLocals13visitFunctionEPNS_8FunctionEE9ReIndexerNS_7VisitorIS4_vEEE16doVisitSetGlobalEPS4_PPNS_10ExpressionE
_ZN4wasm6WalkerIZNS_13ReorderLocals13visitFunctionEPNS_8FunctionEE9ReIndexerNS_7VisitorIS4_vEEE11doVisitLoadEPS4_PPNS_10ExpressionE
_ZN4wasm6WalkerIZNS_13ReorderLocals13visitFunctionEPNS_8FunctionEE9ReIndexerNS_7VisitorIS4_vEEE12doVisitStoreEPS4_PPNS_10ExpressionE
_ZN4wasm6WalkerIZNS_13ReorderLocals13visitFunctionEPNS_8FunctionEE9ReIndexerNS_7VisitorIS4_vEEE16doVisitAtomicRMWEPS4_PPNS_10ExpressionE
_ZN4wasm6WalkerIZNS_13ReorderLocals13visitFunctionEPNS_8FunctionEE9ReIndexerNS_7VisitorIS4_vEEE20doVisitAtomicCmpxchgEPS4_PPNS_10ExpressionE
_ZN4wasm6WalkerIZNS_13ReorderLocals13visitFunctionEPNS_8FunctionEE9ReIndexerNS_7VisitorIS4_vEEE17doVisitAtomicWaitEPS4_PPNS_10ExpressionE
_ZN4wasm6WalkerIZNS_13ReorderLocals13visitFunctionEPNS_8FunctionEE9ReIndexerNS_7VisitorIS4_vEEE17doVisitAtomicWakeEPS4_PPNS_10ExpressionE
_ZN4wasm6WalkerIZNS_13ReorderLocals13visitFunctionEPNS_8FunctionEE9ReIndexerNS_7VisitorIS4_vEEE12doVisitConstEPS4_PPNS_10ExpressionE
_ZN4wasm6WalkerIZNS_13ReorderLocals13visitFunctionEPNS_8FunctionEE9ReIndexerNS_7VisitorIS4_vEEE12doVisitUnaryEPS4_PPNS_10ExpressionE
_ZN4wasm6WalkerIZNS_13ReorderLocals13visitFunctionEPNS_8FunctionEE9ReIndexerNS_7VisitorIS4_vEEE13doVisitBinaryEPS4_PPNS_10ExpressionE
_ZN4wasm6WalkerIZNS_13ReorderLocals13visitFunctionEPNS_8FunctionEE9ReIndexerNS_7VisitorIS4_vEEE13doVisitSelectEPS4_PPNS_10ExpressionE
_ZN4wasm6WalkerIZNS_13ReorderLocals13visitFunctionEPNS_8FunctionEE9ReIndexerNS_7VisitorIS4_vEEE11doVisitDropEPS4_PPNS_10ExpressionE
_ZN4wasm6WalkerIZNS_13ReorderLocals13visitFunctionEPNS_8FunctionEE9ReIndexerNS_7VisitorIS4_vEEE13doVisitReturnEPS4_PPNS_10ExpressionE
_ZN4wasm6WalkerIZNS_13ReorderLocals13visitFunctionEPNS_8FunctionEE9ReIndexerNS_7VisitorIS4_vEEE11doVisitHostEPS4_PPNS_10ExpressionE
_ZN4wasm6WalkerIZNS_13ReorderLocals13visitFunctionEPNS_8FunctionEE9ReIndexerNS_7VisitorIS4_vEEE10doVisitNopEPS4_PPNS_10ExpressionE
_ZN4wasm6WalkerIZNS_13ReorderLocals13visitFunctionEPNS_8FunctionEE9ReIndexerNS_7VisitorIS4_vEEE18doVisitUnreachableEPS4_PPNS_10ExpressionE
_ZN4wasm6WalkerINS_13ReorderLocalsENS_7VisitorIS1_vEEE12doVisitBlockEPS1_PPNS_10ExpressionE
_ZN4wasm6WalkerINS_13ReorderLocalsENS_7VisitorIS1_vEEE9doVisitIfEPS1_PPNS_10ExpressionE
_ZN4wasm6WalkerINS_13ReorderLocalsENS_7VisitorIS1_vEEE11doVisitLoopEPS1_PPNS_10ExpressionE
_ZN4wasm6WalkerINS_13ReorderLocalsENS_7VisitorIS1_vEEE12doVisitBreakEPS1_PPNS_10ExpressionE
_ZN4wasm6WalkerINS_13ReorderLocalsENS_7VisitorIS1_vEEE13doVisitSwitchEPS1_PPNS_10ExpressionE
_ZN4wasm6WalkerINS_13ReorderLocalsENS_7VisitorIS1_vEEE11doVisitCallEPS1_PPNS_10ExpressionE
_ZN4wasm6WalkerINS_13ReorderLocalsENS_7VisitorIS1_vEEE17doVisitCallImportEPS1_PPNS_10ExpressionE
_ZN4wasm6WalkerINS_13ReorderLocalsENS_7VisitorIS1_vEEE19doVisitCallIndirectEPS1_PPNS_10ExpressionE
_ZN4wasm6WalkerINS_13ReorderLocalsENS_7VisitorIS1_vEEE16doVisitGetGlobalEPS1_PPNS_10ExpressionE
_ZN4wasm6WalkerINS_13ReorderLocalsENS_7VisitorIS1_vEEE16doVisitSetGlobalEPS1_PPNS_10ExpressionE
_ZN4wasm6WalkerINS_13ReorderLocalsENS_7VisitorIS1_vEEE11doVisitLoadEPS1_PPNS_10ExpressionE
_ZN4wasm6WalkerINS_13ReorderLocalsENS_7VisitorIS1_vEEE12doVisitStoreEPS1_PPNS_10ExpressionE
_ZN4wasm6WalkerINS_13ReorderLocalsENS_7VisitorIS1_vEEE16doVisitAtomicRMWEPS1_PPNS_10ExpressionE
_ZN4wasm6WalkerINS_13ReorderLocalsENS_7VisitorIS1_vEEE20doVisitAtomicCmpxchgEPS1_PPNS_10ExpressionE
_ZN4wasm6WalkerINS_13ReorderLocalsENS_7VisitorIS1_vEEE17doVisitAtomicWaitEPS1_PPNS_10ExpressionE
_ZN4wasm6WalkerINS_13ReorderLocalsENS_7VisitorIS1_vEEE17doVisitAtomicWakeEPS1_PPNS_10ExpressionE
_ZN4wasm6WalkerINS_13ReorderLocalsENS_7VisitorIS1_vEEE12doVisitConstEPS1_PPNS_10ExpressionE
_ZN4wasm6WalkerINS_13ReorderLocalsENS_7VisitorIS1_vEEE12doVisitUnaryEPS1_PPNS_10ExpressionE
_ZN4wasm6WalkerINS_13ReorderLocalsENS_7VisitorIS1_vEEE13doVisitBinaryEPS1_PPNS_10ExpressionE
_ZN4wasm6WalkerINS_13ReorderLocalsENS_7VisitorIS1_vEEE13doVisitSelectEPS1_PPNS_10ExpressionE
_ZN4wasm6WalkerINS_13ReorderLocalsENS_7VisitorIS1_vEEE11doVisitDropEPS1_PPNS_10ExpressionE
_ZN4wasm6WalkerINS_13ReorderLocalsENS_7VisitorIS1_vEEE13doVisitReturnEPS1_PPNS_10ExpressionE
_ZN4wasm6WalkerINS_13ReorderLocalsENS_7VisitorIS1_vEEE11doVisitHostEPS1_PPNS_10ExpressionE
_ZN4wasm6WalkerINS_13ReorderLocalsENS_7VisitorIS1_vEEE10doVisitNopEPS1_PPNS_10ExpressionE
_ZN4wasm6WalkerINS_13ReorderLocalsENS_7VisitorIS1_vEEE18doVisitUnreachableEPS1_PPNS_10ExpressionE
_ZN4wasm10WalkerPassINS_10PostWalkerINS_13ReorderLocalsENS_7VisitorIS2_vEEEEED2Ev
_ZTVN4wasm10WalkerPassINS_10PostWalkerINS_13ReorderLocalsENS_7VisitorIS2_vEEEEEE
_ZN4wasm10WalkerPassINS_10PostWalkerINS_13ReorderLocalsENS_7VisitorIS2_vEEEEED1Ev
_ZN4wasm10WalkerPassINS_10PostWalkerINS_13ReorderLocalsENS_7VisitorIS2_vEEEEED0Ev
_ZN4wasm6WalkerIZNS_13ReorderLocals13visitFunctionEPNS_8FunctionEE9ReIndexerNS_7VisitorIS4_vEEE15doVisitGetLocalEPS4_PPNS_10ExpressionE
_ZN4wasm6WalkerIZNS_13ReorderLocals13visitFunctionEPNS_8FunctionEE9ReIndexerNS_7VisitorIS4_vEEE15doVisitSetLocalEPS4_PPNS_10ExpressionE
_ZN4wasm13ReorderLocalsD2Ev
_ZN4wasm13ReorderLocalsD1Ev
_ZN4wasm13ReorderLocalsD0Ev
_ZNSt8_Rb_treeIjSt4pairIKjN4wasm4NameEESt10_Select1stIS4_ESt4lessIjESaIS4_EE14_M_insert_nodeEPSt18_Rb_tree_node_baseSC_PSt13_Rb_tree_nodeIS4_E
_ZN4wasm6WalkerINS_13ReorderLocalsENS_7VisitorIS1_vEEE15doVisitGetLocalEPS1_PPNS_10ExpressionE
_ZN4wasm6WalkerINS_13ReorderLocalsENS_7VisitorIS1_vEEE15doVisitSetLocalEPS1_PPNS_10ExpressionE
_ZNSt6vectorIN4wasm6WalkerIZNS0_13ReorderLocals13visitFunctionEPNS0_8FunctionEE9ReIndexerNS0_7VisitorIS5_vEEE4TaskESaIS9_EE17_M_realloc_insertIJRPFvPS5_PPNS0_10ExpressionEERSG_EEEvN9__gnu_cxx17__normal_iteratorIPS9_SB_EEDpOT_
_ZNSt6vectorIN4wasm6WalkerIZNS0_13ReorderLocals13visitFunctionEPNS0_8FunctionEE9ReIndexerNS0_7VisitorIS5_vEEE4TaskESaIS9_EE12emplace_backIJRPFvPS5_PPNS0_10ExpressionEERSG_EEEvDpOT_
_ZN4wasm10PostWalkerIZNS_13ReorderLocals13visitFunctionEPNS_8FunctionEE9ReIndexerNS_7VisitorIS4_vEEE4scanEPS4_PPNS_10ExpressionE
_ZSt25__unguarded_linear_insertIN9__gnu_cxx17__normal_iteratorIPjSt6vectorIjSaIjEEEENS0_5__ops14_Val_comp_iterIZN4wasm13ReorderLocals13visitFunctionEPNS9_8FunctionEEUljjE_EEEvT_T0_
_ZSt16__insertion_sortIN9__gnu_cxx17__normal_iteratorIPjSt6vectorIjSaIjEEEENS0_5__ops15_Iter_comp_iterIZN4wasm13ReorderLocals13visitFunctionEPNS9_8FunctionEEUljjE_EEEvT_SF_T0_
_ZSt13__adjust_heapIN9__gnu_cxx17__normal_iteratorIPjSt6vectorIjSaIjEEEEljNS0_5__ops15_Iter_comp_iterIZN4wasm13ReorderLocals13visitFunctionEPNS9_8FunctionEEUljjE_EEEvT_T0_SG_T1_T2_
_ZSt16__introsort_loopIN9__gnu_cxx17__normal_iteratorIPjSt6vectorIjSaIjEEEElNS0_5__ops15_Iter_comp_iterIZN4wasm13ReorderLocals13visitFunctionEPNS9_8FunctionEEUljjE_EEEvT_SF_T0_T1_
_ZN4wasm13ReorderLocals13visitFunctionEPNS_8FunctionE
_ZNSt6vectorIN4wasm6WalkerINS0_13ReorderLocalsENS0_7VisitorIS2_vEEE4TaskESaIS6_EE17_M_realloc_insertIJRPFvPS2_PPNS0_10ExpressionEERSD_EEEvN9__gnu_cxx17__normal_iteratorIPS6_S8_EEDpOT_
_ZNSt6vectorIN4wasm6WalkerINS0_13ReorderLocalsENS0_7VisitorIS2_vEEE4TaskESaIS6_EE12emplace_backIJRPFvPS2_PPNS0_10ExpressionEERSD_EEEvDpOT_
_ZN4wasm10WalkerPassINS_10PostWalkerINS_13ReorderLocalsENS_7VisitorIS2_vEEEEE11runFunctionEPNS_10PassRunnerEPNS_6ModuleEPNS_8FunctionE
_ZN4wasm10PostWalkerINS_13ReorderLocalsENS_7VisitorIS1_vEEE4scanEPS1_PPNS_10ExpressionE
_ZN4wasm10WalkerPassINS_10PostWalkerINS_13ReorderLocalsENS_7VisitorIS2_vEEEEE3runEPNS_10PassRunnerEPNS_6ModuleE
_ZTSN4wasm7VisitorINS_13ReorderLocalsEvEE
_ZTIN4wasm7VisitorINS_13ReorderLocalsEvEE
_ZTSN4wasm6WalkerINS_13ReorderLocalsENS_7VisitorIS1_vEEEE
_ZTIN4wasm6WalkerINS_13ReorderLocalsENS_7VisitorIS1_vEEEE
_ZTSN4wasm10PostWalkerINS_13ReorderLocalsENS_7VisitorIS1_vEEEE
_ZTIN4wasm10PostWalkerINS_13ReorderLocalsENS_7VisitorIS1_vEEEE
_ZTSN4wasm10WalkerPassINS_10PostWalkerINS_13ReorderLocalsENS_7VisitorIS2_vEEEEEE
_ZTIN4wasm10WalkerPassINS_10PostWalkerINS_13ReorderLocalsENS_7VisitorIS2_vEEEEEE
_ZTSN4wasm13ReorderLocalsE
_ZTIN4wasm13ReorderLocalsE
_ZN4wasm6WalkerINS_16ReorderFunctionsENS_7VisitorIS1_vEEE12doVisitBlockEPS1_PPNS_10ExpressionE
_ZN4wasm6WalkerINS_16ReorderFunctionsENS_7VisitorIS1_vEEE9doVisitIfEPS1_PPNS_10ExpressionE
_ZN4wasm6WalkerINS_16ReorderFunctionsENS_7VisitorIS1_vEEE11doVisitLoopEPS1_PPNS_10ExpressionE
_ZN4wasm6WalkerINS_16ReorderFunctionsENS_7VisitorIS1_vEEE12doVisitBreakEPS1_PPNS_10ExpressionE
_ZN4wasm6WalkerINS_16ReorderFunctionsENS_7VisitorIS1_vEEE13doVisitSwitchEPS1_PPNS_10ExpressionE
_ZN4wasm6WalkerINS_16ReorderFunctionsENS_7VisitorIS1_vEEE17doVisitCallImportEPS1_PPNS_10ExpressionE
_ZN4wasm6WalkerINS_16ReorderFunctionsENS_7VisitorIS1_vEEE19doVisitCallIndirectEPS1_PPNS_10ExpressionE
_ZN4wasm6WalkerINS_16ReorderFunctionsENS_7VisitorIS1_vEEE15doVisitGetLocalEPS1_PPNS_10ExpressionE
_ZN4wasm6WalkerINS_16ReorderFunctionsENS_7VisitorIS1_vEEE15doVisitSetLocalEPS1_PPNS_10ExpressionE
_ZN4wasm6WalkerINS_16ReorderFunctionsENS_7VisitorIS1_vEEE16doVisitGetGlobalEPS1_PPNS_10ExpressionE
_ZN4wasm6WalkerINS_16ReorderFunctionsENS_7VisitorIS1_vEEE16doVisitSetGlobalEPS1_PPNS_10ExpressionE
_ZN4wasm6WalkerINS_16ReorderFunctionsENS_7VisitorIS1_vEEE11doVisitLoadEPS1_PPNS_10ExpressionE
_ZN4wasm6WalkerINS_16ReorderFunctionsENS_7VisitorIS1_vEEE12doVisitStoreEPS1_PPNS_10ExpressionE
_ZN4wasm6WalkerINS_16ReorderFunctionsENS_7VisitorIS1_vEEE16doVisitAtomicRMWEPS1_PPNS_10ExpressionE
_ZN4wasm6WalkerINS_16ReorderFunctionsENS_7VisitorIS1_vEEE20doVisitAtomicCmpxchgEPS1_PPNS_10ExpressionE
_ZN4wasm6WalkerINS_16ReorderFunctionsENS_7VisitorIS1_vEEE17doVisitAtomicWaitEPS1_PPNS_10ExpressionE
_ZN4wasm6WalkerINS_16ReorderFunctionsENS_7VisitorIS1_vEEE17doVisitAtomicWakeEPS1_PPNS_10ExpressionE
_ZN4wasm6WalkerINS_16ReorderFunctionsENS_7VisitorIS1_vEEE12doVisitConstEPS1_PPNS_10ExpressionE
_ZN4wasm6WalkerINS_16ReorderFunctionsENS_7VisitorIS1_vEEE12doVisitUnaryEPS1_PPNS_10ExpressionE
_ZN4wasm6WalkerINS_16ReorderFunctionsENS_7VisitorIS1_vEEE13doVisitBinaryEPS1_PPNS_10ExpressionE
_ZN4wasm6WalkerINS_16ReorderFunctionsENS_7VisitorIS1_vEEE13doVisitSelectEPS1_PPNS_10ExpressionE
_ZN4wasm6WalkerINS_16ReorderFunctionsENS_7VisitorIS1_vEEE11doVisitDropEPS1_PPNS_10ExpressionE
_ZN4wasm6WalkerINS_16ReorderFunctionsENS_7VisitorIS1_vEEE13doVisitReturnEPS1_PPNS_10ExpressionE
_ZN4wasm6WalkerINS_16ReorderFunctionsENS_7VisitorIS1_vEEE11doVisitHostEPS1_PPNS_10ExpressionE
_ZN4wasm6WalkerINS_16ReorderFunctionsENS_7VisitorIS1_vEEE10doVisitNopEPS1_PPNS_10ExpressionE
_ZN4wasm6WalkerINS_16ReorderFunctionsENS_7VisitorIS1_vEEE18doVisitUnreachableEPS1_PPNS_10ExpressionE
_ZN4wasm10WalkerPassINS_10PostWalkerINS_16ReorderFunctionsENS_7VisitorIS2_vEEEEED2Ev
_ZTVN4wasm10WalkerPassINS_10PostWalkerINS_16ReorderFunctionsENS_7VisitorIS2_vEEEEEE
_ZN4wasm10WalkerPassINS_10PostWalkerINS_16ReorderFunctionsENS_7VisitorIS2_vEEEEED1Ev
_ZN4wasm10WalkerPassINS_10PostWalkerINS_16ReorderFunctionsENS_7VisitorIS2_vEEEEED0Ev
_ZTVN4wasm16ReorderFunctionsE
_ZN4wasm16ReorderFunctionsD2Ev
_ZN4wasm16ReorderFunctionsD1Ev
_ZN4wasm16ReorderFunctionsD0Ev
_ZN4wasm6WalkerINS_16ReorderFunctionsENS_7VisitorIS1_vEEE11doVisitCallEPS1_PPNS_10ExpressionE
_ZSt25__unguarded_linear_insertIN9__gnu_cxx17__normal_iteratorIPSt10unique_ptrIN4wasm8FunctionESt14default_deleteIS4_EESt6vectorIS7_SaIS7_EEEENS0_5__ops14_Val_comp_iterIZNS3_16ReorderFunctions11visitModuleEPNS3_6ModuleEEUlRKS7_SJ_E_EEEvT_T0_
_ZSt16__insertion_sortIN9__gnu_cxx17__normal_iteratorIPSt10unique_ptrIN4wasm8FunctionESt14default_deleteIS4_EESt6vectorIS7_SaIS7_EEEENS0_5__ops15_Iter_comp_iterIZNS3_16ReorderFunctions11visitModuleEPNS3_6ModuleEEUlRKS7_SJ_E_EEEvT_SM_T0_
_ZSt13__adjust_heapIN9__gnu_cxx17__normal_iteratorIPSt10unique_ptrIN4wasm8FunctionESt14default_deleteIS4_EESt6vectorIS7_SaIS7_EEEElS7_NS0_5__ops15_Iter_comp_iterIZNS3_16ReorderFunctions11visitModuleEPNS3_6ModuleEEUlRKS7_SJ_E_EEEvT_T0_SN_T1_T2_
_ZSt13__heap_selectIN9__gnu_cxx17__normal_iteratorIPSt10unique_ptrIN4wasm8FunctionESt14default_deleteIS4_EESt6vectorIS7_SaIS7_EEEENS0_5__ops15_Iter_comp_iterIZNS3_16ReorderFunctions11visitModuleEPNS3_6ModuleEEUlRKS7_SJ_E_EEEvT_SM_SM_T0_
_ZSt16__introsort_loopIN9__gnu_cxx17__normal_iteratorIPSt10unique_ptrIN4wasm8FunctionESt14default_deleteIS4_EESt6vectorIS7_SaIS7_EEEElNS0_5__ops15_Iter_comp_iterIZNS3_16ReorderFunctions11visitModuleEPNS3_6ModuleEEUlRKS7_SJ_E_EEEvT_SM_T0_T1_
_ZNSt6vectorIN4wasm6WalkerINS0_16ReorderFunctionsENS0_7VisitorIS2_vEEE4TaskESaIS6_EE17_M_realloc_insertIJRPFvPS2_PPNS0_10ExpressionEERSD_EEEvN9__gnu_cxx17__normal_iteratorIPS6_S8_EEDpOT_
_ZNSt6vectorIN4wasm6WalkerINS0_16ReorderFunctionsENS0_7VisitorIS2_vEEE4TaskESaIS6_EE12emplace_backIJRPFvPS2_PPNS0_10ExpressionEERSD_EEEvDpOT_
_ZN4wasm10WalkerPassINS_10PostWalkerINS_16ReorderFunctionsENS_7VisitorIS2_vEEEEE11runFunctionEPNS_10PassRunnerEPNS_6ModuleEPNS_8FunctionE
_ZN4wasm10PostWalkerINS_16ReorderFunctionsENS_7VisitorIS1_vEEE4scanEPS1_PPNS_10ExpressionE
_ZN4wasm10WalkerPassINS_10PostWalkerINS_16ReorderFunctionsENS_7VisitorIS2_vEEEEE3runEPNS_10PassRunnerEPNS_6ModuleE
_ZTSN4wasm7VisitorINS_16ReorderFunctionsEvEE
_ZTIN4wasm7VisitorINS_16ReorderFunctionsEvEE
_ZTSN4wasm6WalkerINS_16ReorderFunctionsENS_7VisitorIS1_vEEEE
_ZTIN4wasm6WalkerINS_16ReorderFunctionsENS_7VisitorIS1_vEEEE
_ZTSN4wasm10PostWalkerINS_16ReorderFunctionsENS_7VisitorIS1_vEEEE
_ZTIN4wasm10PostWalkerINS_16ReorderFunctionsENS_7VisitorIS1_vEEEE
_ZTSN4wasm10WalkerPassINS_10PostWalkerINS_16ReorderFunctionsENS_7VisitorIS2_vEEEEEE
_ZTIN4wasm10WalkerPassINS_10PostWalkerINS_16ReorderFunctionsENS_7VisitorIS2_vEEEEEE
_ZTSN4wasm16ReorderFunctionsE
_ZTIN4wasm16ReorderFunctionsE
_ZN4wasm12TrapModePass18isFunctionParallelEv
_ZN4wasm10WalkerPassINS_10PostWalkerINS_12TrapModePassENS_7VisitorIS2_vEEEEED2Ev
_ZTVN4wasm10WalkerPassINS_10PostWalkerINS_12TrapModePassENS_7VisitorIS2_vEEEEEE
_ZN4wasm10WalkerPassINS_10PostWalkerINS_12TrapModePassENS_7VisitorIS2_vEEEEED1Ev
_ZN4wasm12TrapModePass6createEv
_ZTVN4wasm12TrapModePassE
_ZN4wasm6WalkerINS_12TrapModePassENS_7VisitorIS1_vEEE12doVisitBlockEPS1_PPNS_10ExpressionE
_ZN4wasm6WalkerINS_12TrapModePassENS_7VisitorIS1_vEEE9doVisitIfEPS1_PPNS_10ExpressionE
_ZN4wasm6WalkerINS_12TrapModePassENS_7VisitorIS1_vEEE11doVisitLoopEPS1_PPNS_10ExpressionE
_ZN4wasm6WalkerINS_12TrapModePassENS_7VisitorIS1_vEEE12doVisitBreakEPS1_PPNS_10ExpressionE
_ZN4wasm6WalkerINS_12TrapModePassENS_7VisitorIS1_vEEE13doVisitSwitchEPS1_PPNS_10ExpressionE
_ZN4wasm6WalkerINS_12TrapModePassENS_7VisitorIS1_vEEE11doVisitCallEPS1_PPNS_10ExpressionE
_ZN4wasm6WalkerINS_12TrapModePassENS_7VisitorIS1_vEEE17doVisitCallImportEPS1_PPNS_10ExpressionE
_ZN4wasm6WalkerINS_12TrapModePassENS_7VisitorIS1_vEEE19doVisitCallIndirectEPS1_PPNS_10ExpressionE
_ZN4wasm6WalkerINS_12TrapModePassENS_7VisitorIS1_vEEE15doVisitGetLocalEPS1_PPNS_10ExpressionE
_ZN4wasm6WalkerINS_12TrapModePassENS_7VisitorIS1_vEEE15doVisitSetLocalEPS1_PPNS_10ExpressionE
_ZN4wasm6WalkerINS_12TrapModePassENS_7VisitorIS1_vEEE16doVisitGetGlobalEPS1_PPNS_10ExpressionE
_ZN4wasm6WalkerINS_12TrapModePassENS_7VisitorIS1_vEEE16doVisitSetGlobalEPS1_PPNS_10ExpressionE
_ZN4wasm6WalkerINS_12TrapModePassENS_7VisitorIS1_vEEE11doVisitLoadEPS1_PPNS_10ExpressionE
_ZN4wasm6WalkerINS_12TrapModePassENS_7VisitorIS1_vEEE12doVisitStoreEPS1_PPNS_10ExpressionE
_ZN4wasm6WalkerINS_12TrapModePassENS_7VisitorIS1_vEEE16doVisitAtomicRMWEPS1_PPNS_10ExpressionE
_ZN4wasm6WalkerINS_12TrapModePassENS_7VisitorIS1_vEEE20doVisitAtomicCmpxchgEPS1_PPNS_10ExpressionE
_ZN4wasm6WalkerINS_12TrapModePassENS_7VisitorIS1_vEEE17doVisitAtomicWaitEPS1_PPNS_10ExpressionE
_ZN4wasm6WalkerINS_12TrapModePassENS_7VisitorIS1_vEEE17doVisitAtomicWakeEPS1_PPNS_10ExpressionE
_ZN4wasm6WalkerINS_12TrapModePassENS_7VisitorIS1_vEEE12doVisitConstEPS1_PPNS_10ExpressionE
_ZN4wasm6WalkerINS_12TrapModePassENS_7VisitorIS1_vEEE13doVisitSelectEPS1_PPNS_10ExpressionE
_ZN4wasm6WalkerINS_12TrapModePassENS_7VisitorIS1_vEEE11doVisitDropEPS1_PPNS_10ExpressionE
_ZN4wasm6WalkerINS_12TrapModePassENS_7VisitorIS1_vEEE13doVisitReturnEPS1_PPNS_10ExpressionE
_ZN4wasm6WalkerINS_12TrapModePassENS_7VisitorIS1_vEEE11doVisitHostEPS1_PPNS_10ExpressionE
_ZN4wasm6WalkerINS_12TrapModePassENS_7VisitorIS1_vEEE10doVisitNopEPS1_PPNS_10ExpressionE
_ZN4wasm6WalkerINS_12TrapModePassENS_7VisitorIS1_vEEE18doVisitUnreachableEPS1_PPNS_10ExpressionE
_ZN4wasm10WalkerPassINS_10PostWalkerINS_12TrapModePassENS_7VisitorIS2_vEEEEED0Ev
_ZN4wasm17getBinaryFuncNameEPNS_6BinaryE
_ZN4wasm8I64U_REME
_ZN4wasm8I64S_DIVE
_ZN4wasm8I64U_DIVE
_ZN4wasm8I64S_REME
_ZN4wasm16getUnaryFuncNameEPNS_5UnaryE
_ZN4wasm15isTruncOpSignedENS_7UnaryOpE
_ZN4wasm12TrapModePassD2Ev
_ZN4wasm12TrapModePassD1Ev
_ZN4wasm12TrapModePassD0Ev
_ZNSt8_Rb_treeIN4wasm4NameESt4pairIKS1_PNS0_8FunctionEESt10_Select1stIS6_ESt4lessIS1_ESaIS6_EE4findERS3_
_ZN4wasm17generateUnaryFuncERNS_6ModuleEPNS_5UnaryE
_ZN4wasm18generateBinaryFuncERNS_6ModuleEPNS_6BinaryE
_ZNSt8_Rb_treeIN4wasm4NameESt4pairIKS1_PNS0_8FunctionEESt10_Select1stIS6_ESt4lessIS1_ESaIS6_EE24_M_get_insert_unique_posERS3_
_ZNSt8_Rb_treeIN4wasm4NameESt4pairIKS1_PNS0_8FunctionEESt10_Select1stIS6_ESt4lessIS1_ESaIS6_EE29_M_get_insert_hint_unique_posESt23_Rb_tree_const_iteratorIS6_ERS3_
_ZN4wasm16ensureBinaryFuncEPNS_6BinaryERNS_6ModuleERNS_25TrappingFunctionContainerE
_ZN4wasm18makeTrappingBinaryEPNS_6BinaryERNS_25TrappingFunctionContainerE
_ZN4wasm6WalkerINS_12TrapModePassENS_7VisitorIS1_vEEE13doVisitBinaryEPS1_PPNS_10ExpressionE
_ZN4wasm15ensureUnaryFuncEPNS_5UnaryERNS_6ModuleERNS_25TrappingFunctionContainerE
_ZNSt8_Rb_treeIN4wasm4NameESt4pairIKS1_PNS0_6ImportEESt10_Select1stIS6_ESt4lessIS1_ESaIS6_EE24_M_get_insert_unique_posERS3_
_ZNSt8_Rb_treeIN4wasm4NameESt4pairIKS1_PNS0_6ImportEESt10_Select1stIS6_ESt4lessIS1_ESaIS6_EE29_M_get_insert_hint_unique_posESt23_Rb_tree_const_iteratorIS6_ERS3_
_ZN4wasm22ensureF64ToI64JSImportERNS_25TrappingFunctionContainerE
_ZN4wasm17makeTrappingUnaryEPNS_5UnaryERNS_25TrappingFunctionContainerE
_ZN4wasm6WalkerINS_12TrapModePassENS_7VisitorIS1_vEEE12doVisitUnaryEPS1_PPNS_10ExpressionE
_ZNSt6vectorIN4wasm6WalkerINS0_12TrapModePassENS0_7VisitorIS2_vEEE4TaskESaIS6_EE17_M_realloc_insertIJRPFvPS2_PPNS0_10ExpressionEERSD_EEEvN9__gnu_cxx17__normal_iteratorIPS6_S8_EEDpOT_
_ZNSt6vectorIN4wasm6WalkerINS0_12TrapModePassENS0_7VisitorIS2_vEEE4TaskESaIS6_EE12emplace_backIJRPFvPS2_PPNS0_10ExpressionEERSD_EEEvDpOT_
_ZN4wasm10WalkerPassINS_10PostWalkerINS_12TrapModePassENS_7VisitorIS2_vEEEEE11runFunctionEPNS_10PassRunnerEPNS_6ModuleEPNS_8FunctionE
_ZN4wasm10PostWalkerINS_12TrapModePassENS_7VisitorIS1_vEEE4scanEPS1_PPNS_10ExpressionE
_ZN4wasm10WalkerPassINS_10PostWalkerINS_12TrapModePassENS_7VisitorIS2_vEEEEE3runEPNS_10PassRunnerEPNS_6ModuleE
_ZTSN4wasm7VisitorINS_12TrapModePassEvEE
_ZTIN4wasm7VisitorINS_12TrapModePassEvEE
_ZTSN4wasm6WalkerINS_12TrapModePassENS_7VisitorIS1_vEEEE
_ZTIN4wasm6WalkerINS_12TrapModePassENS_7VisitorIS1_vEEEE
_ZTSN4wasm10PostWalkerINS_12TrapModePassENS_7VisitorIS1_vEEEE
_ZTIN4wasm10PostWalkerINS_12TrapModePassENS_7VisitorIS1_vEEEE
_ZTSN4wasm10WalkerPassINS_10PostWalkerINS_12TrapModePassENS_7VisitorIS2_vEEEEEE
_ZTIN4wasm10WalkerPassINS_10PostWalkerINS_12TrapModePassENS_7VisitorIS2_vEEEEEE
_ZTSN4wasm12TrapModePassE
_ZTIN4wasm12TrapModePassE
_ZN4wasm18AccessInstrumenter18isFunctionParallelEv
_ZN4wasm18AccessInstrumenter6createEv
_ZTVN4wasm18AccessInstrumenterE
_ZN4wasm8SafeHeapD2Ev
_ZN4wasm8SafeHeapD1Ev
_ZN4wasm8SafeHeapD0Ev
_ZN4wasm10WalkerPassINS_10PostWalkerINS_18AccessInstrumenterENS_7VisitorIS2_vEEEEED2Ev
_ZTVN4wasm10WalkerPassINS_10PostWalkerINS_18AccessInstrumenterENS_7VisitorIS2_vEEEEEE
_ZN4wasm10WalkerPassINS_10PostWalkerINS_18AccessInstrumenterENS_7VisitorIS2_vEEEEED1Ev
_ZN4wasm6WalkerINS_18AccessInstrumenterENS_7VisitorIS1_vEEE12doVisitBlockEPS1_PPNS_10ExpressionE
_ZN4wasm6WalkerINS_18AccessInstrumenterENS_7VisitorIS1_vEEE9doVisitIfEPS1_PPNS_10ExpressionE
_ZN4wasm6WalkerINS_18AccessInstrumenterENS_7VisitorIS1_vEEE11doVisitLoopEPS1_PPNS_10ExpressionE
_ZN4wasm6WalkerINS_18AccessInstrumenterENS_7VisitorIS1_vEEE12doVisitBreakEPS1_PPNS_10ExpressionE
_ZN4wasm6WalkerINS_18AccessInstrumenterENS_7VisitorIS1_vEEE13doVisitSwitchEPS1_PPNS_10ExpressionE
_ZN4wasm6WalkerINS_18AccessInstrumenterENS_7VisitorIS1_vEEE11doVisitCallEPS1_PPNS_10ExpressionE
_ZN4wasm6WalkerINS_18AccessInstrumenterENS_7VisitorIS1_vEEE17doVisitCallImportEPS1_PPNS_10ExpressionE
_ZN4wasm6WalkerINS_18AccessInstrumenterENS_7VisitorIS1_vEEE19doVisitCallIndirectEPS1_PPNS_10ExpressionE
_ZN4wasm6WalkerINS_18AccessInstrumenterENS_7VisitorIS1_vEEE15doVisitGetLocalEPS1_PPNS_10ExpressionE
_ZN4wasm6WalkerINS_18AccessInstrumenterENS_7VisitorIS1_vEEE15doVisitSetLocalEPS1_PPNS_10ExpressionE
_ZN4wasm6WalkerINS_18AccessInstrumenterENS_7VisitorIS1_vEEE16doVisitGetGlobalEPS1_PPNS_10ExpressionE
_ZN4wasm6WalkerINS_18AccessInstrumenterENS_7VisitorIS1_vEEE16doVisitSetGlobalEPS1_PPNS_10ExpressionE
_ZN4wasm6WalkerINS_18AccessInstrumenterENS_7VisitorIS1_vEEE16doVisitAtomicRMWEPS1_PPNS_10ExpressionE
_ZN4wasm6WalkerINS_18AccessInstrumenterENS_7VisitorIS1_vEEE20doVisitAtomicCmpxchgEPS1_PPNS_10ExpressionE
_ZN4wasm6WalkerINS_18AccessInstrumenterENS_7VisitorIS1_vEEE17doVisitAtomicWaitEPS1_PPNS_10ExpressionE
_ZN4wasm6WalkerINS_18AccessInstrumenterENS_7VisitorIS1_vEEE17doVisitAtomicWakeEPS1_PPNS_10ExpressionE
_ZN4wasm6WalkerINS_18AccessInstrumenterENS_7VisitorIS1_vEEE12doVisitConstEPS1_PPNS_10ExpressionE
_ZN4wasm6WalkerINS_18AccessInstrumenterENS_7VisitorIS1_vEEE12doVisitUnaryEPS1_PPNS_10ExpressionE
_ZN4wasm6WalkerINS_18AccessInstrumenterENS_7VisitorIS1_vEEE13doVisitBinaryEPS1_PPNS_10ExpressionE
_ZN4wasm6WalkerINS_18AccessInstrumenterENS_7VisitorIS1_vEEE13doVisitSelectEPS1_PPNS_10ExpressionE
_ZN4wasm6WalkerINS_18AccessInstrumenterENS_7VisitorIS1_vEEE11doVisitDropEPS1_PPNS_10ExpressionE
_ZN4wasm6WalkerINS_18AccessInstrumenterENS_7VisitorIS1_vEEE13doVisitReturnEPS1_PPNS_10ExpressionE
_ZN4wasm6WalkerINS_18AccessInstrumenterENS_7VisitorIS1_vEEE11doVisitHostEPS1_PPNS_10ExpressionE
_ZN4wasm6WalkerINS_18AccessInstrumenterENS_7VisitorIS1_vEEE10doVisitNopEPS1_PPNS_10ExpressionE
_ZN4wasm6WalkerINS_18AccessInstrumenterENS_7VisitorIS1_vEEE18doVisitUnreachableEPS1_PPNS_10ExpressionE
_ZN4wasm18AccessInstrumenterD2Ev
_ZN4wasm18AccessInstrumenterD1Ev
_ZN4wasm10WalkerPassINS_10PostWalkerINS_18AccessInstrumenterENS_7VisitorIS2_vEEEEED0Ev
_ZN4wasm18AccessInstrumenterD0Ev
_ZTVN4wasm8SafeHeapE
_ZN4wasm6WalkerINS_18AccessInstrumenterENS_7VisitorIS1_vEEE12doVisitStoreEPS1_PPNS_10ExpressionE
_ZN4wasm6WalkerINS_18AccessInstrumenterENS_7VisitorIS1_vEEE11doVisitLoadEPS1_PPNS_10ExpressionE
_ZN4wasm8SafeHeap10addGlobalsEPNS_6ModuleE
_ZN4wasm8SafeHeap3runEPNS_10PassRunnerEPNS_6ModuleE
_ZNSt6vectorIN4wasm6WalkerINS0_18AccessInstrumenterENS0_7VisitorIS2_vEEE4TaskESaIS6_EE17_M_realloc_insertIJRPFvPS2_PPNS0_10ExpressionEERSD_EEEvN9__gnu_cxx17__normal_iteratorIPS6_S8_EEDpOT_
_ZNSt6vectorIN4wasm6WalkerINS0_18AccessInstrumenterENS0_7VisitorIS2_vEEE4TaskESaIS6_EE12emplace_backIJRPFvPS2_PPNS0_10ExpressionEERSD_EEEvDpOT_
_ZN4wasm10WalkerPassINS_10PostWalkerINS_18AccessInstrumenterENS_7VisitorIS2_vEEEEE11runFunctionEPNS_10PassRunnerEPNS_6ModuleEPNS_8FunctionE
_ZN4wasm10PostWalkerINS_18AccessInstrumenterENS_7VisitorIS1_vEEE4scanEPS1_PPNS_10ExpressionE
_ZN4wasm10WalkerPassINS_10PostWalkerINS_18AccessInstrumenterENS_7VisitorIS2_vEEEEE3runEPNS_10PassRunnerEPNS_6ModuleE
_ZTSN4wasm7VisitorINS_18AccessInstrumenterEvEE
_ZTIN4wasm7VisitorINS_18AccessInstrumenterEvEE
_ZTSN4wasm6WalkerINS_18AccessInstrumenterENS_7VisitorIS1_vEEEE
_ZTIN4wasm6WalkerINS_18AccessInstrumenterENS_7VisitorIS1_vEEEE
_ZTSN4wasm10PostWalkerINS_18AccessInstrumenterENS_7VisitorIS1_vEEEE
