L@d_
BE `
	!!p)
S@")
X9fE
o?+=
xe,f
+4g5
L9RKi
}8B\
^PDu
4K^y
,-Cz
KVo3
sb<@)
8uNQ
__gmon_start__
_init
_fini
_ITM_deregisterTMCloneTable
_ITM_registerTMCloneTable
__cxa_finalize
_Jv_RegisterClasses
LLVMAddCallSiteAttribute
LLVMAddDereferenceableAttr
LLVMAddDereferenceableCallSiteAttr
LLVMAddFunctionAttribute
LLVMConstFCmp
LLVMConstICmp
LLVMCountParams
LLVMCreateObjectFile
LLVMCreateTargetData
LLVMDisposeObjectFile
LLVMDisposeSectionIterator
LLVMDisposeTargetData
LLVMGetDiagInfoKind
LLVMGetParam
LLVMGetSections
LLVMGetValueName
LLVMInitializeAArch64AsmParser
LLVMInitializeAArch64AsmPrinter
LLVMInitializeAArch64Target
LLVMInitializeAArch64TargetInfo
LLVMInitializeAArch64TargetMC
LLVMInitializeARMAsmParser
LLVMInitializeARMAsmPrinter
LLVMInitializeARMTarget
LLVMInitializeARMTargetInfo
LLVMInitializeARMTargetMC
LLVMInitializePowerPCAsmParser
LLVMInitializePowerPCAsmPrinter
LLVMInitializePowerPCTarget
LLVMInitializePowerPCTargetInfo
LLVMInitializePowerPCTargetMC
LLVMInitializeX86AsmParser
LLVMInitializeX86AsmPrinter
LLVMInitializeX86Target
LLVMInitializeX86TargetInfo
LLVMInitializeX86TargetMC
LLVMRemoveFunctionAttributes
LLVMRustArchiveChildData
LLVMRustArchiveChildFree
LLVMRustArchiveChildName
LLVMRustArchiveIteratorFree
LLVMRustArchiveIteratorNew
LLVMRustArchiveIteratorNext
LLVMRustBuildOperandBundleDef
LLVMRustDestroyArchive
LLVMRustFreeOperandBundleDef
LLVMRustGetLastError
LLVMRustOpenArchive
LLVMRustSetComdat
LLVMRustSetDLLStorageClass
LLVMRustUnsetComdat
LLVMSetFunctionCallConv
LLVMSetInstructionCallConv
LLVMSetLinkage
LLVMSetThreadLocal
LLVMSetUnnamedAddr
LLVMUnpackInlineAsmDiagnostic
LLVMUnpackOptimizationDiagnostic
LLVMWriteDebugLocToString
LLVMWriteTwineToString
_Unwind_Resume
_ZN10rustc_llvm10Attributes10apply_llfn17h3b6d1fa2ce70942fE
_ZN10rustc_llvm10Attributes14apply_callsite17hea8977bc3599c900E
_ZN10rustc_llvm10Attributes19set_dereferenceable17ha456f4d516f6bf0cE
_ZN10rustc_llvm10Attributes21unset_dereferenceable17hbd701c9a3d865a8eE
_ZN10rustc_llvm10Attributes3set17h6b79fb26d72daddfE
_ZN10rustc_llvm10Attributes5unset17h21dd4f2ecd566061E
_ZN10rustc_llvm10ObjectFile3new17h99cbf71bf954d1dfE
_ZN10rustc_llvm10SetLinkage17h2ab353547aa62770E
_ZN10rustc_llvm10archive_ro5Child3raw17h7ec2c91cf46c48ecE
_ZN10rustc_llvm10archive_ro5Child4data17h4d8ea7e473397369E
_ZN10rustc_llvm10archive_ro5Child4name17h17a9196d88fc6a19E
_ZN10rustc_llvm10archive_ro9ArchiveRO3raw17h23082d6b638eb9d6E
_ZN10rustc_llvm10archive_ro9ArchiveRO4iter17hd31052ecec296e74E
_ZN10rustc_llvm10archive_ro9ArchiveRO4open17h2ddb51fa3f77a500E
_ZN10rustc_llvm10diagnostic10Diagnostic6unpack17h18d3cade3747a20aE
_ZN10rustc_llvm10diagnostic26OptimizationDiagnosticKind8describe17h4b564c4479ae741cE
_ZN10rustc_llvm10get_params17h4e5b17879096344eE
_ZN10rustc_llvm10last_error17h233b4484c109ccf9E
_ZN10rustc_llvm11UnsetComdat17h128cf0d2db0c07ddE
_ZN10rustc_llvm14SetUnnamedAddr17h57c71bd6cd57a93aE
_ZN10rustc_llvm14mk_target_data17h4d7c98ac708ca215E
_ZN10rustc_llvm15SetUniqueComdat17h32b0f1ccc5380f27E
_ZN10rustc_llvm15mk_section_iter17habf209c0f7a7b12cE
_ZN10rustc_llvm15twine_to_string17h4040355f1f412371E
_ZN10rustc_llvm16OperandBundleDef3new17h503fc4c04e18ff07E
_ZN10rustc_llvm16OperandBundleDef3raw17h442552c7b5f97a6eE
_ZN10rustc_llvm16set_thread_local17h5d285bd1ae01f993E
_ZN10rustc_llvm18SetDLLStorageClass17hae5d7e165d0e32c6E
_ZN10rustc_llvm19SetFunctionCallConv17h55912156a031f48eE
_ZN10rustc_llvm19debug_loc_to_string17h7fb887b97149bec8E
_ZN10rustc_llvm20SetFunctionAttribute17h85d67cdad80718c6E
_ZN10rustc_llvm22SetInstructionCallConv17hf8b0f96577d237f6E
_ZN10rustc_llvm24RemoveFunctionAttributes17hbabb6600e325706aE
_ZN10rustc_llvm28initialize_available_targets17h6896a02311f0696aE
_ZN10rustc_llvm9Attribute10intersects17he61e272ed6dfb966E
_ZN10rustc_llvm9Attribute18from_bits_truncate17h332cba74f4db7d34E
_ZN10rustc_llvm9Attribute3all17hdb3a642d961503dfE
_ZN10rustc_llvm9Attribute4bits17h3e432006711d315fE
_ZN10rustc_llvm9Attribute5empty17h7cf42c2562ee588fE
_ZN10rustc_llvm9Attribute6insert17h89cc7b0597096645E
_ZN10rustc_llvm9Attribute6is_all17h0880dce6b04bdbf9E
_ZN10rustc_llvm9Attribute6remove17hff7568af4fb83cd7E
_ZN10rustc_llvm9Attribute6toggle17h4f89501f5f51e61bE
_ZN10rustc_llvm9Attribute8contains17h78c3e6833d97c05dE
_ZN10rustc_llvm9Attribute8is_empty17hcda444226373fc7bE
_ZN10rustc_llvm9Attribute9from_bits17h0f929df105200d53E
_ZN10rustc_llvm9ConstFCmp17hb68e1a86c3b16396E
_ZN10rustc_llvm9ConstICmp17h628da54d808cc18bE
_ZN10rustc_llvm9get_param17hd6091c416ab46652E
_ZN11collections3str21_$LT$impl$u20$str$GT$4trim17h57dcdd91eac68165E
_ZN11collections6string6String15from_utf8_lossy17he47e8cc2c199e66cE
_ZN37_$LT$core..cell..RefCell$LT$T$GT$$GT$10borrow_mut14_MSG_FILE_LINE17h87278f509fdec581E
_ZN3std3ffi5c_str4CStr6as_ptr17hf82859e58326b69aE
_ZN3std3ffi5c_str4CStr8from_ptr17h3f66a7f779c5fbf4E
_ZN3std3ffi5c_str4CStr8to_bytes17h83dce34a6c751451E
_ZN3std3ffi5c_str7CString4_new17hb8d844e360b9d89aE
_ZN3std9panicking20rust_panic_with_hook17hd7b83626099d3416E
_ZN40_$LT$alloc..raw_vec..RawVec$LT$T$GT$$GT$13shrink_to_fit14_MSG_FILE_LINE17h5a739bd229068998E
_ZN42_$LT$str$u20$as$u20$core..fmt..Display$GT$3fmt17h6429d240a434bda6E
_ZN4core3fmt3num50_$LT$impl$u20$core..fmt..Debug$u20$for$u20$u64$GT$3fmt17hcfaaf5c11e3f4421E
_ZN4core3fmt5write17hd4f1762ae678891eE
_ZN4core3fmt8builders10DebugTuple6finish17hd2a922a74ff4be3fE
_ZN4core3fmt8builders11DebugStruct5field17h4ae53d0a7546d8cfE
_ZN4core3fmt8builders11DebugStruct6finish17hf66adfe473a5ece1E
_ZN4core3fmt8builders15debug_tuple_new17h31b4b18cbbc3f2e8E
_ZN4core3fmt8builders16debug_struct_new17h39c2fa3142ea1b06E
_ZN4core3str9from_utf817h2d534255874bbfc0E
_ZN4core4char10EncodeUtf88as_slice17h8a1a33d3a2f29176E
_ZN4core6option13expect_failed17ha6269a58a5455f37E
_ZN4core6result13unwrap_failed10_FILE_LINE17h730ed9164be33e67E
_ZN4core6result13unwrap_failed15__STATIC_FMTSTR17hc6881a6734b604a6E
_ZN4core9panicking5panic17heeca72c448510af4E
_ZN4core9panicking9panic_fmt17h2d3cc8234dde51b4E
_ZN51_$LT$T$u20$as$u20$collections..string..ToString$GT$9to_string15__STATIC_FMTSTR17h648b05decd83c685E
_ZN53_$LT$rustc_llvm..Linkage$u20$as$u20$core..cmp..Eq$GT$27assert_receiver_is_total_eq17h24b3415f8551379dE
_ZN55_$LT$rustc_llvm..Attribute$u20$as$u20$core..cmp..Eq$GT$27assert_receiver_is_total_eq17h5a83af5462d9dbb3E
_ZN56_$LT$rustc_llvm..Attribute$u20$as$u20$core..cmp..Ord$GT$3cmp17hacb0ad774451c9d6E
_ZN56_$LT$rustc_llvm..Attribute$u20$as$u20$core..ops..Not$GT$3not17h3291110c7b933164E
_ZN56_$LT$rustc_llvm..Attribute$u20$as$u20$core..ops..Sub$GT$3sub17h4245b4ae542a0a59E
_ZN56_$LT$rustc_llvm..Linkage$u20$as$u20$core..fmt..Debug$GT$3fmt17hb450c83ebbd4921cE
_ZN57_$LT$rustc_llvm..TypeKind$u20$as$u20$core..fmt..Debug$GT$3fmt17h1a598348ebb0f8edE
_ZN58_$LT$rustc_llvm..Attribute$u20$as$u20$core..fmt..Debug$GT$3fmt17h2f4557bc6af5eb0bE
_ZN58_$LT$rustc_llvm..Attribute$u20$as$u20$core..ops..BitOr$GT$5bitor17h9eaeae93e30862e1E
_ZN58_$LT$rustc_llvm..Linkage$u20$as$u20$core..clone..Clone$GT$5clone17h08b5fc8f1dad6981E
_ZN58_$LT$rustc_llvm..ObjectFile$u20$as$u20$core..ops..Drop$GT$4drop17h7588455471c1d6b2E
_ZN58_$LT$rustc_llvm..TargetData$u20$as$u20$core..ops..Drop$GT$4drop17he1247d768967384aE
_ZN59_$LT$rustc_llvm..Attribute$u20$as$u20$core..ops..BitAnd$GT$6bitand17hf175f220cbbd0340E
_ZN59_$LT$rustc_llvm..Attribute$u20$as$u20$core..ops..BitXor$GT$6bitxor17h7f0c9efdcd590396E
_ZN59_$LT$rustc_llvm..Attributes$u20$as$u20$core..fmt..Debug$GT$3fmt17h4c886bc723b55b9dE
_ZN59_$LT$rustc_llvm..CallConv$u20$as$u20$core..clone..Clone$GT$5clone17h835fdd0d64373b57E
_ZN59_$LT$rustc_llvm..FileType$u20$as$u20$core..clone..Clone$GT$5clone17h2ec31bdd4a3b87afE
_ZN59_$LT$rustc_llvm..SectionIter$u20$as$u20$core..ops..Drop$GT$4drop17h6e8c956fa6da05b0E
_ZN59_$LT$rustc_llvm..TypeKind$u20$as$u20$core..clone..Clone$GT$5clone17h81bfa2916bde2bd8E
_ZN5alloc3oom3oom17h8fced2f5f33bcdebE
_ZN60_$LT$rustc_llvm..Attribute$u20$as$u20$core..clone..Clone$GT$5clone17h2c07783481458783E
_ZN60_$LT$rustc_llvm..Linkage$u20$as$u20$core..cmp..PartialEq$GT$2eq17hb1c992fe0bfd6b7dE
_ZN60_$LT$rustc_llvm..RelocMode$u20$as$u20$core..clone..Clone$GT$5clone17hb3e950df70377380E
_ZN61_$LT$rustc_llvm..AsmDialect$u20$as$u20$core..clone..Clone$GT$5clone17hb4d3fa2be647a4e3E
_ZN61_$LT$rustc_llvm..Attributes$u20$as$u20$core..clone..Clone$GT$5clone17h27b898544fd0605eE
_ZN61_$LT$rustc_llvm..CallConv$u20$as$u20$core..cmp..PartialEq$GT$2eq17h97c926661bbe342eE
_ZN61_$LT$rustc_llvm..TypeKind$u20$as$u20$core..cmp..PartialEq$GT$2eq17h1b428d90175c6343E
_ZN61_$LT$rustc_llvm..Visibility$u20$as$u20$core..clone..Clone$GT$5clone17ha435e538d165d2f6E
_ZN61_$LT$std..ffi..c_str..CString$u20$as$u20$core..ops..Deref$GT$5deref17hd8d87483916c4bb0E
_ZN62_$LT$rustc_llvm..ArchiveKind$u20$as$u20$core..clone..Clone$GT$5clone17h30ca943cc125b804E
_ZN62_$LT$rustc_llvm..ArchiveKind$u20$as$u20$core..str..FromStr$GT$8from_str17h9825a64ef5e2882cE
_ZN62_$LT$rustc_llvm..AtomicBinOp$u20$as$u20$core..clone..Clone$GT$5clone17h55ba08766bad223eE
_ZN62_$LT$rustc_llvm..Attribute$u20$as$u20$core..cmp..PartialEq$GT$2eq17h18abbce7cf894ea9E
_ZN62_$LT$rustc_llvm..Attribute$u20$as$u20$core..cmp..PartialEq$GT$2ne17hf08ae666263b4f6fE
_ZN62_$LT$rustc_llvm..RelocMode$u20$as$u20$core..cmp..PartialEq$GT$2eq17hd42a33c255987898E
_ZN62_$LT$std..ffi..c_str..NulError$u20$as$u20$core..fmt..Debug$GT$3fmt17hf376e84e39f34588E
_ZN63_$LT$rustc_llvm..Attribute$u20$as$u20$core..cmp..PartialOrd$GT$11partial_cmp17hbae980ebd8d5bcfaE
_ZN63_$LT$rustc_llvm..Attribute$u20$as$u20$core..cmp..PartialOrd$GT$2ge17ha54fedf6411949f1E
_ZN63_$LT$rustc_llvm..Attribute$u20$as$u20$core..cmp..PartialOrd$GT$2gt17h703704ec330433c1E
_ZN63_$LT$rustc_llvm..Attribute$u20$as$u20$core..cmp..PartialOrd$GT$2le17h5e6d2349adb7c163E
_ZN63_$LT$rustc_llvm..Attribute$u20$as$u20$core..cmp..PartialOrd$GT$2lt17h720b9f7e09fd8b04E
_ZN63_$LT$rustc_llvm..AttributeSet$u20$as$u20$core..clone..Clone$GT$5clone17h9b48bdb1f3e70252E
_ZN63_$LT$rustc_llvm..CodeGenModel$u20$as$u20$core..clone..Clone$GT$5clone17habd2cee60edc1074E
_ZN63_$LT$rustc_llvm..IntPredicate$u20$as$u20$core..clone..Clone$GT$5clone17hdcf8609b2f7caee5E
_ZN63_$LT$rustc_llvm..MetadataType$u20$as$u20$core..clone..Clone$GT$5clone17h47e0d2c217ecd00bE
_ZN64_$LT$rustc_llvm..Attribute$u20$as$u20$core..default..Default$GT$7default17h8cd37d72e3ac9a5cE
_ZN64_$LT$rustc_llvm..OperandBundleDef$u20$as$u20$core..ops..Drop$GT$4drop17h57fe3fdb8b7f240eE
_ZN64_$LT$rustc_llvm..RealPredicate$u20$as$u20$core..clone..Clone$GT$5clone17h7d0c620530df8a70E
_ZN65_$LT$rustc_llvm..AtomicOrdering$u20$as$u20$core..clone..Clone$GT$5clone17hcf144da0a2590a07E
_ZN65_$LT$rustc_llvm..Attributes$u20$as$u20$core..default..Default$GT$7default17haea391902b0f5ab5E
_ZN65_$LT$rustc_llvm..CodeGenOptSize$u20$as$u20$core..clone..Clone$GT$5clone17h040cc3e5abbdf2a5E
_ZN65_$LT$rustc_llvm..DiagnosticKind$u20$as$u20$core..clone..Clone$GT$5clone17h4334253e3d9b7372E
_ZN66_$LT$rustc_llvm..CodeGenOptLevel$u20$as$u20$core..clone..Clone$GT$5clone17h66ea7a14306bb453E
_ZN66_$LT$rustc_llvm..SupportedPassKind$u20$as$u20$core..fmt..Debug$GT$3fmt17h0d9f40c6681bf7eeE
_ZN67_$LT$rustc_llvm..CodeGenOptSize$u20$as$u20$core..cmp..PartialEq$GT$2eq17haa61b3671bcc7fa4E
_ZN67_$LT$rustc_llvm..DiagnosticSeverity$u20$as$u20$core..fmt..Debug$GT$3fmt17he9baf5198a834e5aE
_ZN68_$LT$rustc_llvm..CodeGenOptLevel$u20$as$u20$core..cmp..PartialEq$GT$2eq17h44a11450a67485c4E
_ZN68_$LT$rustc_llvm..SupportedPassKind$u20$as$u20$core..clone..Clone$GT$5clone17hb6e7712c039f9447E
_ZN69_$LT$rustc_llvm..DiagnosticSeverity$u20$as$u20$core..clone..Clone$GT$5clone17h1c899d3214c2400eE
_ZN69_$LT$rustc_llvm..archive_ro..ArchiveRO$u20$as$u20$core..ops..Drop$GT$4drop17h5d8a464f7a34b2baE
_ZN70_$LT$rustc_llvm..SupportedPassKind$u20$as$u20$core..cmp..PartialEq$GT$2eq17h10e7ee2665df9e94E
_ZN71_$LT$rustc_llvm..DLLStorageClassTypes$u20$as$u20$core..clone..Clone$GT$5clone17hdd5356bb2575d58eE
_ZN71_$LT$rustc_llvm..SynchronizationScope$u20$as$u20$core..clone..Clone$GT$5clone17h9700f841efb2cbc7E
_ZN72_$LT$std..ffi..os_str..OsStr$u20$as$u20$std..sys..ext..ffi..OsStrExt$GT$8as_bytes17hb854401e3dd65dedE
_ZN78_$LT$rustc_llvm..archive_ro..Iter$LT$$u27$a$GT$$u20$as$u20$core..ops..Drop$GT$4drop17h65709e689f797b7cE
_ZN79_$LT$rustc_llvm..archive_ro..Child$LT$$u27$a$GT$$u20$as$u20$core..ops..Drop$GT$4drop17h34725cccdbb2ddffE
_ZN79_$LT$rustc_llvm..debuginfo..DIDescriptorFlags$u20$as$u20$core..clone..Clone$GT$5clone17h8ab242b6d7597c3aE
_ZN82_$LT$rustc_llvm..diagnostic..InlineAsmDiagnostic$u20$as$u20$core..clone..Clone$GT$5clone17h028741afacb7f292E
_ZN87_$LT$std..path..Path$u20$as$u20$core..convert..AsRef$LT$std..ffi..os_str..OsStr$GT$$GT$6as_ref17h7b59c86804fe9e3fE
_ZN89_$LT$rustc_llvm..diagnostic..OptimizationDiagnosticKind$u20$as$u20$core..clone..Clone$GT$5clone17h78f42aa8ba0740f5E
_ZN93_$LT$rustc_llvm..archive_ro..Iter$LT$$u27$a$GT$$u20$as$u20$core..iter..iterator..Iterator$GT$4next17h5a224ba1de81b54bE
_ZN97_$LT$collections..vec..Vec$LT$u8$GT$$u20$as$u20$core..convert..From$LT$$RF$$u27$a$u20$str$GT$$GT$4from17h5672745911fd4fa7E
__rust_allocate
__rust_deallocate
__rust_reallocate
free
memcmp
rust_eh_personality
rust_llvm_string_write_impl
rust_metadata_rustc_llvm_2e71449b4cd4feea
_ZTV20RustJITMemoryManager
_ZN4llvm20SectionMemoryManagerD2Ev
_ZdlPv
_ZN4llvm19RTDyldMemoryManager25getSymbolAddressInProcessERKNSt7__cxx1112basic_stringIcSt11char_traitsIcESaIcEEE
LLVMRustLoadDynamicLibrary
_ZN4llvm3sys14DynamicLibrary19getPermanentLibraryEPKcPNSt7__cxx1112basic_stringIcSt11char_traitsIcESaIcEEE
_ZN4llvm3sys14DynamicLibrary7InvalidE
_Z20LLVMRustSetLastErrorPKc
__stack_chk_fail
LLVMExecutionEngineAddModule
LLVMAddModule
LLVMExecutionEngineRemoveModule
LLVMExecutionEngineFinalizeObject
_ZNSt8_Rb_treeIN4llvm9StringRefESt4pairIKS1_NS0_11TargetRecip11RecipParamsEESt10_Select1stIS6_ESt4lessIS1_ESaIS6_EE8_M_eraseEPSt13_Rb_tree_nodeIS6_E
_ZNSt8_Rb_treeIN4llvm9StringRefESt4pairIKS1_NS0_11TargetRecip11RecipParamsEESt10_Select1stIS6_ESt4lessIS1_ESaIS6_EE7_M_copyINSC_20_Reuse_or_alloc_nodeEEEPSt13_Rb_tree_nodeIS6_EPKSG_PSt18_Rb_tree_node_baseRT_
_Znwm
LLVMBuildExecutionEngine
_ZN4llvm11TargetRecipC1Ev
_ZN4llvm15MCTargetOptionsC1Ev
_ZN4llvm13EngineBuilderC1ESt10unique_ptrINS_6ModuleESt14default_deleteIS2_EE
_ZN4llvm13EngineBuilder21setMCJITMemoryManagerESt10unique_ptrINS_19RTDyldMemoryManagerESt14default_deleteIS2_EE
_ZNSt7__cxx1112basic_stringIcSt11char_traitsIcESaIcEE9_M_assignERKS4_
_ZN4llvm13EngineBuilder12selectTargetEv
_ZN4llvm13EngineBuilder6createEPNS_13TargetMachineE
_ZN4llvm13EngineBuilderD1Ev
_ZN4llvm6ModuleD1Ev
getenv
LLVMLinkInInterpreter
LLVMLinkInMCJIT
_ZN4llvm20SectionMemoryManager19allocateCodeSectionEmjjNS_9StringRefE
_ZN4llvm20SectionMemoryManager19allocateDataSectionEmjjNS_9StringRefEb
_ZN4llvm19RTDyldMemoryManager16registerEHFramesEPhmm
_ZN4llvm19RTDyldMemoryManager18deregisterEHFramesEPhmm
_ZN4llvm20SectionMemoryManager14finalizeMemoryEPNSt7__cxx1112basic_stringIcSt11char_traitsIcESaIcEEE
_ZN4llvm11RuntimeDyld13MemoryManager6anchorEv
_ZN4llvm19RTDyldMemoryManager25getPointerToNamedFunctionERKNSt7__cxx1112basic_stringIcSt11char_traitsIcESaIcEEEb
_ZN4llvm20SectionMemoryManager26invalidateInstructionCacheEv
_ZN4llvm11RuntimeDyld14SymbolResolver6anchorEv
_ZTV23raw_rust_string_ostream
_ZN4llvm11raw_ostream14flush_nonemptyEv
_ZN4llvm11raw_ostreamD2Ev
_ZTVN4llvm14FuncletPadInstE
_ZN4llvm11InstructionD2Ev
_ZN4llvm4UserdlEPv
_ZSt19__throw_logic_errorPKc
_ZNSt7__cxx1112basic_stringIcSt11char_traitsIcESaIcEE9_M_createERmm
memcpy
strdup
LLVMRustCreateMemoryBufferWithContentsOfFile
_ZN4llvm12MemoryBuffer7getFileERKNS_5TwineElbb
LLVMRustSetNormalizedTarget
strlen
_ZN4llvm6Triple9normalizeB5cxx11ENS_9StringRefE
LLVMRustConstSmallInt
LLVMConstInt
LLVMRustConstInt
LLVMGetNamedValue
_ZNK4llvm6Module13getNamedValueENS_9StringRefE
LLVMGetOrInsertFunction
_ZN4llvm6Module19getOrInsertFunctionENS_9StringRefEPNS_12FunctionTypeE
LLVMGetOrInsertGlobal
_ZN4llvm6Module17getOrInsertGlobalENS_9StringRefEPNS_4TypeE
LLVMMetadataTypeInContext
_ZN4llvm4Type13getMetadataTyERNS_11LLVMContextE
LLVMRustSetHasUnsafeAlgebra
_ZN4llvm11Instruction19setHasUnsafeAlgebraEb
LLVMBuildAtomicLoad
_ZN4llvm4UsernwEmj
_ZN4llvm8LoadInstC1EPNS_4TypeEPNS_5ValueEPKcbPNS_11InstructionE
_ZN4llvm8LoadInst12setAlignmentEj
_ZN4llvm21SymbolTableListTraitsINS_11InstructionEE13addNodeToListEPS1_
_ZN4llvm5Value7setNameERKNS_5TwineE
_ZN4llvm16MetadataTracking5trackEPvRNS_8MetadataENS_12PointerUnionIPNS_15MetadataAsValueEPS2_EE
_ZN4llvm16MetadataTracking7untrackEPvRNS_8MetadataE
_ZN4llvm16MetadataTracking7retrackEPvRNS_8MetadataES1_
LLVMBuildAtomicStore
_ZN4llvm9StoreInstC1EPNS_5ValueES2_bPNS_11InstructionE
_ZN4llvm9StoreInst12setAlignmentEj
LLVMBuildAtomicCmpXchg
_ZN4llvm17AtomicCmpXchgInstC1EPNS_5ValueES2_S2_NS_14AtomicOrderingES3_NS_20SynchronizationScopeEPNS_11InstructionE
LLVMBuildAtomicFence
_ZN4llvm9FenceInstC1ERNS_11LLVMContextENS_14AtomicOrderingENS_20SynchronizationScopeEPNS_11InstructionE
LLVMSetDebug
LLVMInlineAsm
_ZN4llvm9InlineAsm3getEPNS_12FunctionTypeENS_9StringRefES3_bbNS0_10AsmDialectE
LLVMRustDebugMetadataVersion
LLVMVersionMinor
LLVMVersionMajor
LLVMRustAddModuleFlag
_ZN4llvm6Module13addModuleFlagENS0_15ModFlagBehaviorENS_9StringRefEj
LLVMDIBuilderCreate
_ZN4llvm9DIBuilderC1ERNS_6ModuleEb
LLVMDIBuilderDispose
LLVMDIBuilderFinalize
_ZN4llvm9DIBuilder8finalizeEv
LLVMDIBuilderCreateCompileUnit
_ZN4llvm9DIBuilder17createCompileUnitEjNS_9StringRefES1_S1_bS1_jS1_NS0_17DebugEmissionKindEmb
LLVMDIBuilderCreateFile
_ZN4llvm9DIBuilder10createFileENS_9StringRefES1_
LLVMDIBuilderCreateSubroutineType
_ZN4llvm9DIBuilder20createSubroutineTypeENS_14DITypeRefArrayEj
LLVMDIBuilderCreateFunction
_ZN4llvm9DIBuilder14createFunctionEPNS_7DIScopeENS_9StringRefES3_PNS_6DIFileEjPNS_16DISubroutineTypeEbbjjbNS_24MDTupleTypedArrayWrapperINS_19DITemplateParameterEEEPNS_12DISubprogramE
_ZN4llvm8Function13setSubprogramEPNS_12DISubprogramE
LLVMDIBuilderCreateBasicType
_ZN4llvm9DIBuilder15createBasicTypeENS_9StringRefEmmj
LLVMDIBuilderCreatePointerType
_ZN4llvm9DIBuilder17createPointerTypeEPNS_6DITypeEmmNS_9StringRefE
LLVMDIBuilderCreateStructType
_ZN4llvm9DIBuilder16createStructTypeEPNS_7DIScopeENS_9StringRefEPNS_6DIFileEjmmjPNS_6DITypeENS_24MDTupleTypedArrayWrapperINS_6DINodeEEEjS7_S3_
LLVMDIBuilderCreateMemberType
_ZN4llvm9DIBuilder16createMemberTypeEPNS_7DIScopeENS_9StringRefEPNS_6DIFileEjmmmjPNS_6DITypeE
LLVMDIBuilderCreateLexicalBlock
_ZN4llvm9DIBuilder18createLexicalBlockEPNS_7DIScopeEPNS_6DIFileEjj
LLVMDIBuilderCreateStaticVariable
_ZN4llvm9DIBuilder20createGlobalVariableEPNS_7DIScopeENS_9StringRefES3_PNS_6DIFileEjPNS_6DITypeEbPNS_8ConstantEPNS_6MDNodeE
LLVMDIBuilderCreateVariable
_ZN4llvm9DIBuilder23createParameterVariableEPNS_7DIScopeENS_9StringRefEjPNS_6DIFileEjPNS_6DITypeEbj
_ZN4llvm9DIBuilder18createAutoVariableEPNS_7DIScopeENS_9StringRefEPNS_6DIFileEjPNS_6DITypeEbj
LLVMDIBuilderCreateArrayType
_ZN4llvm9DIBuilder15createArrayTypeEmmPNS_6DITypeENS_24MDTupleTypedArrayWrapperINS_6DINodeEEE
LLVMDIBuilderCreateVectorType
_ZN4llvm9DIBuilder16createVectorTypeEmmPNS_6DITypeENS_24MDTupleTypedArrayWrapperINS_6DINodeEEE
LLVMDIBuilderGetOrCreateSubrange
_ZN4llvm9DIBuilder19getOrCreateSubrangeEll
LLVMDIBuilderGetOrCreateArray
_ZN4llvm9DIBuilder16getOrCreateArrayENS_8ArrayRefIPNS_8MetadataEEE
LLVMDIBuilderInsertDeclareAtEnd
_ZN4llvm8DebugLocC1EPKNS_6MDNodeE
_ZNK4llvm8DebugLoc3getEv
_ZN4llvm9DIBuilder16createExpressionENS_8ArrayRefIlEE
_ZN4llvm9DIBuilder13insertDeclareEPNS_5ValueEPNS_15DILocalVariableEPNS_12DIExpressionEPKNS_10DILocationEPNS_10BasicBlockE
LLVMDIBuilderInsertDeclareBefore
_ZN4llvm9DIBuilder13insertDeclareEPNS_5ValueEPNS_15DILocalVariableEPNS_12DIExpressionEPKNS_10DILocationEPNS_11InstructionE
LLVMDIBuilderCreateEnumerator
_ZN4llvm9DIBuilder16createEnumeratorENS_9StringRefEl
LLVMDIBuilderCreateEnumerationType
_ZN4llvm9DIBuilder21createEnumerationTypeEPNS_7DIScopeENS_9StringRefEPNS_6DIFileEjmmNS_24MDTupleTypedArrayWrapperINS_6DINodeEEEPNS_6DITypeES3_
LLVMDIBuilderCreateUnionType
_ZN4llvm9DIBuilder15createUnionTypeEPNS_7DIScopeENS_9StringRefEPNS_6DIFileEjmmjNS_24MDTupleTypedArrayWrapperINS_6DINodeEEEjS3_
LLVMDIBuilderCreateTemplateTypeParameter
_ZN4llvm9DIBuilder27createTemplateTypeParameterEPNS_7DIScopeENS_9StringRefEPNS_6DITypeE
LLVMDIBuilderCreateOpDeref
LLVMDIBuilderCreateOpPlus
LLVMDIBuilderCreateNameSpace
_ZN4llvm9DIBuilder15createNameSpaceEPNS_7DIScopeENS_9StringRefEPNS_6DIFileEj
LLVMDICompositeTypeSetTypeArray
_ZN4llvm9DIBuilder13replaceArraysERPNS_15DICompositeTypeENS_24MDTupleTypedArrayWrapperINS_6DINodeEEES6_
LLVMDIBuilderCreateDebugLocation
_ZN4llvm8DebugLoc3getEjjPKNS_6MDNodeES3_
_ZN4llvm15MetadataAsValue3getERNS_11LLVMContextEPNS_8MetadataE
LLVMWriteTypeToString
_ZNK4llvm4Type5printERNS_11raw_ostreamEb
LLVMWriteValueToString
_ZN4llvm11raw_ostream5writeEPKcm
_ZNK4llvm5Value5printERNS_11raw_ostreamEb
LLVMRustLinkInExternalBitcode
_ZN4llvm12MemoryBuffer16getMemBufferCopyENS_9StringRefERKNS_5TwineE
_ZN4llvm20getLazyBitcodeModuleEOSt10unique_ptrINS_12MemoryBufferESt14default_deleteIS1_EERNS_11LLVMContextEb
_ZTVN4llvm18raw_string_ostreamE
_ZN4llvm6Linker11linkModulesERNS_6ModuleESt10unique_ptrIS1_St14default_deleteIS1_EEj
_ZN4llvm18raw_string_ostreamD1Ev
LLVMRustGetSectionName
_ZN4llvm18report_fatal_errorERKNSt7__cxx1112basic_stringIcSt11char_traitsIcESaIcEEEb
LLVMRustArrayType
_ZN4llvm9ArrayType3getEPNS_4TypeEm
_ZNK4llvm5Twine5printERNS_11raw_ostreamE
LLVMWriteDiagnosticInfoToString
_ZTVN4llvm27DiagnosticPrinterRawOStreamE
_ZNK4llvm8DebugLoc5printERNS_11raw_ostreamE
LLVMSetInlineAsmDiagnosticHandler
_ZN4llvm11LLVMContext29setInlineAsmDiagnosticHandlerEPFvRKNS_12SMDiagnosticEPvjES4_
LLVMWriteSMDiagnosticToString
_ZNK4llvm12SMDiagnostic5printEPKcRNS_11raw_ostreamEbb
LLVMRustBuildLandingPad
LLVMBuildLandingPad
LLVMRustBuildCleanupPad
_ZN4llvm14FuncletPadInstC2ENS_11Instruction13FuncletPadOpsEPNS_5ValueENS_8ArrayRefIS4_EEjRKNS_5TwineEPS1_
_ZTVN4llvm14CleanupPadInstE
_ZN4llvm4Type10getTokenTyERNS_11LLVMContextE
_ZN4llvm8Constant12getNullValueEPNS_4TypeE
LLVMRustBuildCleanupRet
_ZN4llvm17CleanupReturnInstC1EPNS_5ValueEPNS_10BasicBlockEjPNS_11InstructionE
LLVMRustBuildCatchPad
_ZTVN4llvm12CatchPadInstE
LLVMRustBuildCatchRet
_ZN4llvm15CatchReturnInstC1EPNS_5ValueEPNS_10BasicBlockEPNS_11InstructionE
LLVMRustBuildCatchSwitch
_ZN4llvm4UsernwEm
_ZN4llvm15CatchSwitchInstC1EPNS_5ValueEPNS_10BasicBlockEjRKNS_5TwineEPNS_11InstructionE
LLVMRustAddHandler
_ZN4llvm15CatchSwitchInst10addHandlerEPNS_10BasicBlockE
LLVMRustSetPersonalityFn
_ZN4llvm8Function16setPersonalityFnEPNS_8ConstantE
LLVMRustBuildCall
_ZN4llvm4UsernwEmjj
_ZN4llvm11InstructionC2EPNS_4TypeEjPNS_3UseEjPS0_
_ZTVN4llvm8CallInstE
_ZN4llvm8CallInst4initEPNS_12FunctionTypeEPNS_5ValueENS_8ArrayRefIS4_EENS5_INS_17OperandBundleDefTIS4_EEEERKNS_5TwineE
_ZNK4llvm4Type13getScalarTypeEv
_ZN4llvm11Instruction11setMetadataEjPNS_6MDNodeE
_ZN4llvm11Instruction16setFastMathFlagsENS_13FastMathFlagsE
LLVMRustBuildInvoke
_ZTVN4llvm10InvokeInstE
_ZN4llvm10InvokeInst4initEPNS_12FunctionTypeEPNS_5ValueEPNS_10BasicBlockES6_NS_8ArrayRefIS4_EENS7_INS_17OperandBundleDefTIS4_EEEERKNS_5TwineE
LLVMRustPositionBuilderAtStart
_ZN4llvm10BasicBlock19getFirstInsertionPtEv
_ZN4llvm6TripleC1ERKNS_5TwineE
_ZN4llvm6Module17getOrInsertComdatENS_9StringRefE
_ZNSt8_Rb_treeINSt7__cxx1112basic_stringIcSt11char_traitsIcESaIcEEESt4pairIKS5_S5_ESt10_Select1stIS8_ESt4lessIS5_ESaIS8_EE8_M_eraseEPSt13_Rb_tree_nodeIS8_E
_ZN4llvm11AttrBuilder11addRawValueEm
_ZNK4llvm5Value10getContextEv
_ZN4llvm12AttributeSet3getERNS_11LLVMContextEjRKNS_11AttrBuilderE
_ZNK4llvm12AttributeSet13addAttributesERNS_11LLVMContextEjS0_
_ZN4llvm11AttrBuilder22addDereferenceableAttrEm
_ZNK4llvm8Function10getContextEv
_ZN4llvm8Function13addAttributesEjNS_12AttributeSetE
LLVMAddFunctionAttrString
_ZN4llvm11AttrBuilder12addAttributeENS_9StringRefES1_
LLVMAddFunctionAttrStringValue
_ZNK4llvm12AttributeSet16removeAttributesERNS_11LLVMContextEjS0_
LLVMRemoveFunctionAttrString
LLVMRustPrintPassTimings
_ZN4llvm14raw_fd_ostreamC1Eibb
_ZN4llvm10TimerGroup8printAllERNS_11raw_ostreamE
_ZN4llvm14raw_fd_ostreamD1Ev
_ZN4llvm4User6anchorEv
_ZN4llvm11raw_ostream6handleEv
_ZNK4llvm11raw_ostream21preferred_buffer_sizeEv
__printf_chk
LLVMInitializePasses
_ZN4llvm12PassRegistry15getPassRegistryEv
_ZN4llvm14initializeCoreERNS_12PassRegistryE
_ZN4llvm17initializeCodeGenERNS_12PassRegistryE
_ZN4llvm20initializeScalarOptsERNS_12PassRegistryE
_ZN4llvm23initializeVectorizationERNS_12PassRegistryE
_ZN4llvm13initializeIPOERNS_12PassRegistryE
_ZN4llvm18initializeAnalysisERNS_12PassRegistryE
_ZN4llvm24initializeTransformUtilsERNS_12PassRegistryE
_ZN4llvm21initializeInstCombineERNS_12PassRegistryE
_ZN4llvm25initializeInstrumentationERNS_12PassRegistryE
_ZN4llvm16initializeTargetERNS_12PassRegistryE
LLVMRustFindAndCreatePass
_ZNK4llvm12PassRegistry11getPassInfoENS_9StringRefE
LLVMRustPassKind
LLVMRustAddPass
LLVMRustHasFeature
_ZN4llvm12X86SubTypeKVE
_ZN4llvm12X86FeatureKVE
strcmp
_ZN4llvm12ARMSubTypeKVE
_ZN4llvm16AArch64SubTypeKVE
_ZN4llvm12ARMFeatureKVE
_ZN4llvm12PPCSubTypeKVE
_ZN4llvm12PPCFeatureKVE
_ZN4llvm16AArch64FeatureKVE
LLVMRustDisposeTargetMachine
LLVMRustAddAnalysisPasses
_ZN4llvm36createTargetTransformInfoWrapperPassENS_16TargetIRAnalysisE
LLVMRustConfigurePassManagerBuilder
LLVMRustAddBuilderLibraryInfo
_ZN4llvm21TargetLibraryInfoImplC1ERKNS_6TripleE
_ZN4llvm21TargetLibraryInfoImpl19disableAllFunctionsEv
LLVMRustAddLibraryInfo
_ZN4llvm28TargetLibraryInfoWrapperPassC1ERKNS_21TargetLibraryInfoImplE
LLVMRustRunFunctionPassManager
_ZN4llvm6legacy19FunctionPassManager16doInitializationEv
_ZNK4llvm11GlobalValue13isDeclarationEv
_ZN4llvm6legacy19FunctionPassManager3runERNS_8FunctionE
_ZN4llvm6legacy19FunctionPassManager14doFinalizationEv
LLVMRustSetLLVMOptions
_ZN4llvm2cl23ParseCommandLineOptionsEiPKPKcS2_
LLVMRustPrintPasses
_ZTVZ19LLVMRustPrintPassesE10MyListener
_ZN4llvm12PassRegistry13enumerateWithEPNS_24PassRegistrationListenerE
LLVMRustAddAlwaysInlinePass
_ZN4llvm23createAlwaysInlinerPassEb
LLVMRustMarkAllFunctionsNounwind
_ZNK4llvm12AttributeSet12addAttributeERNS_11LLVMContextEjNS_9Attribute8AttrKindE
_ZN4llvm10InvokeInst12addAttributeEjNS_9Attribute8AttrKindE
LLVMRustSetDataLayoutFromTargetMachine
_ZN4llvm10DataLayout5clearEv
memmove
_ZN4llvm6Module13setDataLayoutERKNS_10DataLayoutE
_ZN4llvm10DataLayoutD1Ev
_ZN4llvm15SmallVectorBase8grow_podEPvmm
LLVMRustGetModuleDataLayout
_ZNK4llvm6Module13getDataLayoutEv
LLVMRustCreateTargetMachine
_ZN4llvm14TargetRegistry12lookupTargetERKNSt7__cxx1112basic_stringIcSt11char_traitsIcESaIcEEERS6_
_ZN4llvm3sys14getHostCPUNameEv
LLVMRustWriteOutputFile
_ZNSt3_V215system_categoryEv
_ZN4llvm14raw_fd_ostreamC1ENS_9StringRefERSt10error_codeNS_3sys2fs9OpenFlagsE
_ZNKSt7__cxx1112basic_stringIcSt11char_traitsIcESaIcEE7compareEPKc
_ZN4llvm6legacy11PassManager3runERNS_6ModuleE
LLVMRustRunRestrictionPass
_ZN4llvm6legacy11PassManagerC1Ev
_ZN4llvm21createInternalizePassENS_8ArrayRefIPKcEE
_ZN4llvm6legacy11PassManager3addEPNS_4PassE
_ZN4llvm6legacy11PassManagerD1Ev
LLVMRustPrintModule
_ZTVN4llvm21formatted_raw_ostreamE
_ZN4llvm11raw_ostream16SetBufferAndModeEPcmNS0_10BufferKindE
_ZN4llvm21createPrintModulePassERNS_11raw_ostreamERKNSt7__cxx1112basic_stringIcSt11char_traitsIcESaIcEEEb
_ZNK4llvm14raw_fd_ostream21preferred_buffer_sizeEv
_Znam
_ZNK4llvm12MemoryBuffer15getMemBufferRefEv
_ZN4llvm6object7Archive6createENS_15MemoryBufferRefE
_ZN4llvm6object7Archive5ChildC1EPKS1_PKcPSt10error_code
_ZNK4llvm6object7Archive11child_beginEb
_ZNK4llvm6object7Archive9child_endEv
_ZNK4llvm6object7Archive5Child7getNextEv
_ZNK4llvm6object7Archive5Child7getNameEv
_ZNK4llvm6object7Archive5Child9getBufferEv
LLVMRustArchiveMemberNew
LLVMRustArchiveMemberFree
_ZNSt6vectorIN4llvm18NewArchiveIteratorESaIS1_EE19_M_emplace_back_auxIJS1_EEEvDpOT_
_ZNSt6vectorIN4llvm18NewArchiveIteratorESaIS1_EE12emplace_backIJS1_EEEvDpOT_
LLVMRustWriteArchive
_ZN4llvm18NewArchiveIteratorC1ENS_9StringRefE
_ZN4llvm18NewArchiveIteratorC1ERKNS_6object7Archive5ChildENS_9StringRefE
_ZN4llvm12writeArchiveENS_9StringRefERSt6vectorINS_18NewArchiveIteratorESaIS2_EEbNS_6object7Archive4KindEbb
libLLVM-3.8.so
libstd-39b92f95.so
libgcc_s.so.1
libc.so.6
_edata
__bss_start
_end
GCC_3.0
GLIBC_2.4
GLIBC_2.14
GLIBC_2.2.5
GLIBC_2.3.4
AVSH
 [A^]
H	7]
H!7]
H17]
AVSH
 [A^]
AVSH
 [A^]
H	7H
H!7H
AWAVSPI
[A^A_]
[A^A_]
AWAVSPI
[A^A_]
[A^A_]
AVSI
>coff
[A^]
AVSH
[A^]
AVSH
`[A^]
AVSA
[A^]
AWAVSPI
AWAVAUATSH
tmE1
fffff.
8[A\A]A^A_]
AVSH
[A^]
AWAVATSI
$6L9
rzI)
ffff.
[A\A^A_]
AWAVAUATSH
t!I9
H[A\A]A^A_]
AWAVAUATSH
t!M9
H[A\A]A^A_]
AWAVAUATSH
t=H9
[A\A]A^A_]
AVSH
[A^]
AVSH
[A^]
AWAVATSH
`[A\A^A_]
AWAVSH
x[A^A_]
AVSI
[A^]
AVSH
0[A^]
@pH9
D$(1
L$(dH3
@pH9
t/ATI
[]A\
AWAVI
AUATI
D$ H
D$(H
tbH;X
[]A\A]A^A_
D$ H
D$(H
AVAUATUSH
l$`L
d$@L
T$`H
D$0H
D$ H
T$(H
|$0H
D$ H
EpH9
|$@L9
dH34%(
[]A\A]A^
`(f.
ATUI
$w8H
[]A\
D$h1
|$ E1
D$ u#H
\$hdH3
t$(H
T$ H
|$@H9
|$ H
AUATUSH
D$H1
l$ H
T$ H
T$(H
T$0H
D$ H
L$0H
|$ H9
D$HdH3
X[]A\A]
D$ H
D$(H
D$0H
ATUI
[]A\
ATUI
[]A\
AWAVI
AUAT
D$(1
C(H9G8H
L$(dH3
8[]A\A]A^A_
AWAVI
AUATI
D$(1
C(H;G8H
L$(dH3
8[]A\A]A^A_
AVAUI
ATUI
D$81
^AXH
C(H9G8H
t$ H
L$p1
L$8dH3
@[]A\A]A^
AUATA
D$(1
C(H9G8H
L$(dH3
8[]A\A]
AWAVE
AUATI
([]A\A]A^A_
ATUA
[]A\
AVAUATUH
e`L9
ExH9
E@H9
]A\A]A^
AWAVM
AUATE
|$ H
t$,H
l$pH
RAVH
AUAT
[]A\A]A^A_
AUATI
[]A\A]
AWAVI
AUATI
l$pH
L$TAQL
D$`APH
L$XL
L$PI
[]A\A]A^A_
AVAUE
ATUI
[]A\A]A^
AUATI
[]A\A]
AWAVI
AUATI
AVAUH
L$HAQD
D$\E
h[]A\A]A^A_
AWAVM
AUATI
T$`L
t$`H
t$`AW
8[]A\A]A^A_
AWAVI
AUATI
\$XL
t$hH
t$hL
L$$L
D$0M
H[]A\A]A^A_
AWAVI
AUATM
\$HtD
t$PAVD
[]A\A]A^A_
L$XM
[]A\A]A^A_
AWAVI
AUATI
|$`dH
([]A\A]A^A_
AWAVI
AUATI
|$`dH
([]A\A]A^A_
ATUI
[]A\
AWAVE1
AUATL
AVAUH
t$pL
t$pL
L$(H
D$<E
H[]A\A]A^A_
AWAVI
AUATI
|$pD
AVAUH
L$8AQD
D$LE
X[]A\A]A^A_
AUATI
[]A\A]
AVAUE
ATUI
[]A\A]A^
D$81
t$(H
H9D$
D$8dH3
ATUI
D$81
t$(H
H9D$
H9D$
H9D$
D$8dH3
@[]A\
AVAUI
ATUSH
d$ H
|$P1
t$XH
T$PH
|$pH9
[]A\A]A^
l$pH
D$pH
l$HH
D$ H
D$PH
|$pH9
l$PH
D$81
L$8dH3
D$81
t$(H
H9D$
D$8dH3
D$H1
H9D$(H
D$HdH3
D$81
T$(H
H9D$
D$8dH3
D$81
t$(H
H9D$
D$8dH3
AWAVI
AUATA
D$X1
D$HE
ZYt*H
C(H;G8H
t$ H
L$XdH3
h[]A\A]A^A_
AVAUI
ATU1
D$(1
C(H9G8H
L$(dH3
0[]A\A]A^
AWAVI
AUATI
D$H1
D$8E
ZYt*H
C(H;G8H
L$HdH3
X[]A\A]A^A_
AUATI
D$(1
C(H9G8H
L$(dH3
8[]A\A]
AVAUA
ATUI
D$X1
D$@H
C(H9G8H
t$ H
L$XdH3
`[]A\A]A^
AWAVAUATI
D$(1
L$(dH3
8[]A\A]A^A_
t3SH
AWAVI
AUATUSL
D$h1
@(I+@ I
L$(H
L$ D
L$ L
L$(I
P(H+P H
U(H+U H
l$PH
ASARH
G(H9G8I
t$0L
t$PH
\$hdH3
x[]A\A]A^A_
L$ D
L$ I
t$PH
AWAVI
AUATI
L$ L
B(H+B H
L$8H
L$0D
D$,H
L$0L
$AWAVL
T$ L
\$(ASARL
D$@H
L$(L
D$(H9G8I
t$PL
l$@I
t$@H
t$8H
t$@H
t$8t
[]A\A]A^A_
t$@H
4$tNH
AUATI
\$ H
D$X1
|$ H
D$XdH3
h[]A\A]
tSATI
C0H9
[]A\
AUATA
D$X1
D$ H
D$(H
D$XdH3
h[]A\A]
AUATA
D$X1
D$ H
D$(H
D$XdH3
h[]A\A]
ATUA
D$X1
D$ H
D$(H
D$XdH3
`[]A\
ATUA
D$X1
D$ H
D$(H
D$XdH3
`[]A\
AUATI
D$X1
D$ H
D$(H
D$XdH3
h[]A\A]
AWAVI
AUATI
D$X1
D$ H
D$(H
D$XdH3
h[]A\A]A^A_
AUATA
D$h1
D$ H
D$0H
t$(H
D$hdH3
x[]A\A]
AVAUI
ATUA
D$h1
D$ L
D$0H
D$8H
t$(H
D$hdH3
p[]A\A]A^
D$H1
D$HdH3
AWAVAUATUSH
t$0H
L$ H
D$(H
t:x=M
$H9L$
[]A\A]A^A_
t$ L
|$(L
t:x=M
4$L9t$
t$ L
|$(L
t>xAM
C0M)
4$L9t$
t@xCM
l$ L
E0M)
H9L$ 
D$ H
D$ H
L$ H9L$
D$ 1
H9L$ 
D$ H
ATUH
D$(1
D$(dH3
0[]A\
AUATH
\$ H
D$X1
|$ H
D$XdH3
h[]A\A]
AVAUH
ATUH
d$ H
\$`H
|$ L9
[]A\A]A^
ATUI
[0H9
[hH9
[hH9
AWAVH
AUATUSH
[(H9
[(H9
vhL9t$
[]A\A]A^A_
AWAVAUATI
D$0L
|$(L
D$ H
D$HL
l$@H
D$0H
D$8H
C I9
C@I9
D$0L
t$8I
L$8L
[]A\A]A^A_
D$@I)
D$0L
L$ H)
<(H)
D$0L
D$0H
AWAVI
AUATUSH
d$pH
L$,D
D$0D
L$4H
D$(dH
\$PH
D$ H
D$@H
t$8H
D$4L
D$4P
D$@PSL
D$(L
L$@H
L$0L
T$8A
CpH9
|$pI
[]A\A]A^A_
AWAVI
AUATI
\$`H
l$ L
|$`E1
|$`H9
dH34%(
[]A\A]A^A_
@0H9
D$`H9
T$`H
L$pH
T$hH
L$,L
T$`H
D$hH
D$pI
AUATI
([]A\A]
AWAVI
AUATI
d$ H
D$(t	H
|$0H
\$`I)
D$`H
D$hH9D$xt
t$pI)
[]A\A]A^A_
D$hH9D$xH
\$`t
D$hH9D$xH
|$0E1
t$0H
l$PH
\$0H
t$XH
T$PH
|$pH9
|$PH
|$0H
t$8H
T$0H
|$pH9
t+SH
ATUSH
D$H1
D$(H
C(H9
D$(H
D$0H
D$8H
T$HdH3
P[]A\
D$(H
D$0H
D$8H
D$(H
ATUSH
O dH
D$(1
<$H9
t$(dH34%(
0[]A\
S0H9S
L$H1
L$HdH3
\$ H
|$ H9
AUATI
[]A\A]
AVAUH
mATUI
P0I9
G8H)
[]A\A]A^
AWAVAUATUSH
D$ H
\$@H
D$(D
L$,L
T$`XY
|$ H
[]A\A]A^A_
D$ H
\$@H
t$XH
ExternalLinkage
AvailableExternallyLinkage
LinkOnceAnyLinkage
LinkOnceODRLinkageWeakAnyLinkageWeakODRLinkageAppendingLinkageInternalLinkagePrivateLinkage
ExternalWeakLinkageCommonLinkageErrorWarningRemarkNoteAttributebits
Attributesregular
dereferenceable_bytesVoidHalfFloatDoubleX86_FP80FP128PPC_FP128LabelIntegerFunctionStructArrayPointerVectorMetadataX86_MMXgnumips64bsdcoffModuleUnsupported
called `Result::unwrap()` on an `Err` value
assertion failed: index < LLVMCountParams(llfn)
src/librustc_llvm/lib.rs
capacity overflow
got a non-UTF8 Twine from LLVM
got a non-UTF8 DebugLoc from LLVM
failed to read data from archive child
src/librustc_llvm/archive_ro.rsremarkmissedanalysisfailure
basic_string::_M_construct null not valid
%15s - %s
native
;*3$"
zPLR
rust
"*vET@
33gf
MKHJ
8")9=5!;qxzf
2Ss2
.arv~~
;fLn
0ulAqI
=%%c
%.IQaa	M
2?aRNn
@$.J
e31R>
99yE,
K"RI
bI&iT#"*
-lpb
oJm]
FR2;
&R?5!>
itRR\|[
RHZG
kRB\jrbzjZjr
DetIh
wBZbF
y|\S
*!5-.
,-1[8
(-119=
.>>1
R!qbJ
I|||zr
xrSV2i
)=-!##->5
5MNm
:tI&
_Fzb
N)]A
mC:B
qH#8
bFFX78%
vX2^u
,0< F
&).!)
=:oM
mU;,
Ck(g|
fStm
IzK@n
wT>:h_r
Ym@K
87Wc
4q5k
oGA>8
,>i?u
: $$
~pqHg
\K/R
;O;B
 |	a?
@InQAv
_nIvNvIv
%k>&
P0"w@
(q\q^q
ggcU
QXTa
 Q~.~
5k6*
~*kZ7
hQvd-
i`0Xf&kc
`y=k67<
ZAGl
qcr+F
p4}$<k
Wvy/
<xHy
n~?.
7aPI
H./s
7(/S
AJGm
(A%p
<RT&
${C(g
qhk;f
Ab{,
khT+
::A#
AZ|;@E
@AXQ
}/C>
>+hS
90"A
>'p',P
,;KO+
!=6T
zzXY
GGKk
-u7.u7)u7-u7+u7/u
ws.r
$TQjd
)JeM
($|j0
)zIH8O
MM4<
iGCx
YW)7'i
plItIa
9Lg9L
tge^
Dwdt
qw34
!?.P7
(n"S
Ok?"
.U}k
egST
x-8J
~{2S*~{
fw!+~
$/IX
%%'&
^D\O
~J%]R
RUFm
|hAR
)))C
Pr.-
CPETU
9RS2
[E3w~
{t3wA
pB>!
e&|f&
	>1"
L98gjX~
WNX~
";JA`
9?Cf
mJYN
u*@w4
QXxo^
0oAm
?IMM
Y5cY}|
_>r%p
T l*
w"W:
OGV!x
6jkh
GK!Uj
H@/c
DcOOS1`t
kl^A	
s(_Z
xl06
8j]L
AqT%
gO~n
	VW#
lMFcY
&Wd4@Zo
WJs&
kaa~`Y
/"IY
g2UB
6/Fh
]4jX
U:#W
]Wl6
4"X/
+{XS
s2pN
G<qP
O:|8
6>=9}
_,\5
+Kuv
vq\|
z"l:<
Gu^zT
l"==
Vu(o
2P,X
"Yx\
R-?zZ
=9JR
Wx(8
-h=!(
gca(c
76so*uoB
50(_
kguC
GbP^
S8T3
-QbK
ehqt
8#%q<}
kwX"}
T2?C
B,i|
P90b
rMSu
J2HU
KCoP6
\Q6L[
KJMI
\{Km
\fAm
@Q;b
>_C}
]aEJ
>`o>
W&[zH
B&X]b
<mP 
82@)Nz
jt>>'X
m xbb
=.JQ
xu&;Yt
~CQPDi<
D>'X}o
u1('
Gu1(
!BoE
V8zta
W5uB
Y` @
`[bf[*
)?e\
lW@>
pG2	;
:EG}
7K+:
])sU
1>1)]
%!+2^
Kj5Hj
FhVF
@l>h
 !UZ
o_d+
Jp)Xj
$o$9!a<
!k=!+2
R9wcC
XV~#
p(Qo
z#o2o
y#4nc
B_o| 
x+x?
KIIQ
[F:(i
6JIw
GCo'
<E>y
8J|p
'F~t
ytG]8
^d.}
||C6eA
eMP =
_YXI/
%Y"$Y,I
S78-ALnB
,+|V
}8g+
:-_U
!H}F
;A!/C
&s9 
/Qy7
|apI
p{}4
I2c'
Yq;U
{E$W
*Mn'
K~`/&
r:=D
\W7<u)
4/x	0-
_z!8d-
Wmxjy
dW(5
Xs9 	
"yS)yS
\$o%%o
%jqS
ynmYn
1]o}~
dV<2K
L=Y3
n24"
h=[q
7,ya
5jtr
j.Uz
}f+{
#ow{
J<h.
uNHE
.$d>p
/siH
da|}
yvRI
~~Q(
kXwqcwOh
W!u}
btgh
h^7i
?!qh
FUd0
[\R4vD
ib?@
*RtR
l=2B
Qz$O
#n=2Q
o3#3
bsMm8
mI9}
|/oMj?f
QgxAe
`U(T
_xK.
;5Ce
ODcP.
W$p\
0G8|
h[	\f
%X@ H
1s(TV
KM}$
P	7C%
Z]PC%
`U(T4
J-3Pj
(	(QF
1'c0(+
u%j]A
+A#VPc$j
j=^	`
0o6z
Am&Q
	js	0
`u8`
1DKD
=]	p
/A$^P
Kc1(
8[c_
kpYM}#
NP3%j
pY]=
$j'A
.@fv
KP{H
LO#d
L$c0C
)d66~
.eM'6
iM1(ex
`u8\
jAR!X
`U(l
o[`P.
c-0(G
OuC`
:,uj
Q,c0
%Qg	
`u8x
VsZaP
W[aP^
,1@f
iK<m
Vk(`
e-\6S
 X'Ac
`u8P
=Y	\
OKpy
%A}A
$Q7	
u1L[
6A}]
Q	dv
]m>k
.-{d.
2^}"nC
d>1@f
}Q	d
`U(d
` 0:
OuC`t
Ntpl
;A="Q
KuC`
(KJr
hZ|tqnIt
@3n/
IS5vT
?fx;
A;1;?
Q!dw&mD
suK6
S5v$
:U;3U[
0M[$b
; b_
E"6O
{{PH
y>	5,
06(?%
	G&i
qHsA
I8&K
!V8;
bc"Go
%jmA
{IP/HT
Du	j
$j5A
!BPkI
5JPkJ9
b;~GC)
+vyv
{?;R$
tAm/
m%j[Am'
QP;I9
[@8&H
rWHsL
rWH#L
4)6??c
0Am`
6?[Q
rWH$&
g3	6
`}m~
]!vL
86&P
<aS}
y&NQ
]\RX
"z4q
mHRRB
#$lJ0A
)S&Qn
MNNJI
/FvI^aAk
/RvI
2]cG
jb=U+X
8C;6C{
L:gw
[0S[8ScG
)Lys
,m6=
J;E8^
~III)
.+lF
qo10nQ
;:8^cOz
_eaj
S%ZJ
YcJ)w
>Qn0
9^oV
S{=,
)Lye
 15)5
M0C$
x46W
u@Io
r5e*
CTy{
\_0.
G"-zaT=
VTb-
3s5v$
]<_aI
t0L90Ws
YnG'8P)
A)~wuJ1=
*ENq
04+:V
:wCo7'
f]/I
2]1_[3_V
y4-O|\
HE=e
,;0'8
hLv3c
aFK^
:_+_
2!<R
lB8a7;
hzdT
1Z}0Z
YV?S
nsFW
z+V0-
c9V-
wxi7
j0\CJ
"Myl
TiE	e
Th#i
p6f:*
K;`8
g7h<
kTxi
o!%;=
D{)<
q$q}
WV`6
iV`L Y
nnAus
+L9?g^
qBBqE
Qy?<
=Hpn
	W>[
GP{I
u4(/
8bVx
9n5p
Vb#X
 +i1
WOUn
Vj3Vi
WbH^b
*mev
4!brD
6-"|jD
==*3#
tHtv
,L4(}
sL2h
6c-[t
Ge;;mf'(
G_bP
ZPWI
[R8:
FrFj
`px+
*dtCZ
;2{l~
*'-_Gh\
xw).
b_,s*
j2C@
WUN[
+h+zm
@U0^
qmij
$  WKfa
21sI
JwQ.
9KhU
yIbh
<$	R
{ujb
R.Gt
ejIe
%8&m
E"C^
!+2nac
Pv.-
[d=H
;$yb
T4M1h
}^1B
,L8d
%2%-=%%!=9=!3
@rZ%
d`QnN
sp;V
`;kf;'
bFz;%T
rKnv
JfGE
dfT$O&:("W
t~EI
1nV2=
AVap|
5Y1i
gv~q
';bP
Mp?X=
,%0X
O</h
"MtP1O)q
&P@-
wis'+
+!wt
Q,L,#E
-NL"
gzjJ
Nx^k
Dhc	
+f`e
DBp7
.<YP
`p~o#
A'zx
b4}7N
ejgeZg
XfvVfu
I,K;+
&xD!q
Hr{`
"Xc`
lJ`0
I&iOS
Yf4ac{
8n X`
/!k@
 kuJ
 w	e
Co3$
,6th
w~K?
<x.W
(rN 
H}AC
*@CV
0E|P7E|Pt
+	jcG&T
edK^
(v^c
o:GG
U{0)
|O'y
w:og
,yQQ
G$^g
GiB6
Cw0$
/e	 ~JR
=m*1
!~xt
z|>5
+V^A
U4JS
&Q^c
UUZ9Qt2
J@|PrdG
SA,owQ
4d#<b!X
^]]W	
5I{*o
=J|=N^
w;+A
o5N]yU
SWZ5
LwKK
}vWv
dAW6 
q.zC<M
Wu5\+/
/bg	
$wu5^+
oT7+
>*`.
CzOy
V>~S
y>%<
ZyJI
>RuP
B&;^
D}7T
A}Ji
9ia4
9H#OE
-~]7
!~g!
insA
,zR`4
Fv%t
vap=
		,T
pRkE{
:[mR	]4
I#;U
't5t
Q7UY
hO8C
_UE;wSE;wk
sQ}7
]zE;
&[6t#
ge0	
ggoL
{bm@
7 >UR
E[O0
*@'u
.8* 
,4eM
BV9^
OKwTW
IIZv
q>`N
^SkV
aTW'\g
e&<)
5QW7kM
	B]}
	Of	
<PiJ}b
u5K@
UUWs7UWs
FD2L]
^I6t#@su
=~Yw
=)=;=C
POTZ
M5=K
210-
]mHt
d.<6u
aZO1&
;aS`
LS+B
/4I}n
	vyT
K/7e
E@~c
\rboLr
%hH=<
Rrw	
E,ouW
B`c|
vgri
LX{i7
m|UV
%[~'
oJ>+
vq}| F
]9B%
OsP'Q:
N:O$
Jbg%
0bYv
**,.
$=M%W
![zX
%u55
[zDE)"
07;cRznN
%&<Y"x
"qH09
CeWFJJ
p 2q=
v 2#%-
pa<?
Dr7=
:YI%v
|oY<
Y08?
>RuP
Pk-7Fv 2;3
D}5T
a_7$
=_	,
Zgge
J.wWT
#YmCG
]PW]VK
g(o2I{
]=zT
(7n=
%T%$
'=P4
r&$Z
_7o$
AzH)y*
{GHr
)%OWA
<HvR$<
p{[$
[8fy
<?rS
(rV;G
ed:<
H)yak
k["!z
`>w(
H)y*
,!; 
JR!R
7~l 	
d 	{
y	H3s
yNyc@
(^y:
v{Lau
R~*Pf
1`uP
V*IUz}
"Hz]
6)I^%
3pf_
<{r 
'nZw
&=s&p
J3x$>y~ xy
#pp:
)0OK
,X~y
`)x}
X#/X
[(9 3
}'z]
u^Zo-
vCm1
l]ga
q!#P
2Jr$
*ooE/
bK~!
b'4]
>dsx
fs`Bja
PQ?b
>CIz[=
$+{c'Y
%hgY
-S'%
kY['
N,G{*
s{bi>]
ooECf
T#C,sOW
,<]Y
64d9
3o_E
v4d5
&+ j
9ZDv
H2&0
9IDN
E>CD>]
_fj 
f7%5+='
+XF=@G
sg[_
qNQ_
a(.gG;
"1W0b.Db
ah5(
KaIOk
irX2BbYL
R]AVv
9 Rd
T9A8
1!7;
#C`Y
Q*TO
ovIvTjcP
rjJNx
sSMW<(
Q+-.
Td0P
^f\H5]
+l#B2
"a+x
"KZj0
WM%t
\>\A
;}jC
y$@f
+3gJMO
F@1^
	Z_~a
v'I5
RU&3-
yU52Hf
T0i*
UXkgIu1Y
Q<tbZ
Wo	@[
L-YT
.-%3
s '\
Oz62
rWC@~
:iZj
2C]ZZ
Y?#dS
6,8'yOF
\vjdU
_FdU
_v$U
)t9)
?tqR
|C\U
.A=\
`m[S
9`Ya
@+9N
-35Bh%
?>,6
8D.W
{8nU
p>+CV
EA4S
k'FL
qV\h
b22Cb
HotYn
*4vy
wQxO
 7EF*
=oJq37#
	<#Cq
Ihie
2@2SB
7.",
l3S3C
2Hfp
:!.B\
w$Hu
jyff
O:H~c
8Ej0
QW9(
- P:
R0pv$
kkO9
L90aT
R=mH
r3CV
%7hE
4yrx
*M?P
bZIe
mIkl}]
5rh2C
(+==
P_,X
KQ(+
>ee.
2@T/G
L9RE
jEkP
G5M>
p[Ei
$~ACm
S-rP
>i=W
fsD_:
rIIU,Z
Rcrz0
O\:^
|EF	
[W]^
:$T3[g
(~?T
Z^[E}
V{|)
IQ8W
n+9?
K_Bv1";E
C0H/:
b(t7
A5f g
uFz h.`
v9QW
LD5/,$
i))!
!FXcg
PsBj
&pa`
<=,Om;
L,KZP
nHKK
<5.~
*z/Gr
j_rJ
(s=L
rV;G
S]91y<t
T1tb
R_(Z
Kt)P}
KvW';
zArauYe]9
:]^.
k_O{
@5N/
)!73
'RV4
2G-.
tXy"m?
-+-X
LfcZ
2#D!
]US)
5O5jdj
<en>9
79(!+
A	Yig
\Uy5
D9L!+
PG)8iR
K)2p@
ZsT%
X\S;
7v	E
RPM/
4lr)
f3!(@
L`%P7
n(_-
gCOQ]e
QHR38
dh$/Y(
*6UA%
0X2n
Dd>I.
=;8tFlt
V\?x
+#;=h
4+LHCW
`QBw+
:Loa
 aWy
rse	
m]fZ
JQ -;
,G~Q>
pS	fE
/e_W
3X^,
$%[jrds^%
AnJDb
^;a6
2[?cw
j|X5
]@w~
QC]U5
J5]:,
N*d5P
z*\/
5LY(-t
6urs
SQ[P
{^KJu
+HH&,
I|	A
8D5	P
yx3*Ex
)%;%H
M`'"
Mpvj0
Y1wY$7
Zc  
zX5,v
 OKU{
>je3
G@%.
MFP4
FV=-
o|!.
eh%#
h=@Y
V7qJw
XxU{
2=oF
`x+Q
z0N0e`*
M`|`
$0Pv[
,0@k;
I0@[
l0@[
tv@}v
tv@]v@]v
r0@s
.FA;
h(o4
Y10N
}Gl6
X(S,
X([,
X(s,
( qM
9++A
Q*$\f9
RfpH
%oI$S
|o&T
9 +a
qU 2
ih0D
u DF
YUcG
Kvz=
v1#[F
	5Q%
Cc99f
FqAv<ny
4W{FU9
#gRu
P,o@
46:f
sUVb*V
:~mp
ljtlA_D
Jlkt<
Tx=U
xK"V%
"AO5
YNzs
3QUH
"t`*
,0i(
xPZ7R
RJzV
47x=
Z?WAS
S8$Wv
*6"|
YDsD
b!BL
'(jr
nr|C
ygGO
Xtf?<
-g`=
x n"h
qNw%^S
0s,i!
dQXn9X
}'L%
9Yla[
K?Q"
Cktz
er@2%[#
FK@kL
lLVF$-r
"K26
b'Ri
goak"
iT%O
o(`vi.
o!dg
#dw1!
\nC;
0!_w
LfOy
Of/Le
40U`
EczCn2
*ns>,:
Rns~.
l^`]
']9~
G4wt3
:\lL
w[bj
[r7c
,fgv
7`vk
x_g|
_eYk
m!~{
3tnn73
Hns9x
b>_Z
o'`&
jn3]
GlO\z,
?xAs
\b?}>
'p{"
Bn/F{j
librustc_llvm-39b92f95.so.debug
.data
.rodata
.shstrtab
.dynamic
.note.rustc
.note.gnu.build-id
.gcc_except_table
.eh_frame
.gnu.hash
.fini
.gnu_debuglink
.dynsym
.gnu.version
.rela.dyn
.data.rel.ro
.gnu.version_r
.jcr
.eh_frame_hdr
.dynstr
.bss
.init
.rela.plt
.got.plt
.plt.got
.text
.fini_array
.init_array
